

Microchip MPLAB XC8 Assembler V2.50 build 20240725155939 
                                                                                               Mon Jul 21 19:11:40 2025

Microchip MPLAB XC8 C Compiler v2.50 (Free license) build 20240725155939 Og9 
     1                           	processor	18F4550
     2                           	fnconf	rparam,??,?,0
     3                           	pagewidth 120
     4                           	opt	flic
     5                           	psect	idataCOMRAM,global,class=CODE,space=0,delta=1,noexec
     6                           	psect	mediumconst,global,reloc=2,class=MEDIUMCONST,space=0,delta=1,noexec
     7                           	psect	cinit,global,reloc=2,class=CODE,space=0,delta=1
     8                           	psect	bssCOMRAM,global,class=COMRAM,space=1,delta=1,lowdata,noexec
     9                           	psect	dataCOMRAM,global,class=COMRAM,space=1,delta=1,lowdata,noexec
    10                           	psect	cstackBANK0,global,class=BANK0,space=1,delta=1,lowdata,noexec
    11                           	psect	cstackCOMRAM,global,class=COMRAM,space=1,delta=1,lowdata,noexec
    12                           	psect	text0,global,reloc=2,class=CODE,space=0,delta=1
    13                           	psect	text1,global,reloc=2,class=CODE,space=0,delta=1
    14                           	psect	text2,global,reloc=2,class=CODE,space=0,delta=1
    15                           	psect	text3,global,reloc=2,class=CODE,space=0,delta=1,group=1
    16                           	psect	text4,global,reloc=2,class=CODE,space=0,delta=1
    17                           	psect	text5,global,reloc=2,class=CODE,space=0,delta=1
    18                           	psect	text6,global,reloc=2,class=CODE,space=0,delta=1
    19                           	psect	text7,global,reloc=2,class=CODE,space=0,delta=1,group=1
    20                           	psect	text8,global,reloc=2,class=CODE,space=0,delta=1,group=1
    21                           	psect	text9,global,reloc=2,class=CODE,space=0,delta=1
    22                           	psect	text10,global,reloc=2,class=CODE,space=0,delta=1
    23                           	psect	text11,global,reloc=2,class=CODE,space=0,delta=1,group=1
    24                           	psect	text12,global,reloc=2,class=CODE,space=0,delta=1
    25                           	psect	text13,global,reloc=2,class=CODE,space=0,delta=1
    26                           	psect	text14,global,reloc=2,class=CODE,space=0,delta=1
    27                           	psect	text15,global,reloc=2,class=CODE,space=0,delta=1
    28                           	psect	text16,global,reloc=2,class=CODE,space=0,delta=1
    29                           	psect	text17,global,reloc=2,class=CODE,space=0,delta=1
    30                           	psect	text18,global,reloc=2,class=CODE,space=0,delta=1
    31                           	psect	text19,global,reloc=2,class=CODE,space=0,delta=1
    32                           	psect	text20,global,reloc=2,class=CODE,space=0,delta=1
    33                           	psect	text21,global,reloc=2,class=CODE,space=0,delta=1
    34                           	psect	text22,global,reloc=2,class=CODE,space=0,delta=1
    35                           	psect	intcode,global,reloc=2,class=CODE,space=0,delta=1
    36                           	psect	intcode_body,global,reloc=2,class=CODE,space=0,delta=1
    37                           	psect	text24,global,reloc=2,class=CODE,space=0,delta=1
    38                           	psect	text25,global,reloc=2,class=CODE,space=0,delta=1
    39                           	psect	text26,global,reloc=2,class=CODE,space=0,delta=1
    40                           	psect	text27,global,reloc=2,class=CODE,space=0,delta=1
    41                           	psect	text28,global,reloc=2,class=CODE,space=0,delta=1
    42                           	psect	text29,global,reloc=2,class=CODE,space=0,delta=1
    43                           	psect	text30,global,reloc=2,class=CODE,space=0,delta=1
    44                           	psect	text31,global,reloc=2,class=CODE,space=0,delta=1
    45                           	psect	text32,global,reloc=2,class=CODE,space=0,delta=1
    46                           	psect	text33,global,reloc=2,class=CODE,space=0,delta=1
    47                           	psect	text34,global,reloc=2,class=CODE,space=0,delta=1
    48                           	psect	text35,global,reloc=2,class=CODE,space=0,delta=1
    49                           	psect	text36,global,reloc=2,class=CODE,space=0,delta=1
    50                           	psect	text37,global,reloc=2,class=CODE,space=0,delta=1
    51                           	psect	text38,global,reloc=2,class=CODE,space=0,delta=1
    52                           	psect	text39,global,reloc=2,class=CODE,space=0,delta=1
    53                           	psect	text40,global,reloc=2,class=CODE,space=0,delta=1,group=1
    54                           	psect	text41,global,reloc=2,class=CODE,space=0,delta=1,group=1
    55                           	psect	text42,global,reloc=2,class=CODE,space=0,delta=1
    56                           	psect	text43,global,reloc=2,class=CODE,space=0,delta=1
    57                           	psect	text44,global,reloc=2,class=CODE,space=0,delta=1
    58                           	psect	intsave_regs,global,class=BIGRAM,space=1,delta=1,noexec
    59                           	psect	rparam,global,class=COMRAM,space=1,delta=1,noexec
    60                           	psect	temp,global,ovrld,common,class=COMRAM,space=1,delta=1,lowdata
    61                           	psect	idloc,global,abs,ovrld,class=IDLOC,space=5,delta=1,noexec
    62                           	psect	config,global,abs,ovrld,class=CONFIG,space=4,delta=1,noexec
    63   000000                     
    64                           ; Generated 25/07/2024 GMT
    65                           ; 
    66                           ; Copyright © 2024, Microchip Technology Inc. and its subsidiaries ("Microchip")
    67                           ; All rights reserved.
    68                           ; 
    69                           ; This software is developed by Microchip Technology Inc. and its subsidiaries ("Microch
      +                          ip").
    70                           ; 
    71                           ; Redistribution and use in source and binary forms, with or without modification, are
    72                           ; permitted provided that the following conditions are met:
    73                           ; 
    74                           ;     1. Redistributions of source code must retain the above copyright notice, this lis
      +                          t of
    75                           ;        conditions and the following disclaimer.
    76                           ; 
    77                           ;     2. Redistributions in binary form must reproduce the above copyright notice, this 
      +                          list
    78                           ;        of conditions and the following disclaimer in the documentation and/or other
    79                           ;        materials provided with the distribution. Publication is not required when
    80                           ;        this file is used in an embedded application.
    81                           ; 
    82                           ;     3. Microchip's name may not be used to endorse or promote products derived from th
      +                          is
    83                           ;        software without specific prior written permission.
    84                           ; 
    85                           ; THIS SOFTWARE IS PROVIDED BY MICROCHIP "AS IS" AND ANY EXPRESS OR IMPLIED WARRANTIES,
    86                           ; INCLUDING, BUT NOT LIMITED TO, THE IMPLIED WARRANTIES OF MERCHANTABILITY AND FITNESS F
      +                          OR
    87                           ; PURPOSE ARE DISCLAIMED.  IN NO EVENT SHALL MICROCHIP BE LIABLE FOR ANY DIRECT, INDIREC
      +                          T,
    88                           ; INCIDENTAL, SPECIAL, EXEMPLARY, OR CONSEQUENTIAL DAMAGES (INCLUDING BUT NOT LIMITED TO
    89                           ; PROCUREMENT OF SUBSTITUTE GOODS OR SERVICES; LOSS OF USE, DATA OR PROFITS; OR BUSINESS
    90                           ; INTERRUPTION) HOWSOEVER CAUSED AND ON ANY THEORY OF LIABILITY, WHETHER IN CONTRACT, ST
      +                          RICT
    91                           ; LIABILITY, OR TORT (INCLUDING NEGLIGENCE OR OTHERWISE) ARISING IN ANY WAY OUT OF THE U
      +                          SE OF
    92                           ; THIS SOFTWARE, EVEN IF ADVISED OF THE POSSIBILITY OF SUCH DAMAGE.
    93                           ; 
    94                           ; 
    95                           ; Code-generator required, PIC18F4550 Definitions
    96                           ; 
    97                           ; SFR Addresses
    98   000FE0                     bsr             equ	4064
    99   000FE9                     fsr0            equ	4073
   100   000FEA                     fsr0h           equ	4074
   101   000FE9                     fsr0l           equ	4073
   102   000FE1                     fsr1            equ	4065
   103   000FE2                     fsr1h           equ	4066
   104   000FE1                     fsr1l           equ	4065
   105   000FD9                     fsr2            equ	4057
   106   000FDA                     fsr2h           equ	4058
   107   000FD9                     fsr2l           equ	4057
   108   000FEF                     indf0           equ	4079
   109   000FE7                     indf1           equ	4071
   110   000FDF                     indf2           equ	4063
   111   000FF2                     intcon          equ	4082
   112   000000                     nvmcon          equ	0
   113   000FF9                     pcl             equ	4089
   114   000FFA                     pclath          equ	4090
   115   000FFB                     pclatu          equ	4091
   116   000FEB                     plusw0          equ	4075
   117   000FE3                     plusw1          equ	4067
   118   000FDB                     plusw2          equ	4059
   119   000FED                     postdec0        equ	4077
   120   000FE5                     postdec1        equ	4069
   121   000FDD                     postdec2        equ	4061
   122   000FEE                     postinc0        equ	4078
   123   000FE6                     postinc1        equ	4070
   124   000FDE                     postinc2        equ	4062
   125   000FEC                     preinc0         equ	4076
   126   000FE4                     preinc1         equ	4068
   127   000FDC                     preinc2         equ	4060
   128   000FF3                     prod            equ	4083
   129   000FF4                     prodh           equ	4084
   130   000FF3                     prodl           equ	4083
   131   000FD8                     status          equ	4056
   132   000FF5                     tablat          equ	4085
   133   000FF6                     tblptr          equ	4086
   134   000FF7                     tblptrh         equ	4087
   135   000FF6                     tblptrl         equ	4086
   136   000FF8                     tblptru         equ	4088
   137   000FFD                     tosl            equ	4093
   138   000FE8                     wreg            equ	4072
   139   000F62                     SPPDATA         equ	3938	;# 
   140   000F63                     SPPCFG          equ	3939	;# 
   141   000F64                     SPPEPS          equ	3940	;# 
   142   000F65                     SPPCON          equ	3941	;# 
   143   000F66                     UFRM            equ	3942	;# 
   144   000F66                     UFRML           equ	3942	;# 
   145   000F67                     UFRMH           equ	3943	;# 
   146   000F68                     UIR             equ	3944	;# 
   147   000F69                     UIE             equ	3945	;# 
   148   000F6A                     UEIR            equ	3946	;# 
   149   000F6B                     UEIE            equ	3947	;# 
   150   000F6C                     USTAT           equ	3948	;# 
   151   000F6D                     UCON            equ	3949	;# 
   152   000F6E                     UADDR           equ	3950	;# 
   153   000F6F                     UCFG            equ	3951	;# 
   154   000F70                     UEP0            equ	3952	;# 
   155   000F71                     UEP1            equ	3953	;# 
   156   000F72                     UEP2            equ	3954	;# 
   157   000F73                     UEP3            equ	3955	;# 
   158   000F74                     UEP4            equ	3956	;# 
   159   000F75                     UEP5            equ	3957	;# 
   160   000F76                     UEP6            equ	3958	;# 
   161   000F77                     UEP7            equ	3959	;# 
   162   000F78                     UEP8            equ	3960	;# 
   163   000F79                     UEP9            equ	3961	;# 
   164   000F7A                     UEP10           equ	3962	;# 
   165   000F7B                     UEP11           equ	3963	;# 
   166   000F7C                     UEP12           equ	3964	;# 
   167   000F7D                     UEP13           equ	3965	;# 
   168   000F7E                     UEP14           equ	3966	;# 
   169   000F7F                     UEP15           equ	3967	;# 
   170   000F80                     PORTA           equ	3968	;# 
   171   000F81                     PORTB           equ	3969	;# 
   172   000F82                     PORTC           equ	3970	;# 
   173   000F83                     PORTD           equ	3971	;# 
   174   000F84                     PORTE           equ	3972	;# 
   175   000F89                     LATA            equ	3977	;# 
   176   000F8A                     LATB            equ	3978	;# 
   177   000F8B                     LATC            equ	3979	;# 
   178   000F8C                     LATD            equ	3980	;# 
   179   000F8D                     LATE            equ	3981	;# 
   180   000F92                     TRISA           equ	3986	;# 
   181   000F92                     DDRA            equ	3986	;# 
   182   000F93                     TRISB           equ	3987	;# 
   183   000F93                     DDRB            equ	3987	;# 
   184   000F94                     TRISC           equ	3988	;# 
   185   000F94                     DDRC            equ	3988	;# 
   186   000F95                     TRISD           equ	3989	;# 
   187   000F95                     DDRD            equ	3989	;# 
   188   000F96                     TRISE           equ	3990	;# 
   189   000F96                     DDRE            equ	3990	;# 
   190   000F9B                     OSCTUNE         equ	3995	;# 
   191   000F9D                     PIE1            equ	3997	;# 
   192   000F9E                     PIR1            equ	3998	;# 
   193   000F9F                     IPR1            equ	3999	;# 
   194   000FA0                     PIE2            equ	4000	;# 
   195   000FA1                     PIR2            equ	4001	;# 
   196   000FA2                     IPR2            equ	4002	;# 
   197   000FA6                     EECON1          equ	4006	;# 
   198   000FA7                     EECON2          equ	4007	;# 
   199   000FA8                     EEDATA          equ	4008	;# 
   200   000FA9                     EEADR           equ	4009	;# 
   201   000FAB                     RCSTA           equ	4011	;# 
   202   000FAB                     RCSTA1          equ	4011	;# 
   203   000FAC                     TXSTA           equ	4012	;# 
   204   000FAC                     TXSTA1          equ	4012	;# 
   205   000FAD                     TXREG           equ	4013	;# 
   206   000FAD                     TXREG1          equ	4013	;# 
   207   000FAE                     RCREG           equ	4014	;# 
   208   000FAE                     RCREG1          equ	4014	;# 
   209   000FAF                     SPBRG           equ	4015	;# 
   210   000FAF                     SPBRG1          equ	4015	;# 
   211   000FB0                     SPBRGH          equ	4016	;# 
   212   000FB1                     T3CON           equ	4017	;# 
   213   000FB2                     TMR3            equ	4018	;# 
   214   000FB2                     TMR3L           equ	4018	;# 
   215   000FB3                     TMR3H           equ	4019	;# 
   216   000FB4                     CMCON           equ	4020	;# 
   217   000FB5                     CVRCON          equ	4021	;# 
   218   000FB6                     ECCP1AS         equ	4022	;# 
   219   000FB6                     CCP1AS          equ	4022	;# 
   220   000FB7                     ECCP1DEL        equ	4023	;# 
   221   000FB7                     CCP1DEL         equ	4023	;# 
   222   000FB8                     BAUDCON         equ	4024	;# 
   223   000FB8                     BAUDCTL         equ	4024	;# 
   224   000FBA                     CCP2CON         equ	4026	;# 
   225   000FBB                     CCPR2           equ	4027	;# 
   226   000FBB                     CCPR2L          equ	4027	;# 
   227   000FBC                     CCPR2H          equ	4028	;# 
   228   000FBD                     CCP1CON         equ	4029	;# 
   229   000FBD                     ECCP1CON        equ	4029	;# 
   230   000FBE                     CCPR1           equ	4030	;# 
   231   000FBE                     CCPR1L          equ	4030	;# 
   232   000FBF                     CCPR1H          equ	4031	;# 
   233   000FC0                     ADCON2          equ	4032	;# 
   234   000FC1                     ADCON1          equ	4033	;# 
   235   000FC2                     ADCON0          equ	4034	;# 
   236   000FC3                     ADRES           equ	4035	;# 
   237   000FC3                     ADRESL          equ	4035	;# 
   238   000FC4                     ADRESH          equ	4036	;# 
   239   000FC5                     SSPCON2         equ	4037	;# 
   240   000FC6                     SSPCON1         equ	4038	;# 
   241   000FC7                     SSPSTAT         equ	4039	;# 
   242   000FC8                     SSPADD          equ	4040	;# 
   243   000FC9                     SSPBUF          equ	4041	;# 
   244   000FCA                     T2CON           equ	4042	;# 
   245   000FCB                     PR2             equ	4043	;# 
   246   000FCB                     MEMCON          equ	4043	;# 
   247   000FCC                     TMR2            equ	4044	;# 
   248   000FCD                     T1CON           equ	4045	;# 
   249   000FCE                     TMR1            equ	4046	;# 
   250   000FCE                     TMR1L           equ	4046	;# 
   251   000FCF                     TMR1H           equ	4047	;# 
   252   000FD0                     RCON            equ	4048	;# 
   253   000FD1                     WDTCON          equ	4049	;# 
   254   000FD2                     HLVDCON         equ	4050	;# 
   255   000FD2                     LVDCON          equ	4050	;# 
   256   000FD3                     OSCCON          equ	4051	;# 
   257   000FD5                     T0CON           equ	4053	;# 
   258   000FD6                     TMR0            equ	4054	;# 
   259   000FD6                     TMR0L           equ	4054	;# 
   260   000FD7                     TMR0H           equ	4055	;# 
   261   000FD8                     STATUS          equ	4056	;# 
   262   000FD9                     FSR2            equ	4057	;# 
   263   000FD9                     FSR2L           equ	4057	;# 
   264   000FDA                     FSR2H           equ	4058	;# 
   265   000FDB                     PLUSW2          equ	4059	;# 
   266   000FDC                     PREINC2         equ	4060	;# 
   267   000FDD                     POSTDEC2        equ	4061	;# 
   268   000FDE                     POSTINC2        equ	4062	;# 
   269   000FDF                     INDF2           equ	4063	;# 
   270   000FE0                     BSR             equ	4064	;# 
   271   000FE1                     FSR1            equ	4065	;# 
   272   000FE1                     FSR1L           equ	4065	;# 
   273   000FE2                     FSR1H           equ	4066	;# 
   274   000FE3                     PLUSW1          equ	4067	;# 
   275   000FE4                     PREINC1         equ	4068	;# 
   276   000FE5                     POSTDEC1        equ	4069	;# 
   277   000FE6                     POSTINC1        equ	4070	;# 
   278   000FE7                     INDF1           equ	4071	;# 
   279   000FE8                     WREG            equ	4072	;# 
   280   000FE9                     FSR0            equ	4073	;# 
   281   000FE9                     FSR0L           equ	4073	;# 
   282   000FEA                     FSR0H           equ	4074	;# 
   283   000FEB                     PLUSW0          equ	4075	;# 
   284   000FEC                     PREINC0         equ	4076	;# 
   285   000FED                     POSTDEC0        equ	4077	;# 
   286   000FEE                     POSTINC0        equ	4078	;# 
   287   000FEF                     INDF0           equ	4079	;# 
   288   000FF0                     INTCON3         equ	4080	;# 
   289   000FF1                     INTCON2         equ	4081	;# 
   290   000FF2                     INTCON          equ	4082	;# 
   291   000FF3                     PROD            equ	4083	;# 
   292   000FF3                     PRODL           equ	4083	;# 
   293   000FF4                     PRODH           equ	4084	;# 
   294   000FF5                     TABLAT          equ	4085	;# 
   295   000FF6                     TBLPTR          equ	4086	;# 
   296   000FF6                     TBLPTRL         equ	4086	;# 
   297   000FF7                     TBLPTRH         equ	4087	;# 
   298   000FF8                     TBLPTRU         equ	4088	;# 
   299   000FF9                     PCLAT           equ	4089	;# 
   300   000FF9                     PC              equ	4089	;# 
   301   000FF9                     PCL             equ	4089	;# 
   302   000FFA                     PCLATH          equ	4090	;# 
   303   000FFB                     PCLATU          equ	4091	;# 
   304   000FFC                     STKPTR          equ	4092	;# 
   305   000FFD                     TOS             equ	4093	;# 
   306   000FFD                     TOSL            equ	4093	;# 
   307   000FFE                     TOSH            equ	4094	;# 
   308   000FFF                     TOSU            equ	4095	;# 
   309                           
   310                           	psect	idataCOMRAM
   311   001618                     __pidataCOMRAM:
   312                           	callstack 0
   313                           
   314                           ;initializer for _lcd_backlight
   315   001618  01                 	db	1
   316                           
   317                           	psect	mediumconst
   318   007EAC                     __pmediumconst:
   319                           	callstack 0
   320   007EAC  00                 	db	0
   321   007EAD                     lcd_animacion_bienvenida@F3164:
   322                           	callstack 0
   323   007EAD  42                 	db	66
   324   007EAE  69                 	db	105
   325   007EAF  65                 	db	101
   326   007EB0  6E                 	db	110
   327   007EB1  76                 	db	118
   328   007EB2  65                 	db	101
   329   007EB3  6E                 	db	110
   330   007EB4  69                 	db	105
   331   007EB5  64                 	db	100
   332   007EB6  6F                 	db	111
   333   007EB7  20                 	db	32
   334   007EB8  61                 	db	97
   335   007EB9  6C                 	db	108
   336   007EBA  20                 	db	32
   337   007EBB  43                 	db	67
   338   007EBC  6F                 	db	111
   339   007EBD  6E                 	db	110
   340   007EBE  74                 	db	116
   341   007EBF  61                 	db	97
   342   007EC0  64                 	db	100
   343   007EC1  6F                 	db	111
   344   007EC2  72                 	db	114
   345   007EC3  00                 	db	0
   346   007EC4                     __end_oflcd_animacion_bienvenida@F3164:
   347                           	callstack 0
   348   007EC4                     _mapa_teclas:
   349                           	callstack 0
   350   007EC4  00                 	db	0
   351   007EC5  31                 	db	49
   352   007EC6  34                 	db	52
   353   007EC7  37                 	db	55
   354   007EC8  2A                 	db	42
   355   007EC9  32                 	db	50
   356   007ECA  35                 	db	53
   357   007ECB  38                 	db	56
   358   007ECC  30                 	db	48
   359   007ECD  33                 	db	51
   360   007ECE  36                 	db	54
   361   007ECF  39                 	db	57
   362   007ED0  23                 	db	35
   363   007ED1  41                 	db	65
   364   007ED2  42                 	db	66
   365   007ED3  43                 	db	67
   366   007ED4  44                 	db	68
   367   007ED5                     __end_of_mapa_teclas:
   368                           	callstack 0
   369   007ED5                     _explosion:
   370                           	callstack 0
   371   007ED5  04                 	db	4
   372   007ED6  15                 	db	21
   373   007ED7  0E                 	db	14
   374   007ED8  1F                 	db	31
   375   007ED9  0E                 	db	14
   376   007EDA  15                 	db	21
   377   007EDB  04                 	db	4
   378   007EDC  00                 	db	0
   379   007EDD                     __end_of_explosion:
   380                           	callstack 0
   381   007EDD                     _rpg:
   382                           	callstack 0
   383   007EDD  00                 	db	0
   384   007EDE  00                 	db	0
   385   007EDF  06                 	db	6
   386   007EE0  1F                 	db	31
   387   007EE1  06                 	db	6
   388   007EE2  00                 	db	0
   389   007EE3  00                 	db	0
   390   007EE4  00                 	db	0
   391   007EE5                     __end_of_rpg:
   392                           	callstack 0
   393   007EE5                     _runner2:
   394                           	callstack 0
   395   007EE5  04                 	db	4
   396   007EE6  04                 	db	4
   397   007EE7  0E                 	db	14
   398   007EE8  04                 	db	4
   399   007EE9  04                 	db	4
   400   007EEA  0C                 	db	12
   401   007EEB  08                 	db	8
   402   007EEC  04                 	db	4
   403   007EED                     __end_of_runner2:
   404                           	callstack 0
   405   007EED                     _runner1:
   406                           	callstack 0
   407   007EED  04                 	db	4
   408   007EEE  04                 	db	4
   409   007EEF  0E                 	db	14
   410   007EF0  04                 	db	4
   411   007EF1  04                 	db	4
   412   007EF2  06                 	db	6
   413   007EF3  09                 	db	9
   414   007EF4  10                 	db	16
   415   007EF5                     __end_of_runner1:
   416                           	callstack 0
   417   007EF5                     _runner0:
   418                           	callstack 0
   419   007EF5  04                 	db	4
   420   007EF6  04                 	db	4
   421   007EF7  0E                 	db	14
   422   007EF8  04                 	db	4
   423   007EF9  04                 	db	4
   424   007EFA  04                 	db	4
   425   007EFB  04                 	db	4
   426   007EFC  0A                 	db	10
   427   007EFD                     __end_of_runner0:
   428                           	callstack 0
   429   007C4A                     _LATA2          set	31818
   430   007E81                     _POR            set	32385
   431   007E11                     _GO             set	32273
   432   007D5C                     _CREN           set	32092
   433   007D59                     _OERR           set	32089
   434   007C49                     _LATA1          set	31817
   435   007C0F                     _RB7            set	31759
   436   007C0E                     _RB6            set	31758
   437   007C0D                     _RB5            set	31757
   438   007C0C                     _RB4            set	31756
   439   007EAF                     _TMR0ON         set	32431
   440   007F93                     _RBIE           set	32659
   441   007F90                     _RBIF           set	32656
   442   007F96                     _PEIE           set	32662
   443   007F97                     _GIE            set	32663
   444   007F95                     _TMR0IE         set	32661
   445   007F92                     _TMR0IF         set	32658
   446   007CF4                     _TXIF           set	31988
   447   007CF5                     _RCIF           set	31989
   448   007CEC                     _TXIE           set	31980
   449   007CED                     _RCIE           set	31981
   450   007F81                     _INT2IF         set	32641
   451   007F84                     _INT2IE         set	32644
   452   007F8F                     _RBPU           set	32655
   453   007CA0                     _TRISC0         set	31904
   454   007CA2                     _TRISC2         set	31906
   455   007C5A                     _LATC2          set	31834
   456   007C10                     _RC0            set	31760
   457   007C4C                     _LATA4          set	31820
   458   007C67                     _LATD7          set	31847
   459   007C66                     _LATD6          set	31846
   460   007C65                     _LATD5          set	31845
   461   007C64                     _LATD4          set	31844
   462   007C4B                     _LATA3          set	31819
   463   007C4D                     _LATA5          set	31821
   464   007C95                     _TRISA5         set	31893
   465   000FD6                     _TMR0           set	4054
   466   000FC4                     _ADRESH         set	4036
   467   000FAD                     _TXREG          set	4013
   468   000FAE                     _RCREG          set	4014
   469   000F81                     _PORTB          set	3969
   470   000FD5                     _T0CON          set	4053
   471   000FC0                     _ADCON2         set	4032
   472   000FC1                     _ADCON1         set	4033
   473   000FC2                     _ADCON0         set	4034
   474   000FAF                     _SPBRG          set	4015
   475   000FB8                     _BAUDCON        set	4024
   476   000FAB                     _RCSTA          set	4011
   477   000FAC                     _TXSTA          set	4012
   478   000F8A                     _LATB           set	3978
   479   000F93                     _TRISB          set	3987
   480   000F8D                     _LATE           set	3981
   481   000F96                     _TRISE          set	3990
   482   000F89                     _LATA           set	3977
   483   000F92                     _TRISA          set	3986
   484   000F8C                     _LATD           set	3980
   485   000F95                     _TRISD          set	3989
   486   007EFD                     STR_3:
   487   007EFD  50                 	db	80	;'P'
   488   007EFE  61                 	db	97	;'a'
   489   007EFF  72                 	db	114	;'r'
   490   007F00  61                 	db	97	;'a'
   491   007F01  64                 	db	100	;'d'
   492   007F02  61                 	db	97	;'a'
   493   007F03  20                 	db	32
   494   007F04  64                 	db	100	;'d'
   495   007F05  65                 	db	101	;'e'
   496   007F06  20                 	db	32
   497   007F07  65                 	db	101	;'e'
   498   007F08  6D                 	db	109	;'m'
   499   007F09  65                 	db	101	;'e'
   500   007F0A  72                 	db	114	;'r'
   501   007F0B  67                 	db	103	;'g'
   502   007F0C  65                 	db	101	;'e'
   503   007F0D  6E                 	db	110	;'n'
   504   007F0E  63                 	db	99	;'c'
   505   007F0F  69                 	db	105	;'i'
   506   007F10  61                 	db	97	;'a'
   507   007F11  20                 	db	32
   508   007F12  0D                 	db	13
   509   007F13  0A                 	db	10
   510   007F14  00                 	db	0
   511   007F15                     STR_14:
   512   007F15  20                 	db	32
   513   007F16  20                 	db	32
   514   007F17  20                 	db	32
   515   007F18  20                 	db	32
   516   007F19  20                 	db	32
   517   007F1A  20                 	db	32
   518   007F1B  21                 	db	33
   519   007F1C  42                 	db	66	;'B'
   520   007F1D  4F                 	db	79	;'O'
   521   007F1E  4F                 	db	79	;'O'
   522   007F1F  4D                 	db	77	;'M'
   523   007F20  21                 	db	33
   524   007F21  20                 	db	32
   525   007F22  20                 	db	32
   526   007F23  20                 	db	32
   527   007F24  20                 	db	32
   528   007F25  20                 	db	32
   529   007F26  20                 	db	32
   530   007F27  20                 	db	32
   531   007F28  20                 	db	32
   532   007F29  20                 	db	32
   533   007F2A  00                 	db	0
   534   007F2B                     STR_6:
   535   007F2B  52                 	db	82	;'R'
   536   007F2C  65                 	db	101	;'e'
   537   007F2D  73                 	db	115	;'s'
   538   007F2E  65                 	db	101	;'e'
   539   007F2F  74                 	db	116	;'t'
   540   007F30  20                 	db	32
   541   007F31  64                 	db	100	;'d'
   542   007F32  65                 	db	101	;'e'
   543   007F33  20                 	db	32
   544   007F34  63                 	db	99	;'c'
   545   007F35  6F                 	db	111	;'o'
   546   007F36  6E                 	db	110	;'n'
   547   007F37  74                 	db	116	;'t'
   548   007F38  65                 	db	101	;'e'
   549   007F39  6F                 	db	111	;'o'
   550   007F3A  20                 	db	32
   551   007F3B  0D                 	db	13
   552   007F3C  0A                 	db	10
   553   007F3D  20                 	db	32
   554   007F3E  00                 	db	0
   555   007F3F                     STR_4:
   556   007F3F  45                 	db	69	;'E'
   557   007F40  6E                 	db	110	;'n'
   558   007F41  63                 	db	99	;'c'
   559   007F42  65                 	db	101	;'e'
   560   007F43  6E                 	db	110	;'n'
   561   007F44  64                 	db	100	;'d'
   562   007F45  65                 	db	101	;'e'
   563   007F46  72                 	db	114	;'r'
   564   007F47  20                 	db	32
   565   007F48  4D                 	db	77	;'M'
   566   007F49  6F                 	db	111	;'o'
   567   007F4A  74                 	db	116	;'t'
   568   007F4B  6F                 	db	111	;'o'
   569   007F4C  72                 	db	114	;'r'
   570   007F4D  20                 	db	32
   571   007F4E  0D                 	db	13
   572   007F4F  0A                 	db	10
   573   007F50  00                 	db	0
   574   007F51                     STR_10:
   575   007F51  43                 	db	67	;'C'
   576   007F52  6F                 	db	111	;'o'
   577   007F53  6E                 	db	110	;'n'
   578   007F54  74                 	db	116	;'t'
   579   007F55  65                 	db	101	;'e'
   580   007F56  6F                 	db	111	;'o'
   581   007F57  20                 	db	32
   582   007F58  43                 	db	67	;'C'
   583   007F59  6F                 	db	111	;'o'
   584   007F5A  6D                 	db	109	;'m'
   585   007F5B  70                 	db	112	;'p'
   586   007F5C  6C                 	db	108	;'l'
   587   007F5D  65                 	db	101	;'e'
   588   007F5E  74                 	db	116	;'t'
   589   007F5F  6F                 	db	111	;'o'
   590   007F60  21                 	db	33
   591   007F61  00                 	db	0
   592   007F62                     STR_15:
   593   007F62  46                 	db	70	;'F'
   594   007F63  61                 	db	97	;'a'
   595   007F64  6C                 	db	108	;'l'
   596   007F65  6C                 	db	108	;'l'
   597   007F66  61                 	db	97	;'a'
   598   007F67  20                 	db	32
   599   007F68  64                 	db	100	;'d'
   600   007F69  65                 	db	101	;'e'
   601   007F6A  20                 	db	32
   602   007F6B  65                 	db	101	;'e'
   603   007F6C  6E                 	db	110	;'n'
   604   007F6D  65                 	db	101	;'e'
   605   007F6E  72                 	db	114	;'r'
   606   007F6F  67                 	db	103	;'g'
   607   007F70  69                 	db	105	;'i'
   608   007F71  61                 	db	97	;'a'
   609   007F72  00                 	db	0
   610   007F73                     STR_16:
   611   007F73  52                 	db	82	;'R'
   612   007F74  65                 	db	101	;'e'
   613   007F75  73                 	db	115	;'s'
   614   007F76  65                 	db	101	;'e'
   615   007F77  74                 	db	116	;'t'
   616   007F78  20                 	db	32
   617   007F79  64                 	db	100	;'d'
   618   007F7A  65                 	db	101	;'e'
   619   007F7B  20                 	db	32
   620   007F7C  75                 	db	117	;'u'
   621   007F7D  73                 	db	115	;'s'
   622   007F7E  75                 	db	117	;'u'
   623   007F7F  61                 	db	97	;'a'
   624   007F80  72                 	db	114	;'r'
   625   007F81  69                 	db	105	;'i'
   626   007F82  6F                 	db	111	;'o'
   627   007F83  00                 	db	0
   628   007F84                     STR_5:
   629   007F84  41                 	db	65	;'A'
   630   007F85  70                 	db	112	;'p'
   631   007F86  61                 	db	97	;'a'
   632   007F87  67                 	db	103	;'g'
   633   007F88  61                 	db	97	;'a'
   634   007F89  72                 	db	114	;'r'
   635   007F8A  20                 	db	32
   636   007F8B  6D                 	db	109	;'m'
   637   007F8C  6F                 	db	111	;'o'
   638   007F8D  74                 	db	116	;'t'
   639   007F8E  6F                 	db	111	;'o'
   640   007F8F  72                 	db	114	;'r'
   641   007F90  20                 	db	32
   642   007F91  0D                 	db	13
   643   007F92  0A                 	db	10
   644   007F93  00                 	db	0
   645   007F94                     STR_2:
   646   007F94  56                 	db	86	;'V'
   647   007F95  61                 	db	97	;'a'
   648   007F96  6C                 	db	108	;'l'
   649   007F97  6F                 	db	111	;'o'
   650   007F98  72                 	db	114	;'r'
   651   007F99  20                 	db	32
   652   007F9A  64                 	db	100	;'d'
   653   007F9B  65                 	db	101	;'e'
   654   007F9C  6C                 	db	108	;'l'
   655   007F9D  20                 	db	32
   656   007F9E  41                 	db	65	;'A'
   657   007F9F  44                 	db	68	;'D'
   658   007FA0  43                 	db	67	;'C'
   659   007FA1  3A                 	db	58	;':'
   660   007FA2  20                 	db	32
   661   007FA3  00                 	db	0
   662   007FA4                     STR_12:
   663   007FA4  21                 	db	33
   664   007FA5  20                 	db	32
   665   007FA6  45                 	db	69	;'E'
   666   007FA7  4D                 	db	77	;'M'
   667   007FA8  45                 	db	69	;'E'
   668   007FA9  52                 	db	82	;'R'
   669   007FAA  47                 	db	71	;'G'
   670   007FAB  45                 	db	69	;'E'
   671   007FAC  4E                 	db	78	;'N'
   672   007FAD  43                 	db	67	;'C'
   673   007FAE  49                 	db	73	;'I'
   674   007FAF  41                 	db	65	;'A'
   675   007FB0  20                 	db	32
   676   007FB1  21                 	db	33
   677   007FB2  00                 	db	0
   678   007FB3                     STR_9:
   679   007FB3  49                 	db	73	;'I'
   680   007FB4  6E                 	db	110	;'n'
   681   007FB5  67                 	db	103	;'g'
   682   007FB6  72                 	db	114	;'r'
   683   007FB7  65                 	db	101	;'e'
   684   007FB8  73                 	db	115	;'s'
   685   007FB9  65                 	db	101	;'e'
   686   007FBA  20                 	db	32
   687   007FBB  76                 	db	118	;'v'
   688   007FBC  61                 	db	97	;'a'
   689   007FBD  6C                 	db	108	;'l'
   690   007FBE  6F                 	db	111	;'o'
   691   007FBF  72                 	db	114	;'r'
   692   007FC0  3A                 	db	58	;':'
   693   007FC1  00                 	db	0
   694   007FC2                     STR_1:
   695   007FC2  52                 	db	82	;'R'
   696   007FC3  61                 	db	97	;'a'
   697   007FC4  6E                 	db	110	;'n'
   698   007FC5  67                 	db	103	;'g'
   699   007FC6  6F                 	db	111	;'o'
   700   007FC7  20                 	db	32
   701   007FC8  69                 	db	105	;'i'
   702   007FC9  6E                 	db	110	;'n'
   703   007FCA  76                 	db	118	;'v'
   704   007FCB  61                 	db	97	;'a'
   705   007FCC  6C                 	db	108	;'l'
   706   007FCD  69                 	db	105	;'i'
   707   007FCE  64                 	db	100	;'d'
   708   007FCF  6F                 	db	111	;'o'
   709   007FD0  00                 	db	0
   710   007FD1                     STR_13:
   711   007FD1  52                 	db	82	;'R'
   712   007FD2  65                 	db	101	;'e'
   713   007FD3  73                 	db	115	;'s'
   714   007FD4  65                 	db	101	;'e'
   715   007FD5  74                 	db	116	;'t'
   716   007FD6  20                 	db	32
   717   007FD7  6D                 	db	109	;'m'
   718   007FD8  61                 	db	97	;'a'
   719   007FD9  6E                 	db	110	;'n'
   720   007FDA  75                 	db	117	;'u'
   721   007FDB  61                 	db	97	;'a'
   722   007FDC  6C                 	db	108	;'l'
   723   007FDD  00                 	db	0
   724   007FDE                     STR_11:
   725   007FDE  50                 	db	80	;'P'
   726   007FDF  72                 	db	114	;'r'
   727   007FE0  65                 	db	101	;'e'
   728   007FE1  73                 	db	115	;'s'
   729   007FE2  69                 	db	105	;'i'
   730   007FE3  6F                 	db	111	;'o'
   731   007FE4  6E                 	db	110	;'n'
   732   007FE5  65                 	db	101	;'e'
   733   007FE6  20                 	db	32
   734   007FE7  4F                 	db	79	;'O'
   735   007FE8  4B                 	db	75	;'K'
   736   007FE9  00                 	db	0
   737   007FEA                     STR_8:
   738   007FEA  46                 	db	70	;'F'
   739   007FEB  61                 	db	97	;'a'
   740   007FEC  6C                 	db	108	;'l'
   741   007FED  74                 	db	116	;'t'
   742   007FEE  61                 	db	97	;'a'
   743   007FEF  6E                 	db	110	;'n'
   744   007FF0  74                 	db	116	;'t'
   745   007FF1  65                 	db	101	;'e'
   746   007FF2  73                 	db	115	;'s'
   747   007FF3  3A                 	db	58	;':'
   748   007FF4  00                 	db	0
   749   007FF5                     STR_7:
   750   007FF5  4F                 	db	79	;'O'
   751   007FF6  62                 	db	98	;'b'
   752   007FF7  6A                 	db	106	;'j'
   753   007FF8  65                 	db	101	;'e'
   754   007FF9  74                 	db	116	;'t'
   755   007FFA  69                 	db	105	;'i'
   756   007FFB  76                 	db	118	;'v'
   757   007FFC  6F                 	db	111	;'o'
   758   007FFD  3A                 	db	58	;':'
   759   007FFE  00                 	db	0
   760   007FFF  00                 	db	0	; dummy byte at the end
   761   000002                     __activetblptr  equ	2
   762                           
   763                           ; #config settings
   764                           
   765                           	psect	cinit
   766   00142A                     __pcinit:
   767                           	callstack 0
   768   00142A                     start_initialization:
   769                           	callstack 0
   770   00142A                     __initialization:
   771                           	callstack 0
   772                           
   773                           ; Initialize objects allocated to COMRAM (1 bytes)
   774                           ; load TBLPTR registers with __pidataCOMRAM
   775   00142A  0E18               	movlw	low __pidataCOMRAM
   776   00142C  6EF6               	movwf	tblptrl,c
   777   00142E  0E16               	movlw	high __pidataCOMRAM
   778   001430  6EF7               	movwf	tblptrh,c
   779   001432  0E00               	movlw	low (__pidataCOMRAM shr (0+16))
   780   001434  6EF8               	movwf	tblptru,c
   781   001436  0009               	tblrd		*+	;fetch initializer
   782   001438  CFF5 F035          	movff	tablat,__pdataCOMRAM
   783                           
   784                           ; Clear objects allocated to COMRAM (17 bytes)
   785   00143C  EE00  F024         	lfsr	0,__pbssCOMRAM
   786   001440  0E11               	movlw	17
   787   001442                     clear_0:
   788   001442  6AEE               	clrf	postinc0,c
   789   001444  06E8               	decf	wreg,f,c
   790   001446  E1FD               	bnz	clear_0
   791   001448                     end_of_initialization:
   792                           	callstack 0
   793   001448                     __end_of__initialization:
   794                           	callstack 0
   795   001448  9036               	bcf	int$flags,0,c	;clear compiler interrupt flag (level 1)
   796   00144A  9236               	bcf	int$flags,1,c	;clear compiler interrupt flag (level 2)
   797   00144C  0E00               	movlw	low (__Lmediumconst shr (0+16))
   798   00144E  6EF8               	movwf	tblptru,c
   799   001450  0100               	movlb	0
   800   001452  EF09  F000         	goto	_main	;jump to C main() function
   801                           
   802                           	psect	bssCOMRAM
   803   000024                     __pbssCOMRAM:
   804                           	callstack 0
   805   000024                     _EMOTOR:
   806                           	callstack 0
   807   000024                     	ds	2
   808   000026                     _VADC:
   809                           	callstack 0
   810   000026                     	ds	2
   811   000028                     _inactividad:
   812                           	callstack 0
   813   000028                     	ds	2
   814   00002A                     _input:
   815                           	callstack 0
   816   00002A                     	ds	2
   817   00002C                     _contador:
   818                           	callstack 0
   819   00002C                     	ds	2
   820   00002E                     _objetivo:
   821                           	callstack 0
   822   00002E                     	ds	2
   823   000030                     _estado:
   824                           	callstack 0
   825   000030                     	ds	2
   826   000032                     _BufferR:
   827                           	callstack 0
   828   000032                     	ds	1
   829   000033                     _btnRC0_ant:
   830                           	callstack 0
   831   000033                     	ds	1
   832   000034                     _Tecla:
   833                           	callstack 0
   834   000034                     	ds	1
   835                           
   836                           	psect	dataCOMRAM
   837   000035                     __pdataCOMRAM:
   838                           	callstack 0
   839   000035                     _lcd_backlight:
   840                           	callstack 0
   841   000035                     	ds	1
   842                           
   843                           	psect	cstackBANK0
   844   000060                     __pcstackBANK0:
   845                           	callstack 0
   846   000060                     lcd_animacion_bienvenida@mensaje:
   847                           	callstack 0
   848                           
   849                           ; 23 bytes @ 0x0
   850   000060                     	ds	23
   851   000077                     _lcd_animacion_bienvenida$240:
   852                           	callstack 0
   853                           
   854                           ; 2 bytes @ 0x17
   855   000077                     	ds	2
   856   000079                     lcd_animacion_bienvenida@pasos:
   857                           	callstack 0
   858                           
   859                           ; 2 bytes @ 0x19
   860   000079                     	ds	2
   861   00007B                     lcd_animacion_bienvenida@i:
   862                           	callstack 0
   863                           
   864                           ; 2 bytes @ 0x1B
   865   00007B                     	ds	2
   866   00007D                     lcd_animacion_bienvenida@c:
   867                           	callstack 0
   868                           
   869                           ; 1 bytes @ 0x1D
   870   00007D                     	ds	1
   871   00007E                     lcd_animacion_bienvenida@j:
   872                           	callstack 0
   873                           
   874                           ; 2 bytes @ 0x1E
   875   00007E                     	ds	2
   876   000080                     lcd_animacion_bienvenida@offset:
   877                           	callstack 0
   878                           
   879                           ; 2 bytes @ 0x20
   880   000080                     	ds	2
   881                           
   882                           	psect	cstackCOMRAM
   883   000001                     __pcstackCOMRAM:
   884                           	callstack 0
   885   000001                     ?i2___awdiv:
   886                           	callstack 0
   887   000001                     ?i2___awmod:
   888                           	callstack 0
   889   000001                     ?i2___lwdiv:
   890                           	callstack 0
   891   000001                     ?i2___lwmod:
   892                           	callstack 0
   893   000001                     Transmitir@BufferT:
   894                           	callstack 0
   895   000001                     ConversionADC@canal:
   896                           	callstack 0
   897   000001                     ___lbdiv@divisor:
   898                           	callstack 0
   899   000001                     i2___awdiv@dividend:
   900                           	callstack 0
   901   000001                     i2___awmod@dividend:
   902                           	callstack 0
   903   000001                     i2___lwdiv@dividend:
   904                           	callstack 0
   905   000001                     i2___lwmod@dividend:
   906                           	callstack 0
   907   000001                     ??i2_Lcd_Cmd:
   908   000001                     ??i2_Lcd_Char:
   909                           
   910                           ; 1 bytes @ 0x0
   911   000001                     	ds	1
   912   000002                     ___lbdiv@dividend:
   913                           	callstack 0
   914   000002                     Transmitir_Cadena@cadena:
   915                           	callstack 0
   916   000002                     
   917                           ; 1 bytes @ 0x1
   918   000002                     	ds	1
   919   000003                     ___lbdiv@counter:
   920                           	callstack 0
   921   000003                     i2Lcd_Cmd@cmd:
   922                           	callstack 0
   923   000003                     i2Lcd_Char@data:
   924                           	callstack 0
   925   000003                     i2___awdiv@divisor:
   926                           	callstack 0
   927   000003                     i2___awmod@divisor:
   928                           	callstack 0
   929   000003                     i2___lwdiv@divisor:
   930                           	callstack 0
   931   000003                     i2___lwmod@divisor:
   932                           	callstack 0
   933                           
   934                           ; 2 bytes @ 0x2
   935   000003                     	ds	1
   936   000004                     ___lbdiv@quotient:
   937                           	callstack 0
   938   000004                     i2Lcd_Set_Cursor@column:
   939                           	callstack 0
   940   000004                     i2Lcd_String@str:
   941                           	callstack 0
   942   000004                     
   943                           ; 1 bytes @ 0x3
   944   000004                     	ds	1
   945   000005                     ___lbmod@divisor:
   946                           	callstack 0
   947   000005                     i2Lcd_Set_Cursor@row:
   948                           	callstack 0
   949   000005                     i2___awdiv@counter:
   950                           	callstack 0
   951   000005                     i2___awmod@counter:
   952                           	callstack 0
   953   000005                     i2___lwmod@counter:
   954                           	callstack 0
   955   000005                     i2___lwdiv@quotient:
   956                           	callstack 0
   957   000005                     
   958                           ; 1 bytes @ 0x4
   959   000005                     	ds	1
   960   000006                     ___lbmod@dividend:
   961                           	callstack 0
   962   000006                     i2___awdiv@sign:
   963                           	callstack 0
   964   000006                     i2___awmod@sign:
   965                           	callstack 0
   966   000006                     i2_Lcd_Set_Cursor$169:
   967                           	callstack 0
   968   000006                     i2unidad@i:
   969                           	callstack 0
   970   000006                     
   971                           ; 1 bytes @ 0x5
   972   000006                     	ds	1
   973   000007                     ___lbmod@counter:
   974                           	callstack 0
   975   000007                     i2___lwdiv@counter:
   976                           	callstack 0
   977   000007                     i2___awdiv@quotient:
   978                           	callstack 0
   979                           
   980                           ; 2 bytes @ 0x6
   981   000007                     	ds	1
   982   000008                     ___lbmod@rem:
   983                           	callstack 0
   984   000008                     i2Lcd_Set_Cursor@pos:
   985                           	callstack 0
   986   000008                     i2color@i:
   987                           	callstack 0
   988   000008                     ??i2_unidad:
   989                           
   990                           ; 1 bytes @ 0x7
   991   000008                     	ds	1
   992   000009                     Transmitir_Numero@valor:
   993                           	callstack 0
   994   000009                     
   995                           ; 1 bytes @ 0x8
   996   000009                     	ds	1
   997   00000A                     ??i2_color:
   998                           
   999                           ; 1 bytes @ 0x9
  1000   00000A                     	ds	2
  1001   00000C                     i2mostrar_conteo@faltan:
  1002                           	callstack 0
  1003   00000C                     
  1004                           ; 1 bytes @ 0xB
  1005   00000C                     	ds	2
  1006   00000E                     ??_ISR:
  1007                           
  1008                           ; 1 bytes @ 0xD
  1009   00000E                     	ds	5
  1010   000013                     ?___awdiv:
  1011                           	callstack 0
  1012   000013                     ?___awmod:
  1013                           	callstack 0
  1014   000013                     ?___lwdiv:
  1015                           	callstack 0
  1016   000013                     ?___lwmod:
  1017                           	callstack 0
  1018   000013                     ___awdiv@dividend:
  1019                           	callstack 0
  1020   000013                     ___awmod@dividend:
  1021                           	callstack 0
  1022   000013                     ___lwdiv@dividend:
  1023                           	callstack 0
  1024   000013                     ___lwmod@dividend:
  1025                           	callstack 0
  1026   000013                     ??_Lcd_Cmd:
  1027   000013                     ??_inicializar_hardware:
  1028   000013                     ??_beep_corto:
  1029   000013                     ??_beep_largo:
  1030   000013                     ??_Lcd_Char:
  1031                           
  1032                           ; 1 bytes @ 0x12
  1033   000013                     	ds	2
  1034   000015                     Lcd_Cmd@cmd:
  1035                           	callstack 0
  1036   000015                     Lcd_Char@data:
  1037                           	callstack 0
  1038   000015                     ___awdiv@divisor:
  1039                           	callstack 0
  1040   000015                     ___awmod@divisor:
  1041                           	callstack 0
  1042   000015                     ___lwdiv@divisor:
  1043                           	callstack 0
  1044   000015                     ___lwmod@divisor:
  1045                           	callstack 0
  1046                           
  1047                           ; 2 bytes @ 0x14
  1048   000015                     	ds	1
  1049   000016                     Lcd_Set_Cursor@column:
  1050                           	callstack 0
  1051   000016                     Lcd_String@str:
  1052                           	callstack 0
  1053   000016                     LCD_CrearCaracter@pattern:
  1054                           	callstack 0
  1055   000016                     ??_Lcd_Init:
  1056                           
  1057                           ; 1 bytes @ 0x15
  1058   000016                     	ds	1
  1059   000017                     Lcd_Set_Cursor@row:
  1060                           	callstack 0
  1061   000017                     ___awdiv@counter:
  1062                           	callstack 0
  1063   000017                     ___awmod@counter:
  1064                           	callstack 0
  1065   000017                     ___lwmod@counter:
  1066                           	callstack 0
  1067   000017                     ___lwdiv@quotient:
  1068                           	callstack 0
  1069   000017                     
  1070                           ; 1 bytes @ 0x16
  1071   000017                     	ds	1
  1072   000018                     Lcd_Set_Cursor@pos:
  1073                           	callstack 0
  1074   000018                     ___awdiv@sign:
  1075                           	callstack 0
  1076   000018                     ___awmod@sign:
  1077                           	callstack 0
  1078   000018                     unidad@i:
  1079                           	callstack 0
  1080   000018                     ??_LCD_CrearCaracter:
  1081                           
  1082                           ; 1 bytes @ 0x17
  1083   000018                     	ds	1
  1084   000019                     ___lwdiv@counter:
  1085                           	callstack 0
  1086   000019                     _Lcd_Set_Cursor$169:
  1087                           	callstack 0
  1088   000019                     ___awdiv@quotient:
  1089                           	callstack 0
  1090                           
  1091                           ; 2 bytes @ 0x18
  1092   000019                     	ds	1
  1093   00001A                     LCD_CrearCaracter@pos:
  1094                           	callstack 0
  1095   00001A                     color@i:
  1096                           	callstack 0
  1097   00001A                     ??_unidad:
  1098                           
  1099                           ; 1 bytes @ 0x19
  1100   00001A                     	ds	1
  1101   00001B                     LCD_CrearCaracter@i:
  1102                           	callstack 0
  1103   00001B                     ??_mensaje_reset:
  1104   00001B                     
  1105                           ; 1 bytes @ 0x1A
  1106   00001B                     	ds	1
  1107   00001C                     ??_lcd_animacion_bienvenida:
  1108   00001C                     ??_color:
  1109                           
  1110                           ; 1 bytes @ 0x1B
  1111   00001C                     	ds	2
  1112   00001E                     mostrar_conteo@faltan:
  1113                           	callstack 0
  1114   00001E                     
  1115                           ; 1 bytes @ 0x1D
  1116   00001E                     	ds	2
  1117   000020                     ??_main:
  1118                           
  1119                           ; 1 bytes @ 0x1F
  1120   000020                     	ds	2
  1121   000022                     main@btnRC0:
  1122                           	callstack 0
  1123                           
  1124                           ; 1 bytes @ 0x21
  1125   000022                     	ds	1
  1126   000023                     main@tecla:
  1127                           	callstack 0
  1128                           
  1129                           ; 1 bytes @ 0x22
  1130   000023                     	ds	1
  1131                           
  1132 ;;
  1133 ;;Main: autosize = 0, tempsize = 2, incstack = 0, save=0
  1134 ;;
  1135 ;; *************** function _main *****************
  1136 ;; Defined at:
  1137 ;;		line 112 in file "Laboratorio_5.c"
  1138 ;; Parameters:    Size  Location     Type
  1139 ;;		None
  1140 ;; Auto vars:     Size  Location     Type
  1141 ;;  tecla           1   34[COMRAM] unsigned char 
  1142 ;;  btnRC0          1   33[COMRAM] unsigned char 
  1143 ;; Return value:  Size  Location     Type
  1144 ;;                  1    wreg      void 
  1145 ;; Registers used:
  1146 ;;		wreg, fsr2l, fsr2h, status,2, status,0, tblptrl, tblptrh, tblptru, prodl, prodh, cstack
  1147 ;; Tracked objects:
  1148 ;;		On entry : 0/0
  1149 ;;		On exit  : 0/0
  1150 ;;		Unchanged: 0/0
  1151 ;; Data sizes:     COMRAM   BANK0   BANK1   BANK2   BANK3   BANK4   BANK5   BANK6   BANK7
  1152 ;;      Params:         0       0       0       0       0       0       0       0       0
  1153 ;;      Locals:         2       0       0       0       0       0       0       0       0
  1154 ;;      Temps:          2       0       0       0       0       0       0       0       0
  1155 ;;      Totals:         4       0       0       0       0       0       0       0       0
  1156 ;;Total ram usage:        4 bytes
  1157 ;; Hardware stack levels required when called: 7
  1158 ;; This function calls:
  1159 ;;		_Lcd_Char
  1160 ;;		_Lcd_Clear
  1161 ;;		_Lcd_Init
  1162 ;;		_Lcd_Set_Cursor
  1163 ;;		_Lcd_String
  1164 ;;		___lwdiv
  1165 ;;		___lwmod
  1166 ;;		_beep_corto
  1167 ;;		_beep_largo
  1168 ;;		_emergencia
  1169 ;;		_inicializar_hardware
  1170 ;;		_lcd_animacion_bienvenida
  1171 ;;		_mensaje_reset
  1172 ;;		_mostrar_completado
  1173 ;;		_mostrar_conteo
  1174 ;;		_mostrar_valor
  1175 ;; This function is called by:
  1176 ;;		Startup code after reset
  1177 ;; This function uses a non-reentrant model
  1178 ;;
  1179                           
  1180                           	psect	text0
  1181   000012                     __ptext0:
  1182                           	callstack 0
  1183   000012                     _main:
  1184                           	callstack 24
  1185                           
  1186                           ;Laboratorio_5.c: 113: inicializar_hardware();
  1187                           
  1188                           ;incstack = 0
  1189   000012  EC10  F007         	call	_inicializar_hardware	;wreg free
  1190                           
  1191                           ;Laboratorio_5.c: 114: inactividad = 0;
  1192   000016  0E00               	movlw	0
  1193   000018  6E29               	movwf	(_inactividad+1)^0,c
  1194   00001A  0E00               	movlw	0
  1195   00001C  6E28               	movwf	_inactividad^0,c
  1196                           
  1197                           ;Laboratorio_5.c: 115: Lcd_Init();
  1198   00001E  ECE4  F008         	call	_Lcd_Init	;wreg free
  1199                           
  1200                           ;Laboratorio_5.c: 116: beep_corto();
  1201   000022  ECD9  F00A         	call	_beep_corto	;wreg free
  1202                           
  1203                           ;Laboratorio_5.c: 117: _delay((unsigned long)((1000)*(1000000/4000.0)));
  1204   000026  0E02               	movlw	2
  1205   000028  6E21               	movwf	(??_main+1)^0,c
  1206   00002A  0E45               	movlw	69
  1207   00002C  6E20               	movwf	??_main^0,c
  1208   00002E  0EAA               	movlw	170
  1209   000030                     u4787:
  1210   000030  2EE8               	decfsz	wreg,f,c
  1211   000032  D7FE               	bra	u4787
  1212   000034  2E20               	decfsz	??_main^0,f,c
  1213   000036  D7FC               	bra	u4787
  1214   000038  2E21               	decfsz	(??_main+1)^0,f,c
  1215   00003A  D7FA               	bra	u4787
  1216                           
  1217                           ;Laboratorio_5.c: 118: mensaje_reset();
  1218   00003C  EC90  F008         	call	_mensaje_reset	;wreg free
  1219                           
  1220                           ;Laboratorio_5.c: 119: inactividad = 0;
  1221   000040  0E00               	movlw	0
  1222   000042  6E29               	movwf	(_inactividad+1)^0,c
  1223   000044  0E00               	movlw	0
  1224   000046  6E28               	movwf	_inactividad^0,c
  1225                           
  1226                           ;Laboratorio_5.c: 120: lcd_animacion_bienvenida();
  1227   000048  ECEC  F002         	call	_lcd_animacion_bienvenida	;wreg free
  1228                           
  1229                           ;Laboratorio_5.c: 121: estado = 1;
  1230   00004C  0E00               	movlw	0
  1231   00004E  6E31               	movwf	(_estado+1)^0,c
  1232   000050  0E01               	movlw	1
  1233   000052  6E30               	movwf	_estado^0,c
  1234                           
  1235                           ;Laboratorio_5.c: 122: mostrar_valor();
  1236   000054  ECB2  F00A         	call	_mostrar_valor	;wreg free
  1237   000058                     l3667:
  1238                           
  1239                           ;Laboratorio_5.c: 125: unsigned char btnRC0 = RC0;
  1240   000058  0E00               	movlw	0
  1241   00005A  B082               	btfsc	3970,0,c	;volatile
  1242   00005C  0E01               	movlw	1
  1243   00005E  6E22               	movwf	main@btnRC0^0,c
  1244                           
  1245                           ;Laboratorio_5.c: 126: if (btnRC0 == 1 && btnRC0_ant == 0) {
  1246   000060  0422               	decf	main@btnRC0^0,w,c
  1247   000062  A4D8               	btfss	status,2,c
  1248   000064  D034               	goto	l3695
  1249   000066  5033               	movf	_btnRC0_ant^0,w,c
  1250   000068  A4D8               	btfss	status,2,c
  1251   00006A  D031               	goto	l3695
  1252                           
  1253                           ;Laboratorio_5.c: 127: inactividad = 0;
  1254   00006C  0E00               	movlw	0
  1255   00006E  6E29               	movwf	(_inactividad+1)^0,c
  1256   000070  0E00               	movlw	0
  1257   000072  6E28               	movwf	_inactividad^0,c
  1258                           
  1259                           ;Laboratorio_5.c: 128: if (estado == 2) {
  1260   000074  0E02               	movlw	2
  1261   000076  1830               	xorwf	_estado^0,w,c
  1262   000078  1031               	iorwf	(_estado+1)^0,w,c
  1263   00007A  A4D8               	btfss	status,2,c
  1264   00007C  D028               	goto	l3695
  1265                           
  1266                           ;Laboratorio_5.c: 129: if (contador < 59) contador++;
  1267   00007E  502D               	movf	(_contador+1)^0,w,c
  1268   000080  E106               	bnz	l3681
  1269   000082  0E3B               	movlw	59
  1270   000084  5C2C               	subwf	_contador^0,w,c
  1271   000086  B0D8               	btfsc	status,0,c
  1272   000088  D002               	goto	l3681
  1273   00008A  4A2C               	infsnz	_contador^0,f,c
  1274   00008C  2A2D               	incf	(_contador+1)^0,f,c
  1275   00008E                     l3681:
  1276                           
  1277                           ;Laboratorio_5.c: 130: if(contador%10==0)beep_corto();
  1278   00008E  C02C  F013         	movff	_contador,___lwmod@dividend
  1279   000092  C02D  F014         	movff	_contador+1,___lwmod@dividend+1
  1280   000096  0E00               	movlw	0
  1281   000098  6E16               	movwf	(___lwmod@divisor+1)^0,c
  1282   00009A  0E0A               	movlw	10
  1283   00009C  6E15               	movwf	___lwmod@divisor^0,c
  1284   00009E  EC5A  F009         	call	___lwmod	;wreg free
  1285   0000A2  5013               	movf	?___lwmod^0,w,c
  1286   0000A4  1014               	iorwf	(?___lwmod+1)^0,w,c
  1287   0000A6  B4D8               	btfsc	status,2,c
  1288   0000A8  ECD9  F00A         	call	_beep_corto	;wreg free
  1289                           
  1290                           ;Laboratorio_5.c: 131: if (contador >= objetivo) {
  1291   0000AC  502E               	movf	_objetivo^0,w,c
  1292   0000AE  5C2C               	subwf	_contador^0,w,c
  1293   0000B0  502F               	movf	(_objetivo+1)^0,w,c
  1294   0000B2  582D               	subwfb	(_contador+1)^0,w,c
  1295   0000B4  A0D8               	btfss	status,0,c
  1296   0000B6  D009               	goto	l3693
  1297                           
  1298                           ;Laboratorio_5.c: 132: mostrar_conteo();
  1299   0000B8  ECF0  F003         	call	_mostrar_conteo	;wreg free
  1300                           
  1301                           ;Laboratorio_5.c: 133: estado = 3;
  1302   0000BC  0E00               	movlw	0
  1303   0000BE  6E31               	movwf	(_estado+1)^0,c
  1304   0000C0  0E03               	movlw	3
  1305   0000C2  6E30               	movwf	_estado^0,c
  1306                           
  1307                           ;Laboratorio_5.c: 134: mostrar_completado();
  1308   0000C4  EC4E  F007         	call	_mostrar_completado	;wreg free
  1309                           
  1310                           ;Laboratorio_5.c: 135: } else {
  1311   0000C8  D002               	goto	l3695
  1312   0000CA                     l3693:
  1313                           
  1314                           ;Laboratorio_5.c: 136: mostrar_conteo();
  1315   0000CA  ECF0  F003         	call	_mostrar_conteo	;wreg free
  1316   0000CE                     l3695:
  1317                           
  1318                           ;Laboratorio_5.c: 137: };Laboratorio_5.c: 138: };Laboratorio_5.c: 139: };Laboratorio_5.c
      +                          : 140: btnRC0_ant = btnRC0;
  1319   0000CE  C022  F033         	movff	main@btnRC0,_btnRC0_ant
  1320                           
  1321                           ;Laboratorio_5.c: 142: if (EMOTOR != 0) {
  1322   0000D2  5024               	movf	_EMOTOR^0,w,c
  1323   0000D4  1025               	iorwf	(_EMOTOR+1)^0,w,c
  1324   0000D6  B4D8               	btfsc	status,2,c
  1325   0000D8  D00D               	goto	l3707
  1326                           
  1327                           ;Laboratorio_5.c: 143: if (EMOTOR == 1) {
  1328   0000DA  0424               	decf	_EMOTOR^0,w,c
  1329   0000DC  1025               	iorwf	(_EMOTOR+1)^0,w,c
  1330   0000DE  A4D8               	btfss	status,2,c
  1331   0000E0  D002               	goto	l3703
  1332   0000E2                     u4580:
  1333   0000E2                     l3701:
  1334                           
  1335                           ;Laboratorio_5.c: 144: LATC2 = 1;
  1336   0000E2  848B               	bsf	3979,2,c	;volatile
  1337                           
  1338                           ;Laboratorio_5.c: 145: }
  1339   0000E4  D00E               	goto	l3711
  1340   0000E6                     l3703:
  1341                           
  1342                           ;Laboratorio_5.c: 146: else if (EMOTOR == 2) {
  1343   0000E6  0E02               	movlw	2
  1344   0000E8  1824               	xorwf	_EMOTOR^0,w,c
  1345   0000EA  1025               	iorwf	(_EMOTOR+1)^0,w,c
  1346   0000EC  A4D8               	btfss	status,2,c
  1347   0000EE  D009               	goto	l3711
  1348   0000F0                     u4590:
  1349                           
  1350                           ;Laboratorio_5.c: 147: LATC2 = 0;
  1351   0000F0  948B               	bcf	3979,2,c	;volatile
  1352   0000F2  D007               	goto	l3711
  1353   0000F4                     l3707:
  1354                           
  1355                           ;Laboratorio_5.c: 150: if (VADC >= 127) {
  1356   0000F4  5027               	movf	(_VADC+1)^0,w,c
  1357   0000F6  E1F5               	bnz	l3701
  1358   0000F8  0E7F               	movlw	127
  1359   0000FA  5C26               	subwf	_VADC^0,w,c
  1360   0000FC  B0D8               	btfsc	status,0,c
  1361   0000FE  D7F1               	goto	u4580
  1362   000100  D7F7               	goto	u4590
  1363   000102                     l3711:
  1364                           
  1365                           ;Laboratorio_5.c: 154: };Laboratorio_5.c: 155: };Laboratorio_5.c: 156: if (Tecla != 0) {
  1366   000102  5034               	movf	_Tecla^0,w,c	;volatile
  1367   000104  B4D8               	btfsc	status,2,c
  1368   000106  D7A8               	goto	l3667
  1369                           
  1370                           ;Laboratorio_5.c: 157: inactividad = 0;
  1371   000108  0E00               	movlw	0
  1372   00010A  6E29               	movwf	(_inactividad+1)^0,c
  1373   00010C  0E00               	movlw	0
  1374   00010E  6E28               	movwf	_inactividad^0,c
  1375                           
  1376                           ;Laboratorio_5.c: 158: char tecla = mapa_teclas[Tecla];
  1377   000110  0EC4               	movlw	low _mapa_teclas
  1378   000112  2434               	addwf	_Tecla^0,w,c	;volatile
  1379   000114  6EF6               	movwf	tblptrl,c
  1380   000116  6AF7               	clrf	tblptrh,c
  1381   000118  0E7E               	movlw	high _mapa_teclas
  1382   00011A  22F7               	addwfc	tblptrh,f,c
  1383   00011C                     	if	0	;There are less than 3 active tblptr bytes
  1384   00011C                     	endif
  1385   00011C  0008               	tblrd		*
  1386   00011E  CFF5 F023          	movff	tablat,main@tecla
  1387                           
  1388                           ;Laboratorio_5.c: 159: Tecla = 0;
  1389   000122  6A34               	clrf	_Tecla^0,c	;volatile
  1390                           
  1391                           ;Laboratorio_5.c: 161: if (tecla == 'D') emergencia();
  1392   000124  0E44               	movlw	68
  1393   000126  1823               	xorwf	main@tecla^0,w,c
  1394   000128  B4D8               	btfsc	status,2,c
  1395   00012A  EC7B  F009         	call	_emergencia	;wreg free
  1396                           
  1397                           ;Laboratorio_5.c: 162: if (tecla == 'C') {
  1398   00012E  0E43               	movlw	67
  1399   000130  1823               	xorwf	main@tecla^0,w,c
  1400   000132  A4D8               	btfss	status,2,c
  1401   000134  D0EA               	goto	l3803
  1402                           
  1403                           ;Laboratorio_5.c: 163: lcd_backlight = !lcd_backlight;
  1404   000136  5035               	movf	_lcd_backlight^0,w,c
  1405   000138  A4D8               	btfss	status,2,c
  1406   00013A  D002               	goto	u4640
  1407   00013C  0E01               	movlw	1
  1408   00013E  D001               	goto	u4650
  1409   000140                     u4640:
  1410   000140  0E00               	movlw	0
  1411   000142                     u4650:
  1412   000142  6E35               	movwf	_lcd_backlight^0,c
  1413                           
  1414                           ;Laboratorio_5.c: 164: LATA5 = lcd_backlight;
  1415   000144  A035               	btfss	_lcd_backlight^0,0,c
  1416   000146  D002               	goto	u4660
  1417   000148  8A89               	bsf	3977,5,c	;volatile
  1418   00014A  D0DF               	goto	l3803
  1419   00014C                     u4660:
  1420   00014C  9A89               	bcf	3977,5,c	;volatile
  1421   00014E  D0DD               	goto	l3803
  1422   000150                     l3729:
  1423                           
  1424                           ;Laboratorio_5.c: 169: if (tecla >= '0' && tecla <= '9') {
  1425   000150  0E2F               	movlw	47
  1426   000152  6423               	cpfsgt	main@tecla^0,c
  1427   000154  D044               	goto	l3747
  1428   000156  0E3A               	movlw	58
  1429   000158  6023               	cpfslt	main@tecla^0,c
  1430   00015A  D041               	goto	l3747
  1431                           
  1432                           ;Laboratorio_5.c: 170: input = input * 10 + (tecla - '0');
  1433   00015C  0E0A               	movlw	10
  1434   00015E  022A               	mulwf	_input^0,c
  1435   000160  CFF3 F020          	movff	prodl,??_main
  1436   000164  CFF4 F021          	movff	prodh,??_main+1
  1437   000168  022B               	mulwf	(_input+1)^0,c
  1438   00016A  50F3               	movf	prodl,w,c
  1439   00016C  2621               	addwf	(??_main+1)^0,f,c
  1440   00016E  5023               	movf	main@tecla^0,w,c
  1441   000170  2620               	addwf	??_main^0,f,c
  1442   000172  0E00               	movlw	0
  1443   000174  2221               	addwfc	(??_main+1)^0,f,c
  1444   000176  0ED0               	movlw	208
  1445   000178  2420               	addwf	??_main^0,w,c
  1446   00017A  6E2A               	movwf	_input^0,c
  1447   00017C  0EFF               	movlw	255
  1448   00017E  2021               	addwfc	(??_main+1)^0,w,c
  1449   000180  6E2B               	movwf	(_input+1)^0,c
  1450                           
  1451                           ;Laboratorio_5.c: 171: if (input > 99) input = 0;
  1452   000182  502B               	movf	(_input+1)^0,w,c
  1453   000184  E104               	bnz	u4700
  1454   000186  0E64               	movlw	100
  1455   000188  5C2A               	subwf	_input^0,w,c
  1456   00018A  A0D8               	btfss	status,0,c
  1457   00018C  D004               	goto	l3739
  1458   00018E                     u4700:
  1459   00018E  0E00               	movlw	0
  1460   000190  6E2B               	movwf	(_input+1)^0,c
  1461   000192  0E00               	movlw	0
  1462   000194  6E2A               	movwf	_input^0,c
  1463   000196                     l3739:
  1464                           
  1465                           ;Laboratorio_5.c: 172: mostrar_valor();
  1466   000196  ECB2  F00A         	call	_mostrar_valor	;wreg free
  1467                           
  1468                           ;Laboratorio_5.c: 173: Lcd_Set_Cursor(2, 7);
  1469   00019A  0E07               	movlw	7
  1470   00019C  6E16               	movwf	Lcd_Set_Cursor@column^0,c
  1471   00019E  0E02               	movlw	2
  1472   0001A0  EC7E  F00A         	call	_Lcd_Set_Cursor
  1473                           
  1474                           ;Laboratorio_5.c: 174: Lcd_Char((input / 10) + '0');
  1475   0001A4  C02A  F013         	movff	_input,___lwdiv@dividend
  1476   0001A8  C02B  F014         	movff	_input+1,___lwdiv@dividend+1
  1477   0001AC  0E00               	movlw	0
  1478   0001AE  6E16               	movwf	(___lwdiv@divisor+1)^0,c
  1479   0001B0  0E0A               	movlw	10
  1480   0001B2  6E15               	movwf	___lwdiv@divisor^0,c
  1481   0001B4  ECBB  F008         	call	___lwdiv	;wreg free
  1482   0001B8  5013               	movf	?___lwdiv^0,w,c
  1483   0001BA  0F30               	addlw	48
  1484   0001BC  ECEA  F004         	call	_Lcd_Char
  1485                           
  1486                           ;Laboratorio_5.c: 175: Lcd_Char((input % 10) + '0');
  1487   0001C0  C02A  F013         	movff	_input,___lwmod@dividend
  1488   0001C4  C02B  F014         	movff	_input+1,___lwmod@dividend+1
  1489   0001C8  0E00               	movlw	0
  1490   0001CA  6E16               	movwf	(___lwmod@divisor+1)^0,c
  1491   0001CC  0E0A               	movlw	10
  1492   0001CE  6E15               	movwf	___lwmod@divisor^0,c
  1493   0001D0  EC5A  F009         	call	___lwmod	;wreg free
  1494   0001D4  5013               	movf	?___lwmod^0,w,c
  1495   0001D6  0F30               	addlw	48
  1496   0001D8  ECEA  F004         	call	_Lcd_Char
  1497                           
  1498                           ;Laboratorio_5.c: 176: } else if (tecla == '*') {
  1499   0001DC  D0A8               	goto	l3805
  1500   0001DE                     l3747:
  1501   0001DE  0E2A               	movlw	42
  1502   0001E0  1823               	xorwf	main@tecla^0,w,c
  1503   0001E2  A4D8               	btfss	status,2,c
  1504   0001E4  D032               	goto	l3759
  1505                           
  1506                           ;Laboratorio_5.c: 177: input = input / 10;
  1507   0001E6  C02A  F013         	movff	_input,___lwdiv@dividend
  1508   0001EA  C02B  F014         	movff	_input+1,___lwdiv@dividend+1
  1509   0001EE  0E00               	movlw	0
  1510   0001F0  6E16               	movwf	(___lwdiv@divisor+1)^0,c
  1511   0001F2  0E0A               	movlw	10
  1512   0001F4  6E15               	movwf	___lwdiv@divisor^0,c
  1513   0001F6  ECBB  F008         	call	___lwdiv	;wreg free
  1514   0001FA  C013  F02A         	movff	?___lwdiv,_input
  1515   0001FE  C014  F02B         	movff	?___lwdiv+1,_input+1
  1516                           
  1517                           ;Laboratorio_5.c: 178: mostrar_valor();
  1518   000202  ECB2  F00A         	call	_mostrar_valor	;wreg free
  1519                           
  1520                           ;Laboratorio_5.c: 179: Lcd_Set_Cursor(2, 7);
  1521   000206  0E07               	movlw	7
  1522   000208  6E16               	movwf	Lcd_Set_Cursor@column^0,c
  1523   00020A  0E02               	movlw	2
  1524   00020C  EC7E  F00A         	call	_Lcd_Set_Cursor
  1525                           
  1526                           ;Laboratorio_5.c: 180: Lcd_Char((input / 10) + '0');
  1527   000210  C02A  F013         	movff	_input,___lwdiv@dividend
  1528   000214  C02B  F014         	movff	_input+1,___lwdiv@dividend+1
  1529   000218  0E00               	movlw	0
  1530   00021A  6E16               	movwf	(___lwdiv@divisor+1)^0,c
  1531   00021C  0E0A               	movlw	10
  1532   00021E  6E15               	movwf	___lwdiv@divisor^0,c
  1533   000220  ECBB  F008         	call	___lwdiv	;wreg free
  1534   000224  5013               	movf	?___lwdiv^0,w,c
  1535   000226  0F30               	addlw	48
  1536   000228  ECEA  F004         	call	_Lcd_Char
  1537                           
  1538                           ;Laboratorio_5.c: 181: Lcd_Char((input % 10) + '0');
  1539   00022C  C02A  F013         	movff	_input,___lwmod@dividend
  1540   000230  C02B  F014         	movff	_input+1,___lwmod@dividend+1
  1541   000234  0E00               	movlw	0
  1542   000236  6E16               	movwf	(___lwmod@divisor+1)^0,c
  1543   000238  0E0A               	movlw	10
  1544   00023A  6E15               	movwf	___lwmod@divisor^0,c
  1545   00023C  EC5A  F009         	call	___lwmod	;wreg free
  1546   000240  5013               	movf	?___lwmod^0,w,c
  1547   000242  0F30               	addlw	48
  1548   000244  ECEA  F004         	call	_Lcd_Char
  1549                           
  1550                           ;Laboratorio_5.c: 182: } else if (tecla == '#') {
  1551   000248  D072               	goto	l3805
  1552   00024A                     l3759:
  1553   00024A  0E23               	movlw	35
  1554   00024C  1823               	xorwf	main@tecla^0,w,c
  1555   00024E  A4D8               	btfss	status,2,c
  1556   000250  D06E               	goto	l3805
  1557                           
  1558                           ;Laboratorio_5.c: 183: if (input >= 1 && input <= 59) {
  1559   000252  502A               	movf	_input^0,w,c
  1560   000254  102B               	iorwf	(_input+1)^0,w,c
  1561   000256  B4D8               	btfsc	status,2,c
  1562   000258  D019               	goto	l3771
  1563   00025A  502B               	movf	(_input+1)^0,w,c
  1564   00025C  E117               	bnz	l3771
  1565   00025E  0E3C               	movlw	60
  1566   000260  5C2A               	subwf	_input^0,w,c
  1567   000262  B0D8               	btfsc	status,0,c
  1568   000264  D013               	goto	l3771
  1569                           
  1570                           ;Laboratorio_5.c: 184: objetivo = input;
  1571   000266  C02A  F02E         	movff	_input,_objetivo
  1572   00026A  C02B  F02F         	movff	_input+1,_objetivo+1
  1573                           
  1574                           ;Laboratorio_5.c: 185: contador = 0;
  1575   00026E  0E00               	movlw	0
  1576   000270  6E2D               	movwf	(_contador+1)^0,c
  1577   000272  0E00               	movlw	0
  1578   000274  6E2C               	movwf	_contador^0,c
  1579                           
  1580                           ;Laboratorio_5.c: 186: input = 0;
  1581   000276  0E00               	movlw	0
  1582   000278  6E2B               	movwf	(_input+1)^0,c
  1583   00027A  0E00               	movlw	0
  1584   00027C  6E2A               	movwf	_input^0,c
  1585                           
  1586                           ;Laboratorio_5.c: 187: estado = 2;
  1587   00027E  0E00               	movlw	0
  1588   000280  6E31               	movwf	(_estado+1)^0,c
  1589   000282  0E02               	movlw	2
  1590   000284  6E30               	movwf	_estado^0,c
  1591   000286                     l3769:
  1592                           
  1593                           ;Laboratorio_5.c: 188: mostrar_conteo();
  1594   000286  ECF0  F003         	call	_mostrar_conteo	;wreg free
  1595                           
  1596                           ;Laboratorio_5.c: 189: } else {
  1597   00028A  D051               	goto	l3805
  1598   00028C                     l3771:
  1599                           
  1600                           ;Laboratorio_5.c: 190: Lcd_Clear();
  1601   00028C  ECF6  F00A         	call	_Lcd_Clear	;wreg free
  1602                           
  1603                           ;Laboratorio_5.c: 191: Lcd_Set_Cursor(1, 1);
  1604   000290  0E01               	movlw	1
  1605   000292  6E16               	movwf	Lcd_Set_Cursor@column^0,c
  1606   000294  0E01               	movlw	1
  1607   000296  EC7E  F00A         	call	_Lcd_Set_Cursor
  1608                           
  1609                           ;Laboratorio_5.c: 192: Lcd_String("Rango invalido");
  1610   00029A  0EC2               	movlw	low STR_1
  1611   00029C  6E16               	movwf	Lcd_String@str^0,c
  1612   00029E  0E7F               	movlw	high STR_1
  1613   0002A0  6E17               	movwf	(Lcd_String@str+1)^0,c
  1614   0002A2  EC2B  F00A         	call	_Lcd_String	;wreg free
  1615                           
  1616                           ;Laboratorio_5.c: 193: _delay((unsigned long)((1500)*(1000000/4000.0)));
  1617   0002A6  0E02               	movlw	2
  1618   0002A8  6E21               	movwf	(??_main+1)^0,c
  1619   0002AA  0EE7               	movlw	231
  1620   0002AC  6E20               	movwf	??_main^0,c
  1621   0002AE  0E00               	movlw	0
  1622   0002B0                     u4797:
  1623   0002B0  2EE8               	decfsz	wreg,f,c
  1624   0002B2  D7FE               	bra	u4797
  1625   0002B4  2E20               	decfsz	??_main^0,f,c
  1626   0002B6  D7FC               	bra	u4797
  1627   0002B8  2E21               	decfsz	(??_main+1)^0,f,c
  1628   0002BA  D7FA               	bra	u4797
  1629   0002BC  D000               	nop2	
  1630   0002BE                     l3777:
  1631                           
  1632                           ;Laboratorio_5.c: 194: input = 0;
  1633   0002BE  0E00               	movlw	0
  1634   0002C0  6E2B               	movwf	(_input+1)^0,c
  1635   0002C2  0E00               	movlw	0
  1636   0002C4  6E2A               	movwf	_input^0,c
  1637                           
  1638                           ;Laboratorio_5.c: 195: mostrar_valor();
  1639   0002C6  ECB2  F00A         	call	_mostrar_valor	;wreg free
  1640   0002CA  D031               	goto	l3805
  1641   0002CC                     l3781:
  1642                           
  1643                           ;Laboratorio_5.c: 201: if (tecla == 'B') {
  1644   0002CC  0E42               	movlw	66
  1645   0002CE  1823               	xorwf	main@tecla^0,w,c
  1646   0002D0  A4D8               	btfss	status,2,c
  1647   0002D2  D007               	goto	l3787
  1648                           
  1649                           ;Laboratorio_5.c: 202: estado = 3;
  1650   0002D4  0E00               	movlw	0
  1651   0002D6  6E31               	movwf	(_estado+1)^0,c
  1652   0002D8  0E03               	movlw	3
  1653   0002DA  6E30               	movwf	_estado^0,c
  1654                           
  1655                           ;Laboratorio_5.c: 203: mostrar_completado();
  1656   0002DC  EC4E  F007         	call	_mostrar_completado	;wreg free
  1657                           
  1658                           ;Laboratorio_5.c: 204: } else if (tecla == 'A') {
  1659   0002E0  D026               	goto	l3805
  1660   0002E2                     l3787:
  1661   0002E2  0E41               	movlw	65
  1662   0002E4  1823               	xorwf	main@tecla^0,w,c
  1663   0002E6  A4D8               	btfss	status,2,c
  1664   0002E8  D022               	goto	l3805
  1665                           
  1666                           ;Laboratorio_5.c: 205: contador = 0;
  1667   0002EA  0E00               	movlw	0
  1668   0002EC  6E2D               	movwf	(_contador+1)^0,c
  1669   0002EE  0E00               	movlw	0
  1670   0002F0  6E2C               	movwf	_contador^0,c
  1671   0002F2  D7C9               	goto	l3769
  1672   0002F4                     l3793:
  1673                           
  1674                           ;Laboratorio_5.c: 211: beep_largo();
  1675   0002F4  ECCE  F00A         	call	_beep_largo	;wreg free
  1676                           
  1677                           ;Laboratorio_5.c: 212: if (tecla == '#') {
  1678   0002F8  0E23               	movlw	35
  1679   0002FA  1823               	xorwf	main@tecla^0,w,c
  1680   0002FC  A4D8               	btfss	status,2,c
  1681   0002FE  D017               	goto	l3805
  1682                           
  1683                           ;Laboratorio_5.c: 213: estado = 1;
  1684   000300  0E00               	movlw	0
  1685   000302  6E31               	movwf	(_estado+1)^0,c
  1686   000304  0E01               	movlw	1
  1687   000306  6E30               	movwf	_estado^0,c
  1688   000308  D7DA               	goto	l3777
  1689   00030A                     l3803:
  1690   00030A  C030  F020         	movff	_estado,??_main
  1691   00030E  C031  F021         	movff	_estado+1,??_main+1
  1692                           
  1693                           ; Switch on 2 bytes has been partitioned into a top level switch of size 1, and 1 sub-sw
      +                          itches
  1694                           ; Switch size 1, requested type "simple"
  1695                           ; Number of cases is 1, Range of values is 0 to 0
  1696                           ; switch strategies available:
  1697                           ; Name         Instructions Cycles
  1698                           ; simple_byte            4     3 (average)
  1699                           ;	Chosen strategy is simple_byte
  1700   000312  5021               	movf	(??_main+1)^0,w,c
  1701   000314  0A00               	xorlw	0	; case 0
  1702   000316  A4D8               	btfss	status,2,c
  1703   000318  D00A               	goto	l3805
  1704                           
  1705                           ; Switch size 1, requested type "simple"
  1706                           ; Number of cases is 3, Range of values is 1 to 3
  1707                           ; switch strategies available:
  1708                           ; Name         Instructions Cycles
  1709                           ; simple_byte           10     6 (average)
  1710                           ;	Chosen strategy is simple_byte
  1711   00031A  5020               	movf	??_main^0,w,c
  1712   00031C  0A01               	xorlw	1	; case 1
  1713   00031E  B4D8               	btfsc	status,2,c
  1714   000320  D717               	goto	l3729
  1715   000322  0A03               	xorlw	3	; case 2
  1716   000324  B4D8               	btfsc	status,2,c
  1717   000326  D7D2               	goto	l3781
  1718   000328  0A01               	xorlw	1	; case 3
  1719   00032A  B4D8               	btfsc	status,2,c
  1720   00032C  D7E3               	goto	l3793
  1721   00032E                     l3805:
  1722                           
  1723                           ;Laboratorio_5.c: 219: _delay((unsigned long)((200)*(1000000/4000.0)));
  1724   00032E  0E41               	movlw	65
  1725   000330  6E20               	movwf	??_main^0,c
  1726   000332  0EEE               	movlw	238
  1727   000334                     u4807:
  1728   000334  2EE8               	decfsz	wreg,f,c
  1729   000336  D7FE               	bra	u4807
  1730   000338  2E20               	decfsz	??_main^0,f,c
  1731   00033A  D7FC               	bra	u4807
  1732   00033C  D000               	nop2	
  1733   00033E  D68C               	goto	l3667
  1734   000340                     __end_of_main:
  1735                           	callstack 0
  1736                           
  1737 ;; *************** function _mostrar_valor *****************
  1738 ;; Defined at:
  1739 ;;		line 423 in file "Laboratorio_5.c"
  1740 ;; Parameters:    Size  Location     Type
  1741 ;;		None
  1742 ;; Auto vars:     Size  Location     Type
  1743 ;;		None
  1744 ;; Return value:  Size  Location     Type
  1745 ;;                  1    wreg      void 
  1746 ;; Registers used:
  1747 ;;		wreg, status,2, status,0, tblptrl, tblptrh, tblptru, cstack
  1748 ;; Tracked objects:
  1749 ;;		On entry : 0/0
  1750 ;;		On exit  : 0/0
  1751 ;;		Unchanged: 0/0
  1752 ;; Data sizes:     COMRAM   BANK0   BANK1   BANK2   BANK3   BANK4   BANK5   BANK6   BANK7
  1753 ;;      Params:         0       0       0       0       0       0       0       0       0
  1754 ;;      Locals:         0       0       0       0       0       0       0       0       0
  1755 ;;      Temps:          0       0       0       0       0       0       0       0       0
  1756 ;;      Totals:         0       0       0       0       0       0       0       0       0
  1757 ;;Total ram usage:        0 bytes
  1758 ;; Hardware stack levels used: 1
  1759 ;; Hardware stack levels required when called: 6
  1760 ;; This function calls:
  1761 ;;		_Lcd_Clear
  1762 ;;		_Lcd_Set_Cursor
  1763 ;;		_Lcd_String
  1764 ;; This function is called by:
  1765 ;;		_main
  1766 ;; This function uses a non-reentrant model
  1767 ;;
  1768                           
  1769                           	psect	text1
  1770   001564                     __ptext1:
  1771                           	callstack 0
  1772   001564                     _mostrar_valor:
  1773                           	callstack 24
  1774                           
  1775                           ;Laboratorio_5.c: 424: Lcd_Clear();
  1776                           
  1777                           ;incstack = 0
  1778   001564  ECF6  F00A         	call	_Lcd_Clear	;wreg free
  1779                           
  1780                           ;Laboratorio_5.c: 425: Lcd_Set_Cursor(1, 1);
  1781   001568  0E01               	movlw	1
  1782   00156A  6E16               	movwf	Lcd_Set_Cursor@column^0,c
  1783   00156C  0E01               	movlw	1
  1784   00156E  EC7E  F00A         	call	_Lcd_Set_Cursor
  1785                           
  1786                           ;Laboratorio_5.c: 426: Lcd_String("Ingrese valor:");
  1787   001572  0EB3               	movlw	low STR_9
  1788   001574  6E16               	movwf	Lcd_String@str^0,c
  1789   001576  0E7F               	movlw	high STR_9
  1790   001578  6E17               	movwf	(Lcd_String@str+1)^0,c
  1791   00157A  EC2B  F00A         	call	_Lcd_String	;wreg free
  1792   00157E  0012               	return		;funcret
  1793   001580                     __end_of_mostrar_valor:
  1794                           	callstack 0
  1795                           
  1796 ;; *************** function _mostrar_conteo *****************
  1797 ;; Defined at:
  1798 ;;		line 389 in file "Laboratorio_5.c"
  1799 ;; Parameters:    Size  Location     Type
  1800 ;;		None
  1801 ;; Auto vars:     Size  Location     Type
  1802 ;;  faltan          2   29[COMRAM] int 
  1803 ;; Return value:  Size  Location     Type
  1804 ;;                  1    wreg      void 
  1805 ;; Registers used:
  1806 ;;		wreg, status,2, status,0, tblptrl, tblptrh, tblptru, cstack
  1807 ;; Tracked objects:
  1808 ;;		On entry : 0/0
  1809 ;;		On exit  : 0/0
  1810 ;;		Unchanged: 0/0
  1811 ;; Data sizes:     COMRAM   BANK0   BANK1   BANK2   BANK3   BANK4   BANK5   BANK6   BANK7
  1812 ;;      Params:         0       0       0       0       0       0       0       0       0
  1813 ;;      Locals:         2       0       0       0       0       0       0       0       0
  1814 ;;      Temps:          0       0       0       0       0       0       0       0       0
  1815 ;;      Totals:         2       0       0       0       0       0       0       0       0
  1816 ;;Total ram usage:        2 bytes
  1817 ;; Hardware stack levels used: 1
  1818 ;; Hardware stack levels required when called: 6
  1819 ;; This function calls:
  1820 ;;		_Lcd_Char
  1821 ;;		_Lcd_Clear
  1822 ;;		_Lcd_Set_Cursor
  1823 ;;		_Lcd_String
  1824 ;;		___awdiv
  1825 ;;		___awmod
  1826 ;;		___lwdiv
  1827 ;;		___lwmod
  1828 ;;		_color
  1829 ;;		_unidad
  1830 ;; This function is called by:
  1831 ;;		_main
  1832 ;; This function uses a non-reentrant model
  1833 ;;
  1834                           
  1835                           	psect	text2
  1836   0007E0                     __ptext2:
  1837                           	callstack 0
  1838   0007E0                     _mostrar_conteo:
  1839                           	callstack 24
  1840                           
  1841                           ;Laboratorio_5.c: 390: Lcd_Clear();
  1842                           
  1843                           ;incstack = 0
  1844   0007E0  ECF6  F00A         	call	_Lcd_Clear	;wreg free
  1845                           
  1846                           ;Laboratorio_5.c: 391: Lcd_Set_Cursor(1, 1);
  1847   0007E4  0E01               	movlw	1
  1848   0007E6  6E16               	movwf	Lcd_Set_Cursor@column^0,c
  1849   0007E8  0E01               	movlw	1
  1850   0007EA  EC7E  F00A         	call	_Lcd_Set_Cursor
  1851                           
  1852                           ;Laboratorio_5.c: 392: Lcd_String("Objetivo:");
  1853   0007EE  0EF5               	movlw	low STR_7
  1854   0007F0  6E16               	movwf	Lcd_String@str^0,c
  1855   0007F2  0E7F               	movlw	high STR_7
  1856   0007F4  6E17               	movwf	(Lcd_String@str+1)^0,c
  1857   0007F6  EC2B  F00A         	call	_Lcd_String	;wreg free
  1858                           
  1859                           ;Laboratorio_5.c: 393: Lcd_Char((objetivo / 10) + '0');
  1860   0007FA  C02E  F013         	movff	_objetivo,___lwdiv@dividend
  1861   0007FE  C02F  F014         	movff	_objetivo+1,___lwdiv@dividend+1
  1862   000802  0E00               	movlw	0
  1863   000804  6E16               	movwf	(___lwdiv@divisor+1)^0,c
  1864   000806  0E0A               	movlw	10
  1865   000808  6E15               	movwf	___lwdiv@divisor^0,c
  1866   00080A  ECBB  F008         	call	___lwdiv	;wreg free
  1867   00080E  5013               	movf	?___lwdiv^0,w,c
  1868   000810  0F30               	addlw	48
  1869   000812  ECEA  F004         	call	_Lcd_Char
  1870                           
  1871                           ;Laboratorio_5.c: 394: Lcd_Char((objetivo % 10) + '0');
  1872   000816  C02E  F013         	movff	_objetivo,___lwmod@dividend
  1873   00081A  C02F  F014         	movff	_objetivo+1,___lwmod@dividend+1
  1874   00081E  0E00               	movlw	0
  1875   000820  6E16               	movwf	(___lwmod@divisor+1)^0,c
  1876   000822  0E0A               	movlw	10
  1877   000824  6E15               	movwf	___lwmod@divisor^0,c
  1878   000826  EC5A  F009         	call	___lwmod	;wreg free
  1879   00082A  5013               	movf	?___lwmod^0,w,c
  1880   00082C  0F30               	addlw	48
  1881   00082E  ECEA  F004         	call	_Lcd_Char
  1882                           
  1883                           ;Laboratorio_5.c: 396: Lcd_Set_Cursor(2, 1);
  1884   000832  0E01               	movlw	1
  1885   000834  6E16               	movwf	Lcd_Set_Cursor@column^0,c
  1886   000836  0E02               	movlw	2
  1887   000838  EC7E  F00A         	call	_Lcd_Set_Cursor
  1888                           
  1889                           ;Laboratorio_5.c: 397: Lcd_String("Faltantes:");
  1890   00083C  0EEA               	movlw	low STR_8
  1891   00083E  6E16               	movwf	Lcd_String@str^0,c
  1892   000840  0E7F               	movlw	high STR_8
  1893   000842  6E17               	movwf	(Lcd_String@str+1)^0,c
  1894   000844  EC2B  F00A         	call	_Lcd_String	;wreg free
  1895                           
  1896                           ;Laboratorio_5.c: 398: int faltan = objetivo - contador;
  1897   000848  502C               	movf	_contador^0,w,c
  1898   00084A  5C2E               	subwf	_objetivo^0,w,c
  1899   00084C  6E1E               	movwf	mostrar_conteo@faltan^0,c
  1900   00084E  502D               	movf	(_contador+1)^0,w,c
  1901   000850  582F               	subwfb	(_objetivo+1)^0,w,c
  1902   000852  6E1F               	movwf	(mostrar_conteo@faltan+1)^0,c
  1903                           
  1904                           ;Laboratorio_5.c: 399: if (faltan < 0) faltan = 0;
  1905   000854  AE1F               	btfss	(mostrar_conteo@faltan+1)^0,7,c
  1906   000856  D004               	goto	l3615
  1907   000858  0E00               	movlw	0
  1908   00085A  6E1F               	movwf	(mostrar_conteo@faltan+1)^0,c
  1909   00085C  0E00               	movlw	0
  1910   00085E  6E1E               	movwf	mostrar_conteo@faltan^0,c
  1911   000860                     l3615:
  1912                           
  1913                           ;Laboratorio_5.c: 400: Lcd_Char((faltan / 10) + '0');
  1914   000860  C01E  F013         	movff	mostrar_conteo@faltan,___awdiv@dividend
  1915   000864  C01F  F014         	movff	mostrar_conteo@faltan+1,___awdiv@dividend+1
  1916   000868  0E00               	movlw	0
  1917   00086A  6E16               	movwf	(___awdiv@divisor+1)^0,c
  1918   00086C  0E0A               	movlw	10
  1919   00086E  6E15               	movwf	___awdiv@divisor^0,c
  1920   000870  EC8E  F006         	call	___awdiv	;wreg free
  1921   000874  5013               	movf	?___awdiv^0,w,c
  1922   000876  0F30               	addlw	48
  1923   000878  ECEA  F004         	call	_Lcd_Char
  1924                           
  1925                           ;Laboratorio_5.c: 401: Lcd_Char((faltan % 10) + '0');
  1926   00087C  C01E  F013         	movff	mostrar_conteo@faltan,___awmod@dividend
  1927   000880  C01F  F014         	movff	mostrar_conteo@faltan+1,___awmod@dividend+1
  1928   000884  0E00               	movlw	0
  1929   000886  6E16               	movwf	(___awmod@divisor+1)^0,c
  1930   000888  0E0A               	movlw	10
  1931   00088A  6E15               	movwf	___awmod@divisor^0,c
  1932   00088C  ECC0  F007         	call	___awmod	;wreg free
  1933   000890  5013               	movf	?___awmod^0,w,c
  1934   000892  0F30               	addlw	48
  1935   000894  ECEA  F004         	call	_Lcd_Char
  1936                           
  1937                           ;Laboratorio_5.c: 403: unidad(contador % 10);
  1938   000898  C02C  F013         	movff	_contador,___lwmod@dividend
  1939   00089C  C02D  F014         	movff	_contador+1,___lwmod@dividend+1
  1940   0008A0  0E00               	movlw	0
  1941   0008A2  6E16               	movwf	(___lwmod@divisor+1)^0,c
  1942   0008A4  0E0A               	movlw	10
  1943   0008A6  6E15               	movwf	___lwmod@divisor^0,c
  1944   0008A8  EC5A  F009         	call	___lwmod	;wreg free
  1945   0008AC  C013  F018         	movff	?___lwmod,unidad@i
  1946   0008B0  C014  F019         	movff	?___lwmod+1,unidad@i+1
  1947   0008B4  ECE4  F00A         	call	_unidad	;wreg free
  1948                           
  1949                           ;Laboratorio_5.c: 404: color(contador / 10);
  1950   0008B8  C02C  F013         	movff	_contador,___lwdiv@dividend
  1951   0008BC  C02D  F014         	movff	_contador+1,___lwdiv@dividend+1
  1952   0008C0  0E00               	movlw	0
  1953   0008C2  6E16               	movwf	(___lwdiv@divisor+1)^0,c
  1954   0008C4  0E0A               	movlw	10
  1955   0008C6  6E15               	movwf	___lwdiv@divisor^0,c
  1956   0008C8  ECBB  F008         	call	___lwdiv	;wreg free
  1957   0008CC  C013  F01A         	movff	?___lwdiv,color@i
  1958   0008D0  C014  F01B         	movff	?___lwdiv+1,color@i+1
  1959   0008D4  EC2E  F008         	call	_color	;wreg free
  1960   0008D8  0012               	return		;funcret
  1961   0008DA                     __end_of_mostrar_conteo:
  1962                           	callstack 0
  1963                           
  1964 ;; *************** function ___awdiv *****************
  1965 ;; Defined at:
  1966 ;;		line 7 in file "C:\Program Files\Microchip\xc8\v2.50\pic\sources\c90\common\awdiv.c"
  1967 ;; Parameters:    Size  Location     Type
  1968 ;;  dividend        2   18[COMRAM] int 
  1969 ;;  divisor         2   20[COMRAM] int 
  1970 ;; Auto vars:     Size  Location     Type
  1971 ;;  quotient        2   24[COMRAM] int 
  1972 ;;  sign            1   23[COMRAM] unsigned char 
  1973 ;;  counter         1   22[COMRAM] unsigned char 
  1974 ;; Return value:  Size  Location     Type
  1975 ;;                  2   18[COMRAM] int 
  1976 ;; Registers used:
  1977 ;;		wreg, status,2, status,0
  1978 ;; Tracked objects:
  1979 ;;		On entry : 0/0
  1980 ;;		On exit  : 0/0
  1981 ;;		Unchanged: 0/0
  1982 ;; Data sizes:     COMRAM   BANK0   BANK1   BANK2   BANK3   BANK4   BANK5   BANK6   BANK7
  1983 ;;      Params:         4       0       0       0       0       0       0       0       0
  1984 ;;      Locals:         4       0       0       0       0       0       0       0       0
  1985 ;;      Temps:          0       0       0       0       0       0       0       0       0
  1986 ;;      Totals:         8       0       0       0       0       0       0       0       0
  1987 ;;Total ram usage:        8 bytes
  1988 ;; Hardware stack levels used: 1
  1989 ;; Hardware stack levels required when called: 4
  1990 ;; This function calls:
  1991 ;;		Nothing
  1992 ;; This function is called by:
  1993 ;;		_mostrar_conteo
  1994 ;; This function uses a non-reentrant model
  1995 ;;
  1996                           
  1997                           	psect	text3
  1998   000D1C                     __ptext3:
  1999                           	callstack 0
  2000   000D1C                     ___awdiv:
  2001                           	callstack 25
  2002                           
  2003                           ;incstack = 0
  2004   000D1C  6A18               	clrf	___awdiv@sign^0,c
  2005   000D1E  AE16               	btfss	(___awdiv@divisor+1)^0,7,c
  2006   000D20  D006               	goto	l2449
  2007   000D22  6C15               	negf	___awdiv@divisor^0,c
  2008   000D24  1E16               	comf	(___awdiv@divisor+1)^0,f,c
  2009   000D26  B0D8               	btfsc	status,0,c
  2010   000D28  2A16               	incf	(___awdiv@divisor+1)^0,f,c
  2011   000D2A  0E01               	movlw	1
  2012   000D2C  6E18               	movwf	___awdiv@sign^0,c
  2013   000D2E                     l2449:
  2014   000D2E  AE14               	btfss	(___awdiv@dividend+1)^0,7,c
  2015   000D30  D006               	goto	l2455
  2016   000D32  6C13               	negf	___awdiv@dividend^0,c
  2017   000D34  1E14               	comf	(___awdiv@dividend+1)^0,f,c
  2018   000D36  B0D8               	btfsc	status,0,c
  2019   000D38  2A14               	incf	(___awdiv@dividend+1)^0,f,c
  2020   000D3A  0E01               	movlw	1
  2021   000D3C  1A18               	xorwf	___awdiv@sign^0,f,c
  2022   000D3E                     l2455:
  2023   000D3E  0E00               	movlw	0
  2024   000D40  6E1A               	movwf	(___awdiv@quotient+1)^0,c
  2025   000D42  0E00               	movlw	0
  2026   000D44  6E19               	movwf	___awdiv@quotient^0,c
  2027   000D46  5015               	movf	___awdiv@divisor^0,w,c
  2028   000D48  1016               	iorwf	(___awdiv@divisor+1)^0,w,c
  2029   000D4A  B4D8               	btfsc	status,2,c
  2030   000D4C  D01C               	goto	l2477
  2031   000D4E  0E01               	movlw	1
  2032   000D50  6E17               	movwf	___awdiv@counter^0,c
  2033   000D52  D004               	goto	l2463
  2034   000D54                     l2461:
  2035   000D54  90D8               	bcf	status,0,c
  2036   000D56  3615               	rlcf	___awdiv@divisor^0,f,c
  2037   000D58  3616               	rlcf	(___awdiv@divisor+1)^0,f,c
  2038   000D5A  2A17               	incf	___awdiv@counter^0,f,c
  2039   000D5C                     l2463:
  2040   000D5C  AE16               	btfss	(___awdiv@divisor+1)^0,7,c
  2041   000D5E  D7FA               	goto	l2461
  2042   000D60                     u2820:
  2043   000D60  90D8               	bcf	status,0,c
  2044   000D62  3619               	rlcf	___awdiv@quotient^0,f,c
  2045   000D64  361A               	rlcf	(___awdiv@quotient+1)^0,f,c
  2046   000D66  5015               	movf	___awdiv@divisor^0,w,c
  2047   000D68  5C13               	subwf	___awdiv@dividend^0,w,c
  2048   000D6A  5016               	movf	(___awdiv@divisor+1)^0,w,c
  2049   000D6C  5814               	subwfb	(___awdiv@dividend+1)^0,w,c
  2050   000D6E  A0D8               	btfss	status,0,c
  2051   000D70  D005               	goto	l2473
  2052   000D72  5015               	movf	___awdiv@divisor^0,w,c
  2053   000D74  5E13               	subwf	___awdiv@dividend^0,f,c
  2054   000D76  5016               	movf	(___awdiv@divisor+1)^0,w,c
  2055   000D78  5A14               	subwfb	(___awdiv@dividend+1)^0,f,c
  2056   000D7A  8019               	bsf	___awdiv@quotient^0,0,c
  2057   000D7C                     l2473:
  2058   000D7C  90D8               	bcf	status,0,c
  2059   000D7E  3216               	rrcf	(___awdiv@divisor+1)^0,f,c
  2060   000D80  3215               	rrcf	___awdiv@divisor^0,f,c
  2061   000D82  2E17               	decfsz	___awdiv@counter^0,f,c
  2062   000D84  D7ED               	goto	u2820
  2063   000D86                     l2477:
  2064   000D86  5018               	movf	___awdiv@sign^0,w,c
  2065   000D88  B4D8               	btfsc	status,2,c
  2066   000D8A  D004               	goto	l2481
  2067   000D8C  6C19               	negf	___awdiv@quotient^0,c
  2068   000D8E  1E1A               	comf	(___awdiv@quotient+1)^0,f,c
  2069   000D90  B0D8               	btfsc	status,0,c
  2070   000D92  2A1A               	incf	(___awdiv@quotient+1)^0,f,c
  2071   000D94                     l2481:
  2072   000D94  C019  F013         	movff	___awdiv@quotient,?___awdiv
  2073   000D98  C01A  F014         	movff	___awdiv@quotient+1,?___awdiv+1
  2074   000D9C  0012               	return		;funcret
  2075   000D9E                     __end_of___awdiv:
  2076                           	callstack 0
  2077                           
  2078 ;; *************** function _mostrar_completado *****************
  2079 ;; Defined at:
  2080 ;;		line 429 in file "Laboratorio_5.c"
  2081 ;; Parameters:    Size  Location     Type
  2082 ;;		None
  2083 ;; Auto vars:     Size  Location     Type
  2084 ;;		None
  2085 ;; Return value:  Size  Location     Type
  2086 ;;                  1    wreg      void 
  2087 ;; Registers used:
  2088 ;;		wreg, status,2, status,0, tblptrl, tblptrh, tblptru, cstack
  2089 ;; Tracked objects:
  2090 ;;		On entry : 0/0
  2091 ;;		On exit  : 0/0
  2092 ;;		Unchanged: 0/0
  2093 ;; Data sizes:     COMRAM   BANK0   BANK1   BANK2   BANK3   BANK4   BANK5   BANK6   BANK7
  2094 ;;      Params:         0       0       0       0       0       0       0       0       0
  2095 ;;      Locals:         0       0       0       0       0       0       0       0       0
  2096 ;;      Temps:          0       0       0       0       0       0       0       0       0
  2097 ;;      Totals:         0       0       0       0       0       0       0       0       0
  2098 ;;Total ram usage:        0 bytes
  2099 ;; Hardware stack levels used: 1
  2100 ;; Hardware stack levels required when called: 6
  2101 ;; This function calls:
  2102 ;;		_Lcd_Clear
  2103 ;;		_Lcd_Set_Cursor
  2104 ;;		_Lcd_String
  2105 ;;		___lwdiv
  2106 ;;		___lwmod
  2107 ;;		_color
  2108 ;;		_unidad
  2109 ;; This function is called by:
  2110 ;;		_main
  2111 ;; This function uses a non-reentrant model
  2112 ;;
  2113                           
  2114                           	psect	text4
  2115   000E9C                     __ptext4:
  2116                           	callstack 0
  2117   000E9C                     _mostrar_completado:
  2118                           	callstack 24
  2119                           
  2120                           ;Laboratorio_5.c: 430: unidad(objetivo%10);
  2121                           
  2122                           ;incstack = 0
  2123   000E9C  C02E  F013         	movff	_objetivo,___lwmod@dividend
  2124   000EA0  C02F  F014         	movff	_objetivo+1,___lwmod@dividend+1
  2125   000EA4  0E00               	movlw	0
  2126   000EA6  6E16               	movwf	(___lwmod@divisor+1)^0,c
  2127   000EA8  0E0A               	movlw	10
  2128   000EAA  6E15               	movwf	___lwmod@divisor^0,c
  2129   000EAC  EC5A  F009         	call	___lwmod	;wreg free
  2130   000EB0  C013  F018         	movff	?___lwmod,unidad@i
  2131   000EB4  C014  F019         	movff	?___lwmod+1,unidad@i+1
  2132   000EB8  ECE4  F00A         	call	_unidad	;wreg free
  2133                           
  2134                           ;Laboratorio_5.c: 431: color(objetivo/10);
  2135   000EBC  C02E  F013         	movff	_objetivo,___lwdiv@dividend
  2136   000EC0  C02F  F014         	movff	_objetivo+1,___lwdiv@dividend+1
  2137   000EC4  0E00               	movlw	0
  2138   000EC6  6E16               	movwf	(___lwdiv@divisor+1)^0,c
  2139   000EC8  0E0A               	movlw	10
  2140   000ECA  6E15               	movwf	___lwdiv@divisor^0,c
  2141   000ECC  ECBB  F008         	call	___lwdiv	;wreg free
  2142   000ED0  C013  F01A         	movff	?___lwdiv,color@i
  2143   000ED4  C014  F01B         	movff	?___lwdiv+1,color@i+1
  2144   000ED8  EC2E  F008         	call	_color	;wreg free
  2145                           
  2146                           ;Laboratorio_5.c: 432: Lcd_Clear();
  2147   000EDC  ECF6  F00A         	call	_Lcd_Clear	;wreg free
  2148                           
  2149                           ;Laboratorio_5.c: 433: Lcd_Set_Cursor(1, 1);
  2150   000EE0  0E01               	movlw	1
  2151   000EE2  6E16               	movwf	Lcd_Set_Cursor@column^0,c
  2152   000EE4  0E01               	movlw	1
  2153   000EE6  EC7E  F00A         	call	_Lcd_Set_Cursor
  2154                           
  2155                           ;Laboratorio_5.c: 434: Lcd_String("Conteo Completo!");
  2156   000EEA  0E51               	movlw	low STR_10
  2157   000EEC  6E16               	movwf	Lcd_String@str^0,c
  2158   000EEE  0E7F               	movlw	high STR_10
  2159   000EF0  6E17               	movwf	(Lcd_String@str+1)^0,c
  2160   000EF2  EC2B  F00A         	call	_Lcd_String	;wreg free
  2161                           
  2162                           ;Laboratorio_5.c: 435: Lcd_Set_Cursor(2, 1);
  2163   000EF6  0E01               	movlw	1
  2164   000EF8  6E16               	movwf	Lcd_Set_Cursor@column^0,c
  2165   000EFA  0E02               	movlw	2
  2166   000EFC  EC7E  F00A         	call	_Lcd_Set_Cursor
  2167                           
  2168                           ;Laboratorio_5.c: 436: Lcd_String("Presione OK");
  2169   000F00  0EDE               	movlw	low STR_11
  2170   000F02  6E16               	movwf	Lcd_String@str^0,c
  2171   000F04  0E7F               	movlw	high STR_11
  2172   000F06  6E17               	movwf	(Lcd_String@str+1)^0,c
  2173   000F08  EC2B  F00A         	call	_Lcd_String	;wreg free
  2174   000F0C  0012               	return		;funcret
  2175   000F0E                     __end_of_mostrar_completado:
  2176                           	callstack 0
  2177                           
  2178 ;; *************** function _unidad *****************
  2179 ;; Defined at:
  2180 ;;		line 407 in file "Laboratorio_5.c"
  2181 ;; Parameters:    Size  Location     Type
  2182 ;;  i               2   23[COMRAM] int 
  2183 ;; Auto vars:     Size  Location     Type
  2184 ;;		None
  2185 ;; Return value:  Size  Location     Type
  2186 ;;                  1    wreg      void 
  2187 ;; Registers used:
  2188 ;;		wreg, status,2, status,0
  2189 ;; Tracked objects:
  2190 ;;		On entry : 0/0
  2191 ;;		On exit  : 0/0
  2192 ;;		Unchanged: 0/0
  2193 ;; Data sizes:     COMRAM   BANK0   BANK1   BANK2   BANK3   BANK4   BANK5   BANK6   BANK7
  2194 ;;      Params:         2       0       0       0       0       0       0       0       0
  2195 ;;      Locals:         0       0       0       0       0       0       0       0       0
  2196 ;;      Temps:          1       0       0       0       0       0       0       0       0
  2197 ;;      Totals:         3       0       0       0       0       0       0       0       0
  2198 ;;Total ram usage:        3 bytes
  2199 ;; Hardware stack levels used: 1
  2200 ;; Hardware stack levels required when called: 4
  2201 ;; This function calls:
  2202 ;;		Nothing
  2203 ;; This function is called by:
  2204 ;;		_mostrar_conteo
  2205 ;;		_mostrar_completado
  2206 ;; This function uses a non-reentrant model
  2207 ;;
  2208                           
  2209                           	psect	text5
  2210   0015C8                     __ptext5:
  2211                           	callstack 0
  2212   0015C8                     _unidad:
  2213                           	callstack 25
  2214                           
  2215                           ;Laboratorio_5.c: 408: LATD = (LATD & 0xF0) | (i & 0x0F);
  2216                           
  2217                           ;incstack = 0
  2218   0015C8  C018  F01A         	movff	unidad@i,??_unidad
  2219   0015CC  0E0F               	movlw	15
  2220   0015CE  161A               	andwf	??_unidad^0,f,c
  2221   0015D0  508C               	movf	140,w,c	;volatile
  2222   0015D2  0BF0               	andlw	240
  2223   0015D4  101A               	iorwf	??_unidad^0,w,c
  2224   0015D6  6E8C               	movwf	140,c	;volatile
  2225   0015D8  0012               	return		;funcret
  2226   0015DA                     __end_of_unidad:
  2227                           	callstack 0
  2228                           
  2229 ;; *************** function _color *****************
  2230 ;; Defined at:
  2231 ;;		line 411 in file "Laboratorio_5.c"
  2232 ;; Parameters:    Size  Location     Type
  2233 ;;  i               2   25[COMRAM] int 
  2234 ;; Auto vars:     Size  Location     Type
  2235 ;;		None
  2236 ;; Return value:  Size  Location     Type
  2237 ;;                  1    wreg      void 
  2238 ;; Registers used:
  2239 ;;		wreg, status,2, status,0
  2240 ;; Tracked objects:
  2241 ;;		On entry : 0/0
  2242 ;;		On exit  : 0/0
  2243 ;;		Unchanged: 0/0
  2244 ;; Data sizes:     COMRAM   BANK0   BANK1   BANK2   BANK3   BANK4   BANK5   BANK6   BANK7
  2245 ;;      Params:         2       0       0       0       0       0       0       0       0
  2246 ;;      Locals:         0       0       0       0       0       0       0       0       0
  2247 ;;      Temps:          2       0       0       0       0       0       0       0       0
  2248 ;;      Totals:         4       0       0       0       0       0       0       0       0
  2249 ;;Total ram usage:        4 bytes
  2250 ;; Hardware stack levels used: 1
  2251 ;; Hardware stack levels required when called: 4
  2252 ;; This function calls:
  2253 ;;		Nothing
  2254 ;; This function is called by:
  2255 ;;		_mostrar_conteo
  2256 ;;		_mostrar_completado
  2257 ;; This function uses a non-reentrant model
  2258 ;;
  2259                           
  2260                           	psect	text6
  2261   00105C                     __ptext6:
  2262                           	callstack 0
  2263   00105C                     _color:
  2264                           	callstack 25
  2265                           
  2266                           ;Laboratorio_5.c: 412: switch (i) {
  2267                           
  2268                           ;incstack = 0
  2269   00105C  D014               	goto	l2433
  2270   00105E                     l2419:
  2271   00105E  0E05               	movlw	5
  2272   001060  6E8D               	movwf	141,c	;volatile
  2273   001062  0012               	return	
  2274   001064                     l2421:
  2275   001064  0E04               	movlw	4
  2276   001066  6E8D               	movwf	141,c	;volatile
  2277   001068  0012               	return	
  2278   00106A                     l2423:
  2279   00106A  0E06               	movlw	6
  2280   00106C  6E8D               	movwf	141,c	;volatile
  2281   00106E  0012               	return	
  2282   001070                     l2425:
  2283   001070  0E02               	movlw	2
  2284   001072  6E8D               	movwf	141,c	;volatile
  2285   001074  0012               	return	
  2286   001076                     l2427:
  2287   001076  0E03               	movlw	3
  2288   001078  6E8D               	movwf	141,c	;volatile
  2289   00107A  0012               	return	
  2290   00107C                     l2429:
  2291   00107C  0E07               	movlw	7
  2292   00107E  6E8D               	movwf	141,c	;volatile
  2293   001080  0012               	return	
  2294   001082                     l345:
  2295   001082  6A8D               	clrf	141,c	;volatile
  2296   001084  0012               	return	
  2297   001086                     l2433:
  2298   001086  C01A  F01C         	movff	color@i,??_color
  2299   00108A  C01B  F01D         	movff	color@i+1,??_color+1
  2300                           
  2301                           ; Switch on 2 bytes has been partitioned into a top level switch of size 1, and 1 sub-sw
      +                          itches
  2302                           ; Switch size 1, requested type "simple"
  2303                           ; Number of cases is 1, Range of values is 0 to 0
  2304                           ; switch strategies available:
  2305                           ; Name         Instructions Cycles
  2306                           ; simple_byte            4     3 (average)
  2307                           ;	Chosen strategy is simple_byte
  2308   00108E  501D               	movf	(??_color+1)^0,w,c
  2309   001090  0A00               	xorlw	0	; case 0
  2310   001092  A4D8               	btfss	status,2,c
  2311   001094  D7F6               	goto	l345
  2312                           
  2313                           ; Switch size 1, requested type "simple"
  2314                           ; Number of cases is 6, Range of values is 0 to 5
  2315                           ; switch strategies available:
  2316                           ; Name         Instructions Cycles
  2317                           ; simple_byte           19    10 (average)
  2318                           ;	Chosen strategy is simple_byte
  2319   001096  501C               	movf	??_color^0,w,c
  2320   001098  0A00               	xorlw	0	; case 0
  2321   00109A  B4D8               	btfsc	status,2,c
  2322   00109C  D7E0               	goto	l2419
  2323   00109E  0A01               	xorlw	1	; case 1
  2324   0010A0  B4D8               	btfsc	status,2,c
  2325   0010A2  D7E0               	goto	l2421
  2326   0010A4  0A03               	xorlw	3	; case 2
  2327   0010A6  B4D8               	btfsc	status,2,c
  2328   0010A8  D7E0               	goto	l2423
  2329   0010AA  0A01               	xorlw	1	; case 3
  2330   0010AC  B4D8               	btfsc	status,2,c
  2331   0010AE  D7E0               	goto	l2425
  2332   0010B0  0A07               	xorlw	7	; case 4
  2333   0010B2  B4D8               	btfsc	status,2,c
  2334   0010B4  D7E0               	goto	l2427
  2335   0010B6  0A01               	xorlw	1	; case 5
  2336   0010B8  B4D8               	btfsc	status,2,c
  2337   0010BA  D7E0               	goto	l2429
  2338   0010BC  D7E2               	goto	l345
  2339   0010BE                     __end_of_color:
  2340                           	callstack 0
  2341                           
  2342 ;; *************** function ___lwmod *****************
  2343 ;; Defined at:
  2344 ;;		line 7 in file "C:\Program Files\Microchip\xc8\v2.50\pic\sources\c90\common\lwmod.c"
  2345 ;; Parameters:    Size  Location     Type
  2346 ;;  dividend        2   18[COMRAM] unsigned int 
  2347 ;;  divisor         2   20[COMRAM] unsigned int 
  2348 ;; Auto vars:     Size  Location     Type
  2349 ;;  counter         1   22[COMRAM] unsigned char 
  2350 ;; Return value:  Size  Location     Type
  2351 ;;                  2   18[COMRAM] unsigned int 
  2352 ;; Registers used:
  2353 ;;		wreg, status,2, status,0
  2354 ;; Tracked objects:
  2355 ;;		On entry : 0/0
  2356 ;;		On exit  : 0/0
  2357 ;;		Unchanged: 0/0
  2358 ;; Data sizes:     COMRAM   BANK0   BANK1   BANK2   BANK3   BANK4   BANK5   BANK6   BANK7
  2359 ;;      Params:         4       0       0       0       0       0       0       0       0
  2360 ;;      Locals:         1       0       0       0       0       0       0       0       0
  2361 ;;      Temps:          0       0       0       0       0       0       0       0       0
  2362 ;;      Totals:         5       0       0       0       0       0       0       0       0
  2363 ;;Total ram usage:        5 bytes
  2364 ;; Hardware stack levels used: 1
  2365 ;; Hardware stack levels required when called: 4
  2366 ;; This function calls:
  2367 ;;		Nothing
  2368 ;; This function is called by:
  2369 ;;		_main
  2370 ;;		_mostrar_conteo
  2371 ;;		_mostrar_completado
  2372 ;; This function uses a non-reentrant model
  2373 ;;
  2374                           
  2375                           	psect	text7
  2376   0012B4                     __ptext7:
  2377                           	callstack 0
  2378   0012B4                     ___lwmod:
  2379                           	callstack 25
  2380                           
  2381                           ;incstack = 0
  2382   0012B4  5015               	movf	___lwmod@divisor^0,w,c
  2383   0012B6  1016               	iorwf	(___lwmod@divisor+1)^0,w,c
  2384   0012B8  B4D8               	btfsc	status,2,c
  2385   0012BA  D018               	goto	l903
  2386   0012BC  0E01               	movlw	1
  2387   0012BE  6E17               	movwf	___lwmod@counter^0,c
  2388   0012C0  D004               	goto	l2593
  2389   0012C2                     l2591:
  2390   0012C2  90D8               	bcf	status,0,c
  2391   0012C4  3615               	rlcf	___lwmod@divisor^0,f,c
  2392   0012C6  3616               	rlcf	(___lwmod@divisor+1)^0,f,c
  2393   0012C8  2A17               	incf	___lwmod@counter^0,f,c
  2394   0012CA                     l2593:
  2395   0012CA  AE16               	btfss	(___lwmod@divisor+1)^0,7,c
  2396   0012CC  D7FA               	goto	l2591
  2397   0012CE                     u2990:
  2398   0012CE  5015               	movf	___lwmod@divisor^0,w,c
  2399   0012D0  5C13               	subwf	___lwmod@dividend^0,w,c
  2400   0012D2  5016               	movf	(___lwmod@divisor+1)^0,w,c
  2401   0012D4  5814               	subwfb	(___lwmod@dividend+1)^0,w,c
  2402   0012D6  A0D8               	btfss	status,0,c
  2403   0012D8  D004               	goto	l2599
  2404   0012DA  5015               	movf	___lwmod@divisor^0,w,c
  2405   0012DC  5E13               	subwf	___lwmod@dividend^0,f,c
  2406   0012DE  5016               	movf	(___lwmod@divisor+1)^0,w,c
  2407   0012E0  5A14               	subwfb	(___lwmod@dividend+1)^0,f,c
  2408   0012E2                     l2599:
  2409   0012E2  90D8               	bcf	status,0,c
  2410   0012E4  3216               	rrcf	(___lwmod@divisor+1)^0,f,c
  2411   0012E6  3215               	rrcf	___lwmod@divisor^0,f,c
  2412   0012E8  2E17               	decfsz	___lwmod@counter^0,f,c
  2413   0012EA  D7F1               	goto	u2990
  2414   0012EC                     l903:
  2415   0012EC  C013  F013         	movff	___lwmod@dividend,?___lwmod
  2416   0012F0  C014  F014         	movff	___lwmod@dividend+1,?___lwmod+1
  2417   0012F4  0012               	return		;funcret
  2418   0012F6                     __end_of___lwmod:
  2419                           	callstack 0
  2420                           
  2421 ;; *************** function ___lwdiv *****************
  2422 ;; Defined at:
  2423 ;;		line 7 in file "C:\Program Files\Microchip\xc8\v2.50\pic\sources\c90\common\lwdiv.c"
  2424 ;; Parameters:    Size  Location     Type
  2425 ;;  dividend        2   18[COMRAM] unsigned int 
  2426 ;;  divisor         2   20[COMRAM] unsigned int 
  2427 ;; Auto vars:     Size  Location     Type
  2428 ;;  quotient        2   22[COMRAM] unsigned int 
  2429 ;;  counter         1   24[COMRAM] unsigned char 
  2430 ;; Return value:  Size  Location     Type
  2431 ;;                  2   18[COMRAM] unsigned int 
  2432 ;; Registers used:
  2433 ;;		wreg, status,2, status,0
  2434 ;; Tracked objects:
  2435 ;;		On entry : 0/0
  2436 ;;		On exit  : 0/0
  2437 ;;		Unchanged: 0/0
  2438 ;; Data sizes:     COMRAM   BANK0   BANK1   BANK2   BANK3   BANK4   BANK5   BANK6   BANK7
  2439 ;;      Params:         4       0       0       0       0       0       0       0       0
  2440 ;;      Locals:         3       0       0       0       0       0       0       0       0
  2441 ;;      Temps:          0       0       0       0       0       0       0       0       0
  2442 ;;      Totals:         7       0       0       0       0       0       0       0       0
  2443 ;;Total ram usage:        7 bytes
  2444 ;; Hardware stack levels used: 1
  2445 ;; Hardware stack levels required when called: 4
  2446 ;; This function calls:
  2447 ;;		Nothing
  2448 ;; This function is called by:
  2449 ;;		_main
  2450 ;;		_mostrar_conteo
  2451 ;;		_mostrar_completado
  2452 ;; This function uses a non-reentrant model
  2453 ;;
  2454                           
  2455                           	psect	text8
  2456   001176                     __ptext8:
  2457                           	callstack 0
  2458   001176                     ___lwdiv:
  2459                           	callstack 25
  2460                           
  2461                           ;incstack = 0
  2462   001176  0E00               	movlw	0
  2463   001178  6E18               	movwf	(___lwdiv@quotient+1)^0,c
  2464   00117A  0E00               	movlw	0
  2465   00117C  6E17               	movwf	___lwdiv@quotient^0,c
  2466   00117E  5015               	movf	___lwdiv@divisor^0,w,c
  2467   001180  1016               	iorwf	(___lwdiv@divisor+1)^0,w,c
  2468   001182  B4D8               	btfsc	status,2,c
  2469   001184  D01C               	goto	l893
  2470   001186  0E01               	movlw	1
  2471   001188  6E19               	movwf	___lwdiv@counter^0,c
  2472   00118A  D004               	goto	l2573
  2473   00118C                     l2571:
  2474   00118C  90D8               	bcf	status,0,c
  2475   00118E  3615               	rlcf	___lwdiv@divisor^0,f,c
  2476   001190  3616               	rlcf	(___lwdiv@divisor+1)^0,f,c
  2477   001192  2A19               	incf	___lwdiv@counter^0,f,c
  2478   001194                     l2573:
  2479   001194  AE16               	btfss	(___lwdiv@divisor+1)^0,7,c
  2480   001196  D7FA               	goto	l2571
  2481   001198                     u2960:
  2482   001198  90D8               	bcf	status,0,c
  2483   00119A  3617               	rlcf	___lwdiv@quotient^0,f,c
  2484   00119C  3618               	rlcf	(___lwdiv@quotient+1)^0,f,c
  2485   00119E  5015               	movf	___lwdiv@divisor^0,w,c
  2486   0011A0  5C13               	subwf	___lwdiv@dividend^0,w,c
  2487   0011A2  5016               	movf	(___lwdiv@divisor+1)^0,w,c
  2488   0011A4  5814               	subwfb	(___lwdiv@dividend+1)^0,w,c
  2489   0011A6  A0D8               	btfss	status,0,c
  2490   0011A8  D005               	goto	l2583
  2491   0011AA  5015               	movf	___lwdiv@divisor^0,w,c
  2492   0011AC  5E13               	subwf	___lwdiv@dividend^0,f,c
  2493   0011AE  5016               	movf	(___lwdiv@divisor+1)^0,w,c
  2494   0011B0  5A14               	subwfb	(___lwdiv@dividend+1)^0,f,c
  2495   0011B2  8017               	bsf	___lwdiv@quotient^0,0,c
  2496   0011B4                     l2583:
  2497   0011B4  90D8               	bcf	status,0,c
  2498   0011B6  3216               	rrcf	(___lwdiv@divisor+1)^0,f,c
  2499   0011B8  3215               	rrcf	___lwdiv@divisor^0,f,c
  2500   0011BA  2E19               	decfsz	___lwdiv@counter^0,f,c
  2501   0011BC  D7ED               	goto	u2960
  2502   0011BE                     l893:
  2503   0011BE  C017  F013         	movff	___lwdiv@quotient,?___lwdiv
  2504   0011C2  C018  F014         	movff	___lwdiv@quotient+1,?___lwdiv+1
  2505   0011C6  0012               	return		;funcret
  2506   0011C8                     __end_of___lwdiv:
  2507                           	callstack 0
  2508                           
  2509 ;; *************** function _mensaje_reset *****************
  2510 ;; Defined at:
  2511 ;;		line 527 in file "Laboratorio_5.c"
  2512 ;; Parameters:    Size  Location     Type
  2513 ;;		None
  2514 ;; Auto vars:     Size  Location     Type
  2515 ;;		None
  2516 ;; Return value:  Size  Location     Type
  2517 ;;                  1    wreg      void 
  2518 ;; Registers used:
  2519 ;;		wreg, status,2, status,0, tblptrl, tblptrh, tblptru, cstack
  2520 ;; Tracked objects:
  2521 ;;		On entry : 0/0
  2522 ;;		On exit  : 0/0
  2523 ;;		Unchanged: 0/0
  2524 ;; Data sizes:     COMRAM   BANK0   BANK1   BANK2   BANK3   BANK4   BANK5   BANK6   BANK7
  2525 ;;      Params:         0       0       0       0       0       0       0       0       0
  2526 ;;      Locals:         0       0       0       0       0       0       0       0       0
  2527 ;;      Temps:          2       0       0       0       0       0       0       0       0
  2528 ;;      Totals:         2       0       0       0       0       0       0       0       0
  2529 ;;Total ram usage:        2 bytes
  2530 ;; Hardware stack levels used: 1
  2531 ;; Hardware stack levels required when called: 6
  2532 ;; This function calls:
  2533 ;;		_Lcd_Clear
  2534 ;;		_Lcd_Set_Cursor
  2535 ;;		_Lcd_String
  2536 ;; This function is called by:
  2537 ;;		_main
  2538 ;; This function uses a non-reentrant model
  2539 ;;
  2540                           
  2541                           	psect	text9
  2542   001120                     __ptext9:
  2543                           	callstack 0
  2544   001120                     _mensaje_reset:
  2545                           	callstack 24
  2546                           
  2547                           ;Laboratorio_5.c: 528: if (POR==0) {
  2548                           
  2549                           ;incstack = 0
  2550   001120  B2D0               	btfsc	4048,1,c	;volatile
  2551   001122  D01B               	goto	l3507
  2552                           
  2553                           ;Laboratorio_5.c: 529: Lcd_Clear();
  2554   001124  ECF6  F00A         	call	_Lcd_Clear	;wreg free
  2555                           
  2556                           ;Laboratorio_5.c: 530: Lcd_Set_Cursor(1, 1);
  2557   001128  0E01               	movlw	1
  2558   00112A  6E16               	movwf	Lcd_Set_Cursor@column^0,c
  2559   00112C  0E01               	movlw	1
  2560   00112E  EC7E  F00A         	call	_Lcd_Set_Cursor
  2561                           
  2562                           ;Laboratorio_5.c: 531: Lcd_String("Falla de energia");
  2563   001132  0E62               	movlw	low STR_15
  2564   001134  6E16               	movwf	Lcd_String@str^0,c
  2565   001136  0E7F               	movlw	high STR_15
  2566   001138  6E17               	movwf	(Lcd_String@str+1)^0,c
  2567   00113A  EC2B  F00A         	call	_Lcd_String	;wreg free
  2568                           
  2569                           ;Laboratorio_5.c: 532: POR=1;
  2570   00113E  82D0               	bsf	4048,1,c	;volatile
  2571   001140                     l3505:
  2572                           
  2573                           ;Laboratorio_5.c: 533: _delay((unsigned long)((1500)*(1000000/4000.0)));
  2574   001140  0E02               	movlw	2
  2575   001142  6E1C               	movwf	(??_mensaje_reset+1)^0,c
  2576   001144  0EE7               	movlw	231
  2577   001146  6E1B               	movwf	??_mensaje_reset^0,c
  2578   001148  0E00               	movlw	0
  2579   00114A                     u4817:
  2580   00114A  2EE8               	decfsz	wreg,f,c
  2581   00114C  D7FE               	bra	u4817
  2582   00114E  2E1B               	decfsz	??_mensaje_reset^0,f,c
  2583   001150  D7FC               	bra	u4817
  2584   001152  2E1C               	decfsz	(??_mensaje_reset+1)^0,f,c
  2585   001154  D7FA               	bra	u4817
  2586   001156  D000               	nop2	
  2587                           
  2588                           ;Laboratorio_5.c: 534: } else{
  2589   001158  0012               	return	
  2590   00115A                     l3507:
  2591                           
  2592                           ;Laboratorio_5.c: 535: Lcd_Clear();
  2593   00115A  ECF6  F00A         	call	_Lcd_Clear	;wreg free
  2594                           
  2595                           ;Laboratorio_5.c: 536: Lcd_Set_Cursor(1, 1);
  2596   00115E  0E01               	movlw	1
  2597   001160  6E16               	movwf	Lcd_Set_Cursor@column^0,c
  2598   001162  0E01               	movlw	1
  2599   001164  EC7E  F00A         	call	_Lcd_Set_Cursor
  2600                           
  2601                           ;Laboratorio_5.c: 537: Lcd_String("Reset de usuario");
  2602   001168  0E73               	movlw	low STR_16
  2603   00116A  6E16               	movwf	Lcd_String@str^0,c
  2604   00116C  0E7F               	movlw	high STR_16
  2605   00116E  6E17               	movwf	(Lcd_String@str+1)^0,c
  2606   001170  EC2B  F00A         	call	_Lcd_String	;wreg free
  2607   001174  D7E5               	goto	l3505
  2608   001176                     __end_of_mensaje_reset:
  2609                           	callstack 0
  2610                           
  2611 ;; *************** function _lcd_animacion_bienvenida *****************
  2612 ;; Defined at:
  2613 ;;		line 452 in file "Laboratorio_5.c"
  2614 ;; Parameters:    Size  Location     Type
  2615 ;;		None
  2616 ;; Auto vars:     Size  Location     Type
  2617 ;;  c               1   29[BANK0 ] unsigned char 
  2618 ;;  j               2   30[BANK0 ] int 
  2619 ;;  i               2   27[BANK0 ] int 
  2620 ;;  offset          2   32[BANK0 ] int 
  2621 ;;  mensaje        23    0[BANK0 ] const unsigned char [23]
  2622 ;;  pasos           2   25[BANK0 ] const int 
  2623 ;; Return value:  Size  Location     Type
  2624 ;;                  1    wreg      void 
  2625 ;; Registers used:
  2626 ;;		wreg, fsr2l, fsr2h, status,2, status,0, tblptrl, tblptrh, tblptru, prodl, prodh, cstack
  2627 ;; Tracked objects:
  2628 ;;		On entry : 0/0
  2629 ;;		On exit  : 0/0
  2630 ;;		Unchanged: 0/0
  2631 ;; Data sizes:     COMRAM   BANK0   BANK1   BANK2   BANK3   BANK4   BANK5   BANK6   BANK7
  2632 ;;      Params:         0       0       0       0       0       0       0       0       0
  2633 ;;      Locals:         0      34       0       0       0       0       0       0       0
  2634 ;;      Temps:          2       0       0       0       0       0       0       0       0
  2635 ;;      Totals:         2      34       0       0       0       0       0       0       0
  2636 ;;Total ram usage:       36 bytes
  2637 ;; Hardware stack levels used: 1
  2638 ;; Hardware stack levels required when called: 6
  2639 ;; This function calls:
  2640 ;;		_LCD_CrearCaracter
  2641 ;;		_Lcd_Char
  2642 ;;		_Lcd_Clear
  2643 ;;		_Lcd_Set_Cursor
  2644 ;;		_Lcd_String
  2645 ;;		___awmod
  2646 ;; This function is called by:
  2647 ;;		_main
  2648 ;; This function uses a non-reentrant model
  2649 ;;
  2650                           
  2651                           	psect	text10
  2652   0005D8                     __ptext10:
  2653                           	callstack 0
  2654   0005D8                     _lcd_animacion_bienvenida:
  2655                           	callstack 24
  2656                           
  2657                           ;Laboratorio_5.c: 453: LCD_CrearCaracter(0, runner0);
  2658                           
  2659                           ;incstack = 0
  2660   0005D8  0EF5               	movlw	low _runner0
  2661   0005DA  6E16               	movwf	LCD_CrearCaracter@pattern^0,c
  2662   0005DC  0E7E               	movlw	high _runner0
  2663   0005DE  6E17               	movwf	(LCD_CrearCaracter@pattern+1)^0,c
  2664   0005E0  0E00               	movlw	0
  2665   0005E2  ECFA  F009         	call	_LCD_CrearCaracter
  2666                           
  2667                           ;Laboratorio_5.c: 454: LCD_CrearCaracter(1, runner1);
  2668   0005E6  0EED               	movlw	low _runner1
  2669   0005E8  6E16               	movwf	LCD_CrearCaracter@pattern^0,c
  2670   0005EA  0E7E               	movlw	high _runner1
  2671   0005EC  6E17               	movwf	(LCD_CrearCaracter@pattern+1)^0,c
  2672   0005EE  0E01               	movlw	1
  2673   0005F0  ECFA  F009         	call	_LCD_CrearCaracter
  2674                           
  2675                           ;Laboratorio_5.c: 455: LCD_CrearCaracter(2, runner2);
  2676   0005F4  0EE5               	movlw	low _runner2
  2677   0005F6  6E16               	movwf	LCD_CrearCaracter@pattern^0,c
  2678   0005F8  0E7E               	movlw	high _runner2
  2679   0005FA  6E17               	movwf	(LCD_CrearCaracter@pattern+1)^0,c
  2680   0005FC  0E02               	movlw	2
  2681   0005FE  ECFA  F009         	call	_LCD_CrearCaracter
  2682                           
  2683                           ;Laboratorio_5.c: 456: LCD_CrearCaracter(3, explosion);
  2684   000602  0ED5               	movlw	low _explosion
  2685   000604  6E16               	movwf	LCD_CrearCaracter@pattern^0,c
  2686   000606  0E7E               	movlw	high _explosion
  2687   000608  6E17               	movwf	(LCD_CrearCaracter@pattern+1)^0,c
  2688   00060A  0E03               	movlw	3
  2689   00060C  ECFA  F009         	call	_LCD_CrearCaracter
  2690                           
  2691                           ;Laboratorio_5.c: 457: LCD_CrearCaracter(4, rpg);
  2692   000610  0EDD               	movlw	low _rpg
  2693   000612  6E16               	movwf	LCD_CrearCaracter@pattern^0,c
  2694   000614  0E7E               	movlw	high _rpg
  2695   000616  6E17               	movwf	(LCD_CrearCaracter@pattern+1)^0,c
  2696   000618  0E04               	movlw	4
  2697   00061A  ECFA  F009         	call	_LCD_CrearCaracter
  2698                           
  2699                           ;Laboratorio_5.c: 459: const char mensaje[] = "Bienvenido al Contador";
  2700   00061E  0EAD               	movlw	low lcd_animacion_bienvenida@F3164
  2701   000620  6EF6               	movwf	tblptrl,c
  2702   000622                     	if	1	;There is more than 1 active tblptr byte
  2703   000622  0E7E               	movlw	high lcd_animacion_bienvenida@F3164
  2704   000624  6EF7               	movwf	tblptrh,c
  2705   000626                     	endif
  2706   000626                     	if	0	;There are less than 3 active tblptr bytes
  2707   000626                     	endif
  2708   000626  EE20  F060         	lfsr	2,lcd_animacion_bienvenida@mensaje
  2709   00062A  0E16               	movlw	22
  2710   00062C                     u4440:
  2711   00062C  0009               	tblrd		*+
  2712   00062E  CFF5 FFDE          	movff	tablat,postinc2
  2713   000632  06E8               	decf	wreg,f,c
  2714   000634  E2FB               	bc	u4440
  2715                           
  2716                           ;Laboratorio_5.c: 460: const int pasos = 16;
  2717   000636  0E00               	movlw	0
  2718   000638  0100               	movlb	0	; () banked
  2719   00063A  6F7A               	movwf	(lcd_animacion_bienvenida@pasos+1)& (0+255),b
  2720   00063C  0E10               	movlw	16
  2721   00063E  6F79               	movwf	lcd_animacion_bienvenida@pasos& (0+255),b
  2722                           
  2723                           ; BSR set to: 0
  2724                           ;Laboratorio_5.c: 462: for (int offset = 0; offset < pasos; offset++) {
  2725   000640  0E00               	movlw	0
  2726   000642  6F81               	movwf	(lcd_animacion_bienvenida@offset+1)& (0+255),b
  2727   000644  0E00               	movlw	0
  2728   000646  6F80               	movwf	lcd_animacion_bienvenida@offset& (0+255),b
  2729   000648                     l3525:
  2730                           
  2731                           ; BSR set to: 0
  2732                           ;Laboratorio_5.c: 463: Lcd_Set_Cursor(1, 1);
  2733   000648  0E01               	movlw	1
  2734   00064A  6E16               	movwf	Lcd_Set_Cursor@column^0,c
  2735   00064C  0E01               	movlw	1
  2736   00064E  EC7E  F00A         	call	_Lcd_Set_Cursor
  2737                           
  2738                           ;Laboratorio_5.c: 464: for (int j = 0; j < 16; j++) {
  2739   000652  0E00               	movlw	0
  2740   000654  0100               	movlb	0	; () banked
  2741   000656  6F7F               	movwf	(lcd_animacion_bienvenida@j+1)& (0+255),b
  2742   000658  0E00               	movlw	0
  2743   00065A  6F7E               	movwf	lcd_animacion_bienvenida@j& (0+255),b
  2744   00065C                     l3533:
  2745                           
  2746                           ; BSR set to: 0
  2747                           ;Laboratorio_5.c: 465: char c = mensaje[offset + j];
  2748   00065C  5180               	movf	lcd_animacion_bienvenida@offset& (0+255),w,b
  2749   00065E  0F60               	addlw	low lcd_animacion_bienvenida@mensaje
  2750   000660  257E               	addwf	lcd_animacion_bienvenida@j& (0+255),w,b
  2751   000662  6ED9               	movwf	fsr2l,c
  2752   000664  6ADA               	clrf	fsr2h,c
  2753   000666  50DF               	movf	indf2,w,c
  2754   000668  6F7D               	movwf	lcd_animacion_bienvenida@c& (0+255),b
  2755                           
  2756                           ; BSR set to: 0
  2757                           ;Laboratorio_5.c: 466: Lcd_Char((c >= 32 && c <= 126) ? c : ' ');
  2758   00066A  0E1F               	movlw	31
  2759   00066C  657D               	cpfsgt	lcd_animacion_bienvenida@c& (0+255),b
  2760   00066E  D003               	goto	u4460
  2761                           
  2762                           ; BSR set to: 0
  2763   000670  0E7E               	movlw	126
  2764   000672  657D               	cpfsgt	lcd_animacion_bienvenida@c& (0+255),b
  2765   000674  D005               	goto	l368
  2766   000676                     u4460:
  2767                           
  2768                           ; BSR set to: 0
  2769   000676  0E00               	movlw	0
  2770   000678  6F78               	movwf	(_lcd_animacion_bienvenida$240+1)& (0+255),b
  2771   00067A  0E20               	movlw	32
  2772   00067C  6F77               	movwf	_lcd_animacion_bienvenida$240& (0+255),b
  2773   00067E  D003               	goto	l3541
  2774   000680                     l368:
  2775                           
  2776                           ; BSR set to: 0
  2777   000680  C07D  F077         	movff	lcd_animacion_bienvenida@c,_lcd_animacion_bienvenida$240
  2778   000684  6B78               	clrf	(_lcd_animacion_bienvenida$240+1)& (0+255),b
  2779   000686                     l3541:
  2780                           
  2781                           ; BSR set to: 0
  2782   000686  5177               	movf	_lcd_animacion_bienvenida$240& (0+255),w,b
  2783   000688  ECEA  F004         	call	_Lcd_Char
  2784   00068C  0100               	movlb	0	; () banked
  2785   00068E  4B7E               	infsnz	lcd_animacion_bienvenida@j& (0+255),f,b
  2786   000690  2B7F               	incf	(lcd_animacion_bienvenida@j+1)& (0+255),f,b
  2787                           
  2788                           ; BSR set to: 0
  2789   000692  BF7F               	btfsc	(lcd_animacion_bienvenida@j+1)& (0+255),7,b
  2790   000694  D7E3               	goto	l3533
  2791   000696  517F               	movf	(lcd_animacion_bienvenida@j+1)& (0+255),w,b
  2792   000698  E104               	bnz	u4470
  2793   00069A  0E10               	movlw	16
  2794   00069C  5D7E               	subwf	lcd_animacion_bienvenida@j& (0+255),w,b
  2795   00069E  A0D8               	btfss	status,0,c
  2796   0006A0  D7DD               	goto	l3533
  2797   0006A2                     u4470:
  2798                           
  2799                           ; BSR set to: 0
  2800                           ;Laboratorio_5.c: 467: };Laboratorio_5.c: 468: Lcd_Set_Cursor(2, offset);
  2801   0006A2  C080  F016         	movff	lcd_animacion_bienvenida@offset,Lcd_Set_Cursor@column
  2802   0006A6  0E02               	movlw	2
  2803   0006A8  EC7E  F00A         	call	_Lcd_Set_Cursor
  2804                           
  2805                           ;Laboratorio_5.c: 469: Lcd_Char(4);
  2806   0006AC  0E04               	movlw	4
  2807   0006AE  ECEA  F004         	call	_Lcd_Char
  2808                           
  2809                           ;Laboratorio_5.c: 470: Lcd_Set_Cursor(2, offset + 1);
  2810   0006B2  0100               	movlb	0	; () banked
  2811   0006B4  2980               	incf	lcd_animacion_bienvenida@offset& (0+255),w,b
  2812   0006B6  6E16               	movwf	Lcd_Set_Cursor@column^0,c
  2813   0006B8  0E02               	movlw	2
  2814   0006BA  EC7E  F00A         	call	_Lcd_Set_Cursor
  2815                           
  2816                           ;Laboratorio_5.c: 471: Lcd_Char(offset % 3);
  2817   0006BE  C080  F013         	movff	lcd_animacion_bienvenida@offset,___awmod@dividend
  2818   0006C2  C081  F014         	movff	lcd_animacion_bienvenida@offset+1,___awmod@dividend+1
  2819   0006C6  0E00               	movlw	0
  2820   0006C8  6E16               	movwf	(___awmod@divisor+1)^0,c
  2821   0006CA  0E03               	movlw	3
  2822   0006CC  6E15               	movwf	___awmod@divisor^0,c
  2823   0006CE  ECC0  F007         	call	___awmod	;wreg free
  2824   0006D2  5013               	movf	?___awmod^0,w,c
  2825   0006D4  ECEA  F004         	call	_Lcd_Char
  2826                           
  2827                           ;Laboratorio_5.c: 472: _delay((unsigned long)((312)*(1000000/4000.0)));
  2828   0006D8  0E66               	movlw	102
  2829   0006DA  6E1C               	movwf	??_lcd_animacion_bienvenida^0,c
  2830   0006DC  0E4B               	movlw	75
  2831   0006DE                     u4827:
  2832   0006DE  2EE8               	decfsz	wreg,f,c
  2833   0006E0  D7FE               	bra	u4827
  2834   0006E2  2E1C               	decfsz	??_lcd_animacion_bienvenida^0,f,c
  2835   0006E4  D7FC               	bra	u4827
  2836   0006E6  0000               	nop	
  2837                           
  2838                           ;Laboratorio_5.c: 473: Lcd_Set_Cursor(2, offset);
  2839   0006E8  C080  F016         	movff	lcd_animacion_bienvenida@offset,Lcd_Set_Cursor@column
  2840   0006EC  0E02               	movlw	2
  2841   0006EE  EC7E  F00A         	call	_Lcd_Set_Cursor
  2842                           
  2843                           ;Laboratorio_5.c: 474: Lcd_Char(' ');
  2844   0006F2  0E20               	movlw	32
  2845   0006F4  ECEA  F004         	call	_Lcd_Char
  2846                           
  2847                           ;Laboratorio_5.c: 475: Lcd_Set_Cursor(2, offset + 1);
  2848   0006F8  0100               	movlb	0	; () banked
  2849   0006FA  2980               	incf	lcd_animacion_bienvenida@offset& (0+255),w,b
  2850   0006FC  6E16               	movwf	Lcd_Set_Cursor@column^0,c
  2851   0006FE  0E02               	movlw	2
  2852   000700  EC7E  F00A         	call	_Lcd_Set_Cursor
  2853                           
  2854                           ;Laboratorio_5.c: 476: Lcd_Char(' ');
  2855   000704  0E20               	movlw	32
  2856   000706  ECEA  F004         	call	_Lcd_Char
  2857   00070A  0100               	movlb	0	; () banked
  2858   00070C  4B80               	infsnz	lcd_animacion_bienvenida@offset& (0+255),f,b
  2859   00070E  2B81               	incf	(lcd_animacion_bienvenida@offset+1)& (0+255),f,b
  2860                           
  2861                           ; BSR set to: 0
  2862   000710  5179               	movf	lcd_animacion_bienvenida@pasos& (0+255),w,b
  2863   000712  5D80               	subwf	lcd_animacion_bienvenida@offset& (0+255),w,b
  2864   000714  5181               	movf	(lcd_animacion_bienvenida@offset+1)& (0+255),w,b
  2865   000716  0A80               	xorlw	128
  2866   000718  6E1C               	movwf	??_lcd_animacion_bienvenida^0,c
  2867   00071A  517A               	movf	(lcd_animacion_bienvenida@pasos+1)& (0+255),w,b
  2868   00071C  0A80               	xorlw	128
  2869   00071E  581C               	subwfb	??_lcd_animacion_bienvenida^0,w,c
  2870   000720  A0D8               	btfss	status,0,c
  2871   000722  D792               	goto	l3525
  2872                           
  2873                           ; BSR set to: 0
  2874                           ;Laboratorio_5.c: 477: };Laboratorio_5.c: 479: Lcd_Set_Cursor(2, 16);
  2875   000724  0E10               	movlw	16
  2876   000726  6E16               	movwf	Lcd_Set_Cursor@column^0,c
  2877   000728  0E02               	movlw	2
  2878   00072A  EC7E  F00A         	call	_Lcd_Set_Cursor
  2879                           
  2880                           ;Laboratorio_5.c: 480: Lcd_Char(3);
  2881   00072E  0E03               	movlw	3
  2882   000730  ECEA  F004         	call	_Lcd_Char
  2883                           
  2884                           ;Laboratorio_5.c: 481: Lcd_Set_Cursor(1, 1);
  2885   000734  0E01               	movlw	1
  2886   000736  6E16               	movwf	Lcd_Set_Cursor@column^0,c
  2887   000738  0E01               	movlw	1
  2888   00073A  EC7E  F00A         	call	_Lcd_Set_Cursor
  2889                           
  2890                           ;Laboratorio_5.c: 482: Lcd_String("      !BOOM!         ");
  2891   00073E  0E15               	movlw	low STR_14
  2892   000740  6E16               	movwf	Lcd_String@str^0,c
  2893   000742  0E7F               	movlw	high STR_14
  2894   000744  6E17               	movwf	(Lcd_String@str+1)^0,c
  2895   000746  EC2B  F00A         	call	_Lcd_String	;wreg free
  2896                           
  2897                           ;Laboratorio_5.c: 483: _delay((unsigned long)((500)*(1000000/4000.0)));
  2898   00074A  0EA3               	movlw	163
  2899   00074C  6E1C               	movwf	??_lcd_animacion_bienvenida^0,c
  2900   00074E  0E55               	movlw	85
  2901   000750                     u4837:
  2902   000750  2EE8               	decfsz	wreg,f,c
  2903   000752  D7FE               	bra	u4837
  2904   000754  2E1C               	decfsz	??_lcd_animacion_bienvenida^0,f,c
  2905   000756  D7FC               	bra	u4837
  2906   000758  0000               	nop	
  2907                           
  2908                           ;Laboratorio_5.c: 485: for (int i = 0; i < 3; i++) {
  2909   00075A  0E00               	movlw	0
  2910   00075C  0100               	movlb	0	; () banked
  2911   00075E  6F7C               	movwf	(lcd_animacion_bienvenida@i+1)& (0+255),b
  2912   000760  0E00               	movlw	0
  2913   000762  6F7B               	movwf	lcd_animacion_bienvenida@i& (0+255),b
  2914   000764                     l3575:
  2915                           
  2916                           ; BSR set to: 0
  2917                           ;Laboratorio_5.c: 486: Lcd_Set_Cursor(2, 16);
  2918   000764  0E10               	movlw	16
  2919   000766  6E16               	movwf	Lcd_Set_Cursor@column^0,c
  2920   000768  0E02               	movlw	2
  2921   00076A  EC7E  F00A         	call	_Lcd_Set_Cursor
  2922                           
  2923                           ;Laboratorio_5.c: 487: Lcd_Char(' ');
  2924   00076E  0E20               	movlw	32
  2925   000770  ECEA  F004         	call	_Lcd_Char
  2926                           
  2927                           ;Laboratorio_5.c: 488: _delay((unsigned long)((150)*(1000000/4000.0)));
  2928   000774  0E31               	movlw	49
  2929   000776  6E1C               	movwf	??_lcd_animacion_bienvenida^0,c
  2930   000778  0EB2               	movlw	178
  2931   00077A                     u4847:
  2932   00077A  2EE8               	decfsz	wreg,f,c
  2933   00077C  D7FE               	bra	u4847
  2934   00077E  2E1C               	decfsz	??_lcd_animacion_bienvenida^0,f,c
  2935   000780  D7FC               	bra	u4847
  2936   000782  D000               	nop2	
  2937                           
  2938                           ;Laboratorio_5.c: 489: Lcd_Set_Cursor(2, 16);
  2939   000784  0E10               	movlw	16
  2940   000786  6E16               	movwf	Lcd_Set_Cursor@column^0,c
  2941   000788  0E02               	movlw	2
  2942   00078A  EC7E  F00A         	call	_Lcd_Set_Cursor
  2943                           
  2944                           ;Laboratorio_5.c: 490: Lcd_Char(3);
  2945   00078E  0E03               	movlw	3
  2946   000790  ECEA  F004         	call	_Lcd_Char
  2947                           
  2948                           ;Laboratorio_5.c: 491: _delay((unsigned long)((150)*(1000000/4000.0)));
  2949   000794  0E31               	movlw	49
  2950   000796  6E1C               	movwf	??_lcd_animacion_bienvenida^0,c
  2951   000798  0EB2               	movlw	178
  2952   00079A                     u4857:
  2953   00079A  2EE8               	decfsz	wreg,f,c
  2954   00079C  D7FE               	bra	u4857
  2955   00079E  2E1C               	decfsz	??_lcd_animacion_bienvenida^0,f,c
  2956   0007A0  D7FC               	bra	u4857
  2957   0007A2  D000               	nop2	
  2958   0007A4  0100               	movlb	0	; () banked
  2959   0007A6  4B7B               	infsnz	lcd_animacion_bienvenida@i& (0+255),f,b
  2960   0007A8  2B7C               	incf	(lcd_animacion_bienvenida@i+1)& (0+255),f,b
  2961                           
  2962                           ; BSR set to: 0
  2963   0007AA  BF7C               	btfsc	(lcd_animacion_bienvenida@i+1)& (0+255),7,b
  2964   0007AC  D7DB               	goto	l3575
  2965   0007AE  517C               	movf	(lcd_animacion_bienvenida@i+1)& (0+255),w,b
  2966   0007B0  E104               	bnz	u4490
  2967   0007B2  0E03               	movlw	3
  2968   0007B4  5D7B               	subwf	lcd_animacion_bienvenida@i& (0+255),w,b
  2969   0007B6  A0D8               	btfss	status,0,c
  2970   0007B8  D7D5               	goto	l3575
  2971   0007BA                     u4490:
  2972                           
  2973                           ; BSR set to: 0
  2974                           ;Laboratorio_5.c: 492: };Laboratorio_5.c: 494: _delay((unsigned long)((800)*(1000000/400
      +                          0.0)));
  2975   0007BA  0E02               	movlw	2
  2976   0007BC  6E1D               	movwf	(??_lcd_animacion_bienvenida+1)^0,c
  2977   0007BE  0E04               	movlw	4
  2978   0007C0  6E1C               	movwf	??_lcd_animacion_bienvenida^0,c
  2979   0007C2  0EBA               	movlw	186
  2980   0007C4                     u4867:
  2981   0007C4  2EE8               	decfsz	wreg,f,c
  2982   0007C6  D7FE               	bra	u4867
  2983   0007C8  2E1C               	decfsz	??_lcd_animacion_bienvenida^0,f,c
  2984   0007CA  D7FC               	bra	u4867
  2985   0007CC  2E1D               	decfsz	(??_lcd_animacion_bienvenida+1)^0,f,c
  2986   0007CE  D7FA               	bra	u4867
  2987   0007D0  D000               	nop2	
  2988                           
  2989                           ;Laboratorio_5.c: 495: Lcd_Clear();
  2990   0007D2  ECF6  F00A         	call	_Lcd_Clear	;wreg free
  2991                           
  2992                           ;Laboratorio_5.c: 496: inactividad = 0;
  2993   0007D6  0E00               	movlw	0
  2994   0007D8  6E29               	movwf	(_inactividad+1)^0,c
  2995   0007DA  0E00               	movlw	0
  2996   0007DC  6E28               	movwf	_inactividad^0,c
  2997   0007DE  0012               	return		;funcret
  2998   0007E0                     __end_of_lcd_animacion_bienvenida:
  2999                           	callstack 0
  3000                           
  3001 ;; *************** function ___awmod *****************
  3002 ;; Defined at:
  3003 ;;		line 7 in file "C:\Program Files\Microchip\xc8\v2.50\pic\sources\c90\common\awmod.c"
  3004 ;; Parameters:    Size  Location     Type
  3005 ;;  dividend        2   18[COMRAM] int 
  3006 ;;  divisor         2   20[COMRAM] int 
  3007 ;; Auto vars:     Size  Location     Type
  3008 ;;  sign            1   23[COMRAM] unsigned char 
  3009 ;;  counter         1   22[COMRAM] unsigned char 
  3010 ;; Return value:  Size  Location     Type
  3011 ;;                  2   18[COMRAM] int 
  3012 ;; Registers used:
  3013 ;;		wreg, status,2, status,0
  3014 ;; Tracked objects:
  3015 ;;		On entry : 0/0
  3016 ;;		On exit  : 0/0
  3017 ;;		Unchanged: 0/0
  3018 ;; Data sizes:     COMRAM   BANK0   BANK1   BANK2   BANK3   BANK4   BANK5   BANK6   BANK7
  3019 ;;      Params:         4       0       0       0       0       0       0       0       0
  3020 ;;      Locals:         2       0       0       0       0       0       0       0       0
  3021 ;;      Temps:          0       0       0       0       0       0       0       0       0
  3022 ;;      Totals:         6       0       0       0       0       0       0       0       0
  3023 ;;Total ram usage:        6 bytes
  3024 ;; Hardware stack levels used: 1
  3025 ;; Hardware stack levels required when called: 4
  3026 ;; This function calls:
  3027 ;;		Nothing
  3028 ;; This function is called by:
  3029 ;;		_mostrar_conteo
  3030 ;;		_lcd_animacion_bienvenida
  3031 ;; This function uses a non-reentrant model
  3032 ;;
  3033                           
  3034                           	psect	text11
  3035   000F80                     __ptext11:
  3036                           	callstack 0
  3037   000F80                     ___awmod:
  3038                           	callstack 25
  3039                           
  3040                           ;incstack = 0
  3041   000F80  6A18               	clrf	___awmod@sign^0,c
  3042   000F82  AE14               	btfss	(___awmod@dividend+1)^0,7,c
  3043   000F84  D006               	goto	l3443
  3044   000F86  6C13               	negf	___awmod@dividend^0,c
  3045   000F88  1E14               	comf	(___awmod@dividend+1)^0,f,c
  3046   000F8A  B0D8               	btfsc	status,0,c
  3047   000F8C  2A14               	incf	(___awmod@dividend+1)^0,f,c
  3048   000F8E  0E01               	movlw	1
  3049   000F90  6E18               	movwf	___awmod@sign^0,c
  3050   000F92                     l3443:
  3051   000F92  AE16               	btfss	(___awmod@divisor+1)^0,7,c
  3052   000F94  D004               	goto	l3447
  3053   000F96  6C15               	negf	___awmod@divisor^0,c
  3054   000F98  1E16               	comf	(___awmod@divisor+1)^0,f,c
  3055   000F9A  B0D8               	btfsc	status,0,c
  3056   000F9C  2A16               	incf	(___awmod@divisor+1)^0,f,c
  3057   000F9E                     l3447:
  3058   000F9E  5015               	movf	___awmod@divisor^0,w,c
  3059   000FA0  1016               	iorwf	(___awmod@divisor+1)^0,w,c
  3060   000FA2  B4D8               	btfsc	status,2,c
  3061   000FA4  D018               	goto	l3463
  3062   000FA6  0E01               	movlw	1
  3063   000FA8  6E17               	movwf	___awmod@counter^0,c
  3064   000FAA  D004               	goto	l3453
  3065   000FAC                     l3451:
  3066   000FAC  90D8               	bcf	status,0,c
  3067   000FAE  3615               	rlcf	___awmod@divisor^0,f,c
  3068   000FB0  3616               	rlcf	(___awmod@divisor+1)^0,f,c
  3069   000FB2  2A17               	incf	___awmod@counter^0,f,c
  3070   000FB4                     l3453:
  3071   000FB4  AE16               	btfss	(___awmod@divisor+1)^0,7,c
  3072   000FB6  D7FA               	goto	l3451
  3073   000FB8                     u4400:
  3074   000FB8  5015               	movf	___awmod@divisor^0,w,c
  3075   000FBA  5C13               	subwf	___awmod@dividend^0,w,c
  3076   000FBC  5016               	movf	(___awmod@divisor+1)^0,w,c
  3077   000FBE  5814               	subwfb	(___awmod@dividend+1)^0,w,c
  3078   000FC0  A0D8               	btfss	status,0,c
  3079   000FC2  D004               	goto	l3459
  3080   000FC4  5015               	movf	___awmod@divisor^0,w,c
  3081   000FC6  5E13               	subwf	___awmod@dividend^0,f,c
  3082   000FC8  5016               	movf	(___awmod@divisor+1)^0,w,c
  3083   000FCA  5A14               	subwfb	(___awmod@dividend+1)^0,f,c
  3084   000FCC                     l3459:
  3085   000FCC  90D8               	bcf	status,0,c
  3086   000FCE  3216               	rrcf	(___awmod@divisor+1)^0,f,c
  3087   000FD0  3215               	rrcf	___awmod@divisor^0,f,c
  3088   000FD2  2E17               	decfsz	___awmod@counter^0,f,c
  3089   000FD4  D7F1               	goto	u4400
  3090   000FD6                     l3463:
  3091   000FD6  5018               	movf	___awmod@sign^0,w,c
  3092   000FD8  B4D8               	btfsc	status,2,c
  3093   000FDA  D004               	goto	l3467
  3094   000FDC  6C13               	negf	___awmod@dividend^0,c
  3095   000FDE  1E14               	comf	(___awmod@dividend+1)^0,f,c
  3096   000FE0  B0D8               	btfsc	status,0,c
  3097   000FE2  2A14               	incf	(___awmod@dividend+1)^0,f,c
  3098   000FE4                     l3467:
  3099   000FE4  C013  F013         	movff	___awmod@dividend,?___awmod
  3100   000FE8  C014  F014         	movff	___awmod@dividend+1,?___awmod+1
  3101   000FEC  0012               	return		;funcret
  3102   000FEE                     __end_of___awmod:
  3103                           	callstack 0
  3104                           
  3105 ;; *************** function _LCD_CrearCaracter *****************
  3106 ;; Defined at:
  3107 ;;		line 73 in file "lcd.c"
  3108 ;; Parameters:    Size  Location     Type
  3109 ;;  pos             1    wreg     unsigned char 
  3110 ;;  pattern         2   21[COMRAM] PTR const unsigned char 
  3111 ;;		 -> rpg(8), explosion(8), runner2(8), runner1(8), 
  3112 ;;		 -> runner0(8), 
  3113 ;; Auto vars:     Size  Location     Type
  3114 ;;  pos             1   25[COMRAM] unsigned char 
  3115 ;;  i               1   26[COMRAM] unsigned char 
  3116 ;; Return value:  Size  Location     Type
  3117 ;;                  1    wreg      void 
  3118 ;; Registers used:
  3119 ;;		wreg, status,2, status,0, tblptrl, tblptrh, tblptru, prodl, prodh, cstack
  3120 ;; Tracked objects:
  3121 ;;		On entry : 0/0
  3122 ;;		On exit  : 0/0
  3123 ;;		Unchanged: 0/0
  3124 ;; Data sizes:     COMRAM   BANK0   BANK1   BANK2   BANK3   BANK4   BANK5   BANK6   BANK7
  3125 ;;      Params:         2       0       0       0       0       0       0       0       0
  3126 ;;      Locals:         2       0       0       0       0       0       0       0       0
  3127 ;;      Temps:          2       0       0       0       0       0       0       0       0
  3128 ;;      Totals:         6       0       0       0       0       0       0       0       0
  3129 ;;Total ram usage:        6 bytes
  3130 ;; Hardware stack levels used: 1
  3131 ;; Hardware stack levels required when called: 5
  3132 ;; This function calls:
  3133 ;;		_Lcd_Char
  3134 ;;		_Lcd_Cmd
  3135 ;; This function is called by:
  3136 ;;		_lcd_animacion_bienvenida
  3137 ;; This function uses a non-reentrant model
  3138 ;;
  3139                           
  3140                           	psect	text12
  3141   0013F4                     __ptext12:
  3142                           	callstack 0
  3143   0013F4                     _LCD_CrearCaracter:
  3144                           	callstack 24
  3145                           
  3146                           ;incstack = 0
  3147                           ;LCD_CrearCaracter@pos stored from wreg
  3148   0013F4  6E1A               	movwf	LCD_CrearCaracter@pos^0,c
  3149                           
  3150                           ;lcd.c: 74: Lcd_Cmd(0x40 + (pos * 8));
  3151   0013F6  501A               	movf	LCD_CrearCaracter@pos^0,w,c
  3152   0013F8  0D08               	mullw	8
  3153   0013FA  50F3               	movf	243,w,c
  3154   0013FC  0F40               	addlw	64
  3155   0013FE  EC53  F005         	call	_Lcd_Cmd
  3156                           
  3157                           ;lcd.c: 75: for (char i = 0; i < 8; i++) {
  3158   001402  6A1B               	clrf	LCD_CrearCaracter@i^0,c
  3159   001404                     l3429:
  3160                           
  3161                           ;lcd.c: 76: Lcd_Char(pattern[i]);
  3162   001404  501B               	movf	LCD_CrearCaracter@i^0,w,c
  3163   001406  2416               	addwf	LCD_CrearCaracter@pattern^0,w,c
  3164   001408  6E18               	movwf	??_LCD_CrearCaracter^0,c
  3165   00140A  0E00               	movlw	0
  3166   00140C  2017               	addwfc	(LCD_CrearCaracter@pattern+1)^0,w,c
  3167   00140E  6E19               	movwf	(??_LCD_CrearCaracter+1)^0,c
  3168   001410  C018  FFF6         	movff	??_LCD_CrearCaracter,tblptrl
  3169   001414  C019  FFF7         	movff	??_LCD_CrearCaracter+1,tblptrh
  3170   001418                     	if	0	;tblptru may be non-zero
  3171   001418                     	endif
  3172   001418                     	if	0	;tblptru may be non-zero
  3173   001418                     	endif
  3174   001418  0008               	tblrd		*
  3175   00141A  50F5               	movf	tablat,w,c
  3176   00141C  ECEA  F004         	call	_Lcd_Char
  3177   001420  2A1B               	incf	LCD_CrearCaracter@i^0,f,c
  3178   001422  0E07               	movlw	7
  3179   001424  641B               	cpfsgt	LCD_CrearCaracter@i^0,c
  3180   001426  D7EE               	goto	l3429
  3181   001428  0012               	return	
  3182   00142A                     __end_of_LCD_CrearCaracter:
  3183                           	callstack 0
  3184                           
  3185 ;; *************** function _inicializar_hardware *****************
  3186 ;; Defined at:
  3187 ;;		line 224 in file "Laboratorio_5.c"
  3188 ;; Parameters:    Size  Location     Type
  3189 ;;		None
  3190 ;; Auto vars:     Size  Location     Type
  3191 ;;		None
  3192 ;; Return value:  Size  Location     Type
  3193 ;;                  1    wreg      void 
  3194 ;; Registers used:
  3195 ;;		wreg, status,2
  3196 ;; Tracked objects:
  3197 ;;		On entry : 0/0
  3198 ;;		On exit  : 0/0
  3199 ;;		Unchanged: 0/0
  3200 ;; Data sizes:     COMRAM   BANK0   BANK1   BANK2   BANK3   BANK4   BANK5   BANK6   BANK7
  3201 ;;      Params:         0       0       0       0       0       0       0       0       0
  3202 ;;      Locals:         0       0       0       0       0       0       0       0       0
  3203 ;;      Temps:          2       0       0       0       0       0       0       0       0
  3204 ;;      Totals:         2       0       0       0       0       0       0       0       0
  3205 ;;Total ram usage:        2 bytes
  3206 ;; Hardware stack levels used: 1
  3207 ;; Hardware stack levels required when called: 4
  3208 ;; This function calls:
  3209 ;;		Nothing
  3210 ;; This function is called by:
  3211 ;;		_main
  3212 ;; This function uses a non-reentrant model
  3213 ;;
  3214                           
  3215                           	psect	text13
  3216   000E20                     __ptext13:
  3217                           	callstack 0
  3218   000E20                     _inicializar_hardware:
  3219                           	callstack 26
  3220                           
  3221                           ;Laboratorio_5.c: 225: TRISD = 0; LATD = 0;
  3222                           
  3223                           ;incstack = 0
  3224   000E20  6A95               	clrf	149,c	;volatile
  3225   000E22  6A8C               	clrf	140,c	;volatile
  3226                           
  3227                           ;Laboratorio_5.c: 226: TRISE = 0; LATE = 0;
  3228   000E24  6A96               	clrf	150,c	;volatile
  3229   000E26  6A8D               	clrf	141,c	;volatile
  3230                           
  3231                           ;Laboratorio_5.c: 227: TRISC2=0; LATC2=0;
  3232   000E28  9494               	bcf	3988,2,c	;volatile
  3233   000E2A  948B               	bcf	3979,2,c	;volatile
  3234                           
  3235                           ;Laboratorio_5.c: 228: TRISC0=1;
  3236   000E2C  8094               	bsf	3988,0,c	;volatile
  3237                           
  3238                           ;Laboratorio_5.c: 230: TRISA = 0b00000001;
  3239   000E2E  0E01               	movlw	1
  3240   000E30  6E92               	movwf	146,c	;volatile
  3241                           
  3242                           ;Laboratorio_5.c: 231: TRISB = 0b11110000;
  3243   000E32  0EF0               	movlw	240
  3244   000E34  6E93               	movwf	147,c	;volatile
  3245                           
  3246                           ;Laboratorio_5.c: 232: LATB = 0b00001111;
  3247   000E36  0E0F               	movlw	15
  3248   000E38  6E8A               	movwf	138,c	;volatile
  3249                           
  3250                           ;Laboratorio_5.c: 233: RBPU = 0;
  3251   000E3A  9EF1               	bcf	4081,7,c	;volatile
  3252                           
  3253                           ;Laboratorio_5.c: 235: INT2IE = 0;
  3254   000E3C  98F0               	bcf	4080,4,c	;volatile
  3255                           
  3256                           ;Laboratorio_5.c: 236: INT2IF = 0;
  3257   000E3E  92F0               	bcf	4080,1,c	;volatile
  3258                           
  3259                           ;Laboratorio_5.c: 240: TXSTA=0b00100100;
  3260   000E40  0E24               	movlw	36
  3261   000E42  6EAC               	movwf	172,c	;volatile
  3262                           
  3263                           ;Laboratorio_5.c: 241: RCSTA=0b10010000;
  3264   000E44  0E90               	movlw	144
  3265   000E46  6EAB               	movwf	171,c	;volatile
  3266                           
  3267                           ;Laboratorio_5.c: 242: BAUDCON=0b00001000;
  3268   000E48  0E08               	movlw	8
  3269   000E4A  6EB8               	movwf	184,c	;volatile
  3270                           
  3271                           ;Laboratorio_5.c: 243: SPBRG=25;
  3272   000E4C  0E19               	movlw	25
  3273   000E4E  6EAF               	movwf	175,c	;volatile
  3274                           
  3275                           ;Laboratorio_5.c: 245: RCIE=1;
  3276   000E50  8A9D               	bsf	3997,5,c	;volatile
  3277                           
  3278                           ;Laboratorio_5.c: 246: TXIE=0;
  3279   000E52  989D               	bcf	3997,4,c	;volatile
  3280                           
  3281                           ;Laboratorio_5.c: 247: RCIF=0;
  3282   000E54  9A9E               	bcf	3998,5,c	;volatile
  3283                           
  3284                           ;Laboratorio_5.c: 248: TXIF=0;
  3285   000E56  989E               	bcf	3998,4,c	;volatile
  3286                           
  3287                           ;Laboratorio_5.c: 252: ADCON0 = 0b00000001;
  3288   000E58  0E01               	movlw	1
  3289   000E5A  6EC2               	movwf	194,c	;volatile
  3290                           
  3291                           ;Laboratorio_5.c: 253: ADCON1 = 0b00001110;
  3292   000E5C  0E0E               	movlw	14
  3293   000E5E  6EC1               	movwf	193,c	;volatile
  3294                           
  3295                           ;Laboratorio_5.c: 254: ADCON2= 0b00001000;
  3296   000E60  0E08               	movlw	8
  3297   000E62  6EC0               	movwf	192,c	;volatile
  3298                           
  3299                           ;Laboratorio_5.c: 257: _delay((unsigned long)((1000)*(1000000/4000.0)));
  3300   000E64  0E02               	movlw	2
  3301   000E66  6E14               	movwf	(??_inicializar_hardware+1)^0,c
  3302   000E68  0E45               	movlw	69
  3303   000E6A  6E13               	movwf	??_inicializar_hardware^0,c
  3304   000E6C  0EAA               	movlw	170
  3305   000E6E                     u4877:
  3306   000E6E  2EE8               	decfsz	wreg,f,c
  3307   000E70  D7FE               	bra	u4877
  3308   000E72  2E13               	decfsz	??_inicializar_hardware^0,f,c
  3309   000E74  D7FC               	bra	u4877
  3310   000E76  2E14               	decfsz	(??_inicializar_hardware+1)^0,f,c
  3311   000E78  D7FA               	bra	u4877
  3312                           
  3313                           ;Laboratorio_5.c: 260: TRISC0 = 1;
  3314   000E7A  8094               	bsf	3988,0,c	;volatile
  3315                           
  3316                           ;Laboratorio_5.c: 261: T0CON = 0b00000001;
  3317   000E7C  0E01               	movlw	1
  3318   000E7E  6ED5               	movwf	213,c	;volatile
  3319                           
  3320                           ;Laboratorio_5.c: 262: TMR0 = 3036;
  3321   000E80  0E0B               	movlw	11
  3322   000E82  6ED7               	movwf	215,c	;volatile
  3323   000E84  0EDC               	movlw	220
  3324   000E86  6ED6               	movwf	214,c	;volatile
  3325                           
  3326                           ;Laboratorio_5.c: 263: TMR0IF = 0;
  3327   000E88  94F2               	bcf	4082,2,c	;volatile
  3328                           
  3329                           ;Laboratorio_5.c: 264: TMR0IE = 1;
  3330   000E8A  8AF2               	bsf	4082,5,c	;volatile
  3331                           
  3332                           ;Laboratorio_5.c: 266: GIE = 1;
  3333   000E8C  8EF2               	bsf	4082,7,c	;volatile
  3334                           
  3335                           ;Laboratorio_5.c: 267: PEIE = 1;
  3336   000E8E  8CF2               	bsf	4082,6,c	;volatile
  3337                           
  3338                           ;Laboratorio_5.c: 268: RBIF = 0;
  3339   000E90  90F2               	bcf	4082,0,c	;volatile
  3340                           
  3341                           ;Laboratorio_5.c: 269: RBIE = 1;
  3342   000E92  86F2               	bsf	4082,3,c	;volatile
  3343                           
  3344                           ;Laboratorio_5.c: 270: TMR0ON = 1;
  3345   000E94  8ED5               	bsf	4053,7,c	;volatile
  3346                           
  3347                           ;Laboratorio_5.c: 271: lcd_backlight = 1;
  3348   000E96  0E01               	movlw	1
  3349   000E98  6E35               	movwf	_lcd_backlight^0,c
  3350   000E9A  0012               	return		;funcret
  3351   000E9C                     __end_of_inicializar_hardware:
  3352                           	callstack 0
  3353                           
  3354 ;; *************** function _emergencia *****************
  3355 ;; Defined at:
  3356 ;;		line 439 in file "Laboratorio_5.c"
  3357 ;; Parameters:    Size  Location     Type
  3358 ;;		None
  3359 ;; Auto vars:     Size  Location     Type
  3360 ;;		None
  3361 ;; Return value:  Size  Location     Type
  3362 ;;                  1    wreg      void 
  3363 ;; Registers used:
  3364 ;;		wreg, status,2, status,0, tblptrl, tblptrh, tblptru, cstack
  3365 ;; Tracked objects:
  3366 ;;		On entry : 0/0
  3367 ;;		On exit  : 0/0
  3368 ;;		Unchanged: 0/0
  3369 ;; Data sizes:     COMRAM   BANK0   BANK1   BANK2   BANK3   BANK4   BANK5   BANK6   BANK7
  3370 ;;      Params:         0       0       0       0       0       0       0       0       0
  3371 ;;      Locals:         0       0       0       0       0       0       0       0       0
  3372 ;;      Temps:          0       0       0       0       0       0       0       0       0
  3373 ;;      Totals:         0       0       0       0       0       0       0       0       0
  3374 ;;Total ram usage:        0 bytes
  3375 ;; Hardware stack levels used: 1
  3376 ;; Hardware stack levels required when called: 6
  3377 ;; This function calls:
  3378 ;;		_Lcd_Clear
  3379 ;;		_Lcd_Set_Cursor
  3380 ;;		_Lcd_String
  3381 ;; This function is called by:
  3382 ;;		_main
  3383 ;; This function uses a non-reentrant model
  3384 ;;
  3385                           
  3386                           	psect	text14
  3387   0012F6                     __ptext14:
  3388                           	callstack 0
  3389   0012F6                     _emergencia:
  3390                           	callstack 24
  3391                           
  3392                           ;Laboratorio_5.c: 440: estado = 4;
  3393                           
  3394                           ;incstack = 0
  3395   0012F6  0E00               	movlw	0
  3396   0012F8  6E31               	movwf	(_estado+1)^0,c
  3397   0012FA  0E04               	movlw	4
  3398   0012FC  6E30               	movwf	_estado^0,c
  3399                           
  3400                           ;Laboratorio_5.c: 441: Lcd_Clear();
  3401   0012FE  ECF6  F00A         	call	_Lcd_Clear	;wreg free
  3402                           
  3403                           ;Laboratorio_5.c: 442: Lcd_Set_Cursor(1, 1);
  3404   001302  0E01               	movlw	1
  3405   001304  6E16               	movwf	Lcd_Set_Cursor@column^0,c
  3406   001306  0E01               	movlw	1
  3407   001308  EC7E  F00A         	call	_Lcd_Set_Cursor
  3408                           
  3409                           ;Laboratorio_5.c: 443: Lcd_String("! EMERGENCIA !");
  3410   00130C  0EA4               	movlw	low STR_12
  3411   00130E  6E16               	movwf	Lcd_String@str^0,c
  3412   001310  0E7F               	movlw	high STR_12
  3413   001312  6E17               	movwf	(Lcd_String@str+1)^0,c
  3414   001314  EC2B  F00A         	call	_Lcd_String	;wreg free
  3415                           
  3416                           ;Laboratorio_5.c: 444: Lcd_Set_Cursor(2, 1);
  3417   001318  0E01               	movlw	1
  3418   00131A  6E16               	movwf	Lcd_Set_Cursor@column^0,c
  3419   00131C  0E02               	movlw	2
  3420   00131E  EC7E  F00A         	call	_Lcd_Set_Cursor
  3421                           
  3422                           ;Laboratorio_5.c: 445: Lcd_String("Reset manual");
  3423   001322  0ED1               	movlw	low STR_13
  3424   001324  6E16               	movwf	Lcd_String@str^0,c
  3425   001326  0E7F               	movlw	high STR_13
  3426   001328  6E17               	movwf	(Lcd_String@str+1)^0,c
  3427   00132A  EC2B  F00A         	call	_Lcd_String	;wreg free
  3428                           
  3429                           ;Laboratorio_5.c: 446: LATE = 0b00000001;
  3430   00132E  0E01               	movlw	1
  3431   001330  6E8D               	movwf	141,c	;volatile
  3432                           
  3433                           ;Laboratorio_5.c: 447: LATC2 = 0;
  3434   001332  948B               	bcf	3979,2,c	;volatile
  3435                           
  3436                           ;Laboratorio_5.c: 448: TMR0ON = 0;
  3437   001334  9ED5               	bcf	4053,7,c	;volatile
  3438   001336                     l355:
  3439   001336  D7FF               	goto	l355
  3440   001338                     __end_of_emergencia:
  3441                           	callstack 0
  3442                           
  3443 ;; *************** function _Lcd_String *****************
  3444 ;; Defined at:
  3445 ;;		line 50 in file "lcd.c"
  3446 ;; Parameters:    Size  Location     Type
  3447 ;;  str             2   21[COMRAM] PTR const unsigned char 
  3448 ;;		 -> STR_16(17), STR_15(17), STR_14(22), STR_13(13), 
  3449 ;;		 -> STR_12(15), STR_11(12), STR_10(17), STR_9(15), 
  3450 ;;		 -> STR_8(11), STR_7(10), STR_1(15), 
  3451 ;; Auto vars:     Size  Location     Type
  3452 ;;		None
  3453 ;; Return value:  Size  Location     Type
  3454 ;;                  1    wreg      void 
  3455 ;; Registers used:
  3456 ;;		wreg, status,2, status,0, tblptrl, tblptrh, tblptru, cstack
  3457 ;; Tracked objects:
  3458 ;;		On entry : 0/0
  3459 ;;		On exit  : 0/0
  3460 ;;		Unchanged: 0/0
  3461 ;; Data sizes:     COMRAM   BANK0   BANK1   BANK2   BANK3   BANK4   BANK5   BANK6   BANK7
  3462 ;;      Params:         2       0       0       0       0       0       0       0       0
  3463 ;;      Locals:         0       0       0       0       0       0       0       0       0
  3464 ;;      Temps:          0       0       0       0       0       0       0       0       0
  3465 ;;      Totals:         2       0       0       0       0       0       0       0       0
  3466 ;;Total ram usage:        2 bytes
  3467 ;; Hardware stack levels used: 1
  3468 ;; Hardware stack levels required when called: 5
  3469 ;; This function calls:
  3470 ;;		_Lcd_Char
  3471 ;; This function is called by:
  3472 ;;		_main
  3473 ;;		_mostrar_conteo
  3474 ;;		_mostrar_valor
  3475 ;;		_mostrar_completado
  3476 ;;		_emergencia
  3477 ;;		_lcd_animacion_bienvenida
  3478 ;;		_mensaje_reset
  3479 ;; This function uses a non-reentrant model
  3480 ;;
  3481                           
  3482                           	psect	text15
  3483   001456                     __ptext15:
  3484                           	callstack 0
  3485   001456                     _Lcd_String:
  3486                           	callstack 24
  3487                           
  3488                           ;lcd.c: 51: while (*str) {
  3489                           
  3490                           ;incstack = 0
  3491   001456  D00A               	goto	l3409
  3492   001458                     l3405:
  3493                           
  3494                           ;lcd.c: 52: Lcd_Char(*str++);
  3495   001458  C016  FFF6         	movff	Lcd_String@str,tblptrl
  3496   00145C  C017  FFF7         	movff	Lcd_String@str+1,tblptrh
  3497   001460                     	if	0	;tblptru may be non-zero
  3498   001460                     	endif
  3499   001460                     	if	0	;tblptru may be non-zero
  3500   001460                     	endif
  3501   001460  0008               	tblrd		*
  3502   001462  50F5               	movf	tablat,w,c
  3503   001464  ECEA  F004         	call	_Lcd_Char
  3504   001468  4A16               	infsnz	Lcd_String@str^0,f,c
  3505   00146A  2A17               	incf	(Lcd_String@str+1)^0,f,c
  3506   00146C                     l3409:
  3507   00146C  C016  FFF6         	movff	Lcd_String@str,tblptrl
  3508   001470  C017  FFF7         	movff	Lcd_String@str+1,tblptrh
  3509   001474                     	if	0	;tblptru may be non-zero
  3510   001474                     	endif
  3511   001474                     	if	0	;tblptru may be non-zero
  3512   001474                     	endif
  3513   001474  0008               	tblrd		*
  3514   001476  50F5               	movf	tablat,w,c
  3515   001478  0900               	iorlw	0
  3516   00147A  B4D8               	btfsc	status,2,c
  3517   00147C  0012               	return	
  3518   00147E  D7EC               	goto	l3405
  3519   001480                     __end_of_Lcd_String:
  3520                           	callstack 0
  3521                           
  3522 ;; *************** function _Lcd_Char *****************
  3523 ;; Defined at:
  3524 ;;		line 35 in file "lcd.c"
  3525 ;; Parameters:    Size  Location     Type
  3526 ;;  data            1    wreg     unsigned char 
  3527 ;; Auto vars:     Size  Location     Type
  3528 ;;  data            1   20[COMRAM] unsigned char 
  3529 ;; Return value:  Size  Location     Type
  3530 ;;                  1    wreg      void 
  3531 ;; Registers used:
  3532 ;;		wreg, status,2, status,0
  3533 ;; Tracked objects:
  3534 ;;		On entry : 0/0
  3535 ;;		On exit  : 0/0
  3536 ;;		Unchanged: 0/0
  3537 ;; Data sizes:     COMRAM   BANK0   BANK1   BANK2   BANK3   BANK4   BANK5   BANK6   BANK7
  3538 ;;      Params:         0       0       0       0       0       0       0       0       0
  3539 ;;      Locals:         1       0       0       0       0       0       0       0       0
  3540 ;;      Temps:          2       0       0       0       0       0       0       0       0
  3541 ;;      Totals:         3       0       0       0       0       0       0       0       0
  3542 ;;Total ram usage:        3 bytes
  3543 ;; Hardware stack levels used: 1
  3544 ;; Hardware stack levels required when called: 4
  3545 ;; This function calls:
  3546 ;;		Nothing
  3547 ;; This function is called by:
  3548 ;;		_Lcd_String
  3549 ;;		_LCD_CrearCaracter
  3550 ;;		_main
  3551 ;;		_mostrar_conteo
  3552 ;;		_lcd_animacion_bienvenida
  3553 ;; This function uses a non-reentrant model
  3554 ;;
  3555                           
  3556                           	psect	text16
  3557   0009D4                     __ptext16:
  3558                           	callstack 0
  3559   0009D4                     _Lcd_Char:
  3560                           	callstack 24
  3561                           
  3562                           ;incstack = 0
  3563                           ;Lcd_Char@data stored from wreg
  3564   0009D4  6E15               	movwf	Lcd_Char@data^0,c
  3565                           
  3566                           ;lcd.c: 36: LATA3 = 1;
  3567   0009D6  8689               	bsf	3977,3,c	;volatile
  3568                           
  3569                           ;lcd.c: 37: LATD4 = (data >> 4) & 1;
  3570   0009D8  C015  F013         	movff	Lcd_Char@data,??_Lcd_Char
  3571   0009DC  3A13               	swapf	??_Lcd_Char^0,f,c
  3572   0009DE  0E0F               	movlw	15
  3573   0009E0  1613               	andwf	??_Lcd_Char^0,f,c
  3574   0009E2  3013               	rrcf	??_Lcd_Char^0,w,c
  3575   0009E4  A0D8               	btfss	status,0,c
  3576   0009E6  D002               	goto	u4150
  3577   0009E8  888C               	bsf	3980,4,c	;volatile
  3578   0009EA  D001               	goto	u4165
  3579   0009EC                     u4150:
  3580   0009EC  988C               	bcf	3980,4,c	;volatile
  3581   0009EE                     u4165:
  3582                           
  3583                           ;lcd.c: 38: LATD5 = (data >> 5) & 1;
  3584   0009EE  C015  F013         	movff	Lcd_Char@data,??_Lcd_Char
  3585   0009F2  0E05               	movlw	5
  3586   0009F4  6E14               	movwf	(??_Lcd_Char+1)^0,c
  3587   0009F6                     u4175:
  3588   0009F6  90D8               	bcf	status,0,c
  3589   0009F8  3213               	rrcf	??_Lcd_Char^0,f,c
  3590   0009FA  2E14               	decfsz	(??_Lcd_Char+1)^0,f,c
  3591   0009FC  D7FC               	goto	u4175
  3592   0009FE  3013               	rrcf	??_Lcd_Char^0,w,c
  3593   000A00  A0D8               	btfss	status,0,c
  3594   000A02  D002               	goto	u4180
  3595   000A04  8A8C               	bsf	3980,5,c	;volatile
  3596   000A06  D001               	goto	u4195
  3597   000A08                     u4180:
  3598   000A08  9A8C               	bcf	3980,5,c	;volatile
  3599   000A0A                     u4195:
  3600                           
  3601                           ;lcd.c: 39: LATD6 = (data >> 6) & 1;
  3602   000A0A  C015  F013         	movff	Lcd_Char@data,??_Lcd_Char
  3603   000A0E  0E06               	movlw	6
  3604   000A10  6E14               	movwf	(??_Lcd_Char+1)^0,c
  3605   000A12                     u4205:
  3606   000A12  90D8               	bcf	status,0,c
  3607   000A14  3213               	rrcf	??_Lcd_Char^0,f,c
  3608   000A16  2E14               	decfsz	(??_Lcd_Char+1)^0,f,c
  3609   000A18  D7FC               	goto	u4205
  3610   000A1A  3013               	rrcf	??_Lcd_Char^0,w,c
  3611   000A1C  A0D8               	btfss	status,0,c
  3612   000A1E  D002               	goto	u4210
  3613   000A20  8C8C               	bsf	3980,6,c	;volatile
  3614   000A22  D001               	goto	u4225
  3615   000A24                     u4210:
  3616   000A24  9C8C               	bcf	3980,6,c	;volatile
  3617   000A26                     u4225:
  3618                           
  3619                           ;lcd.c: 40: LATD7 = (data >> 7) & 1;
  3620   000A26  6A13               	clrf	??_Lcd_Char^0,c
  3621   000A28  AE15               	btfss	Lcd_Char@data^0,7,c
  3622   000A2A  D001               	bra	u4235
  3623   000A2C  2A13               	incf	??_Lcd_Char^0,f,c
  3624   000A2E                     u4235:
  3625   000A2E  3013               	rrcf	??_Lcd_Char^0,w,c
  3626   000A30  A0D8               	btfss	status,0,c
  3627   000A32  D002               	goto	u4240
  3628   000A34  8E8C               	bsf	3980,7,c	;volatile
  3629   000A36  D001               	goto	u4255
  3630   000A38                     u4240:
  3631   000A38  9E8C               	bcf	3980,7,c	;volatile
  3632   000A3A                     u4255:
  3633                           
  3634                           ;lcd.c: 41: LATA4 = 1; _delay((unsigned long)((200)*(1000000/4000000.0))); LATA4 = 0;
  3635   000A3A  8889               	bsf	3977,4,c	;volatile
  3636   000A3C  0E10               	movlw	16
  3637   000A3E                     u4887:
  3638   000A3E  2EE8               	decfsz	wreg,f,c
  3639   000A40  D7FE               	bra	u4887
  3640   000A42  D000               	nop2	
  3641   000A44  9889               	bcf	3977,4,c	;volatile
  3642                           
  3643                           ;lcd.c: 43: LATD4 = data & 1;
  3644   000A46  A015               	btfss	Lcd_Char@data^0,0,c
  3645   000A48  D002               	goto	u4260
  3646   000A4A  888C               	bsf	3980,4,c	;volatile
  3647   000A4C  D001               	goto	u4275
  3648   000A4E                     u4260:
  3649   000A4E  988C               	bcf	3980,4,c	;volatile
  3650   000A50                     u4275:
  3651                           
  3652                           ;lcd.c: 44: LATD5 = (data >> 1) & 1;
  3653   000A50  C015  F013         	movff	Lcd_Char@data,??_Lcd_Char
  3654   000A54  90D8               	bcf	status,0,c
  3655   000A56  3213               	rrcf	??_Lcd_Char^0,f,c
  3656   000A58  3013               	rrcf	??_Lcd_Char^0,w,c
  3657   000A5A  A0D8               	btfss	status,0,c
  3658   000A5C  D002               	goto	u4280
  3659   000A5E  8A8C               	bsf	3980,5,c	;volatile
  3660   000A60  D001               	goto	u4295
  3661   000A62                     u4280:
  3662   000A62  9A8C               	bcf	3980,5,c	;volatile
  3663   000A64                     u4295:
  3664                           
  3665                           ;lcd.c: 45: LATD6 = (data >> 2) & 1;
  3666   000A64  C015  F013         	movff	Lcd_Char@data,??_Lcd_Char
  3667   000A68  90D8               	bcf	status,0,c
  3668   000A6A  3213               	rrcf	??_Lcd_Char^0,f,c
  3669   000A6C  90D8               	bcf	status,0,c
  3670   000A6E  3213               	rrcf	??_Lcd_Char^0,f,c
  3671   000A70  3013               	rrcf	??_Lcd_Char^0,w,c
  3672   000A72  A0D8               	btfss	status,0,c
  3673   000A74  D002               	goto	u4300
  3674   000A76  8C8C               	bsf	3980,6,c	;volatile
  3675   000A78  D001               	goto	u4315
  3676   000A7A                     u4300:
  3677   000A7A  9C8C               	bcf	3980,6,c	;volatile
  3678   000A7C                     u4315:
  3679                           
  3680                           ;lcd.c: 46: LATD7 = (data >> 3) & 1;
  3681   000A7C  C015  F013         	movff	Lcd_Char@data,??_Lcd_Char
  3682   000A80  90D8               	bcf	status,0,c
  3683   000A82  3213               	rrcf	??_Lcd_Char^0,f,c
  3684   000A84  90D8               	bcf	status,0,c
  3685   000A86  3213               	rrcf	??_Lcd_Char^0,f,c
  3686   000A88  90D8               	bcf	status,0,c
  3687   000A8A  3213               	rrcf	??_Lcd_Char^0,f,c
  3688   000A8C  3013               	rrcf	??_Lcd_Char^0,w,c
  3689   000A8E  A0D8               	btfss	status,0,c
  3690   000A90  D002               	goto	u4320
  3691   000A92  8E8C               	bsf	3980,7,c	;volatile
  3692   000A94  D001               	goto	u4335
  3693   000A96                     u4320:
  3694   000A96  9E8C               	bcf	3980,7,c	;volatile
  3695   000A98                     u4335:
  3696                           
  3697                           ;lcd.c: 47: LATA4 = 1; _delay((unsigned long)((200)*(1000000/4000000.0))); LATA4 = 0;
  3698   000A98  8889               	bsf	3977,4,c	;volatile
  3699   000A9A  0E10               	movlw	16
  3700   000A9C                     u4897:
  3701   000A9C  2EE8               	decfsz	wreg,f,c
  3702   000A9E  D7FE               	bra	u4897
  3703   000AA0  D000               	nop2	
  3704   000AA2  9889               	bcf	3977,4,c	;volatile
  3705   000AA4  0012               	return		;funcret
  3706   000AA6                     __end_of_Lcd_Char:
  3707                           	callstack 0
  3708                           
  3709 ;; *************** function _Lcd_Set_Cursor *****************
  3710 ;; Defined at:
  3711 ;;		line 56 in file "lcd.c"
  3712 ;; Parameters:    Size  Location     Type
  3713 ;;  row             1    wreg     unsigned char 
  3714 ;;  column          1   21[COMRAM] unsigned char 
  3715 ;; Auto vars:     Size  Location     Type
  3716 ;;  row             1   22[COMRAM] unsigned char 
  3717 ;;  pos             1   23[COMRAM] unsigned char 
  3718 ;; Return value:  Size  Location     Type
  3719 ;;                  1    wreg      void 
  3720 ;; Registers used:
  3721 ;;		wreg, status,2, status,0, cstack
  3722 ;; Tracked objects:
  3723 ;;		On entry : 0/0
  3724 ;;		On exit  : 0/0
  3725 ;;		Unchanged: 0/0
  3726 ;; Data sizes:     COMRAM   BANK0   BANK1   BANK2   BANK3   BANK4   BANK5   BANK6   BANK7
  3727 ;;      Params:         1       0       0       0       0       0       0       0       0
  3728 ;;      Locals:         4       0       0       0       0       0       0       0       0
  3729 ;;      Temps:          0       0       0       0       0       0       0       0       0
  3730 ;;      Totals:         5       0       0       0       0       0       0       0       0
  3731 ;;Total ram usage:        5 bytes
  3732 ;; Hardware stack levels used: 1
  3733 ;; Hardware stack levels required when called: 5
  3734 ;; This function calls:
  3735 ;;		_Lcd_Cmd
  3736 ;; This function is called by:
  3737 ;;		_main
  3738 ;;		_mostrar_conteo
  3739 ;;		_mostrar_valor
  3740 ;;		_mostrar_completado
  3741 ;;		_emergencia
  3742 ;;		_lcd_animacion_bienvenida
  3743 ;;		_mensaje_reset
  3744 ;; This function uses a non-reentrant model
  3745 ;;
  3746                           
  3747                           	psect	text17
  3748   0014FC                     __ptext17:
  3749                           	callstack 0
  3750   0014FC                     _Lcd_Set_Cursor:
  3751                           	callstack 24
  3752                           
  3753                           ;incstack = 0
  3754                           ;Lcd_Set_Cursor@row stored from wreg
  3755   0014FC  6E17               	movwf	Lcd_Set_Cursor@row^0,c
  3756                           
  3757                           ;lcd.c: 57: char pos = (row == 1) ? 0x80 + (column - 1) : 0xC0 + (column - 1);
  3758   0014FE  0417               	decf	Lcd_Set_Cursor@row^0,w,c
  3759   001500  B4D8               	btfsc	status,2,c
  3760   001502  D002               	goto	l3415
  3761   001504  0EBF               	movlw	191
  3762   001506  D001               	goto	L1
  3763   001508                     l3415:
  3764   001508  0E7F               	movlw	127
  3765   00150A                     L1:
  3766   00150A  2416               	addwf	Lcd_Set_Cursor@column^0,w,c
  3767   00150C  6E19               	movwf	_Lcd_Set_Cursor$169^0,c
  3768   00150E  6A1A               	clrf	(_Lcd_Set_Cursor$169+1)^0,c
  3769   001510  0E00               	movlw	0
  3770   001512  221A               	addwfc	(_Lcd_Set_Cursor$169+1)^0,f,c
  3771   001514  C019  F018         	movff	_Lcd_Set_Cursor$169,Lcd_Set_Cursor@pos
  3772                           
  3773                           ;lcd.c: 58: Lcd_Cmd(pos);
  3774   001518  5018               	movf	Lcd_Set_Cursor@pos^0,w,c
  3775   00151A  EC53  F005         	call	_Lcd_Cmd
  3776   00151E  0012               	return		;funcret
  3777   001520                     __end_of_Lcd_Set_Cursor:
  3778                           	callstack 0
  3779                           
  3780 ;; *************** function _beep_largo *****************
  3781 ;; Defined at:
  3782 ;;		line 548 in file "Laboratorio_5.c"
  3783 ;; Parameters:    Size  Location     Type
  3784 ;;		None
  3785 ;; Auto vars:     Size  Location     Type
  3786 ;;		None
  3787 ;; Return value:  Size  Location     Type
  3788 ;;                  1    wreg      void 
  3789 ;; Registers used:
  3790 ;;		wreg
  3791 ;; Tracked objects:
  3792 ;;		On entry : 0/0
  3793 ;;		On exit  : 0/0
  3794 ;;		Unchanged: 0/0
  3795 ;; Data sizes:     COMRAM   BANK0   BANK1   BANK2   BANK3   BANK4   BANK5   BANK6   BANK7
  3796 ;;      Params:         0       0       0       0       0       0       0       0       0
  3797 ;;      Locals:         0       0       0       0       0       0       0       0       0
  3798 ;;      Temps:          1       0       0       0       0       0       0       0       0
  3799 ;;      Totals:         1       0       0       0       0       0       0       0       0
  3800 ;;Total ram usage:        1 bytes
  3801 ;; Hardware stack levels used: 1
  3802 ;; Hardware stack levels required when called: 4
  3803 ;; This function calls:
  3804 ;;		Nothing
  3805 ;; This function is called by:
  3806 ;;		_main
  3807 ;; This function uses a non-reentrant model
  3808 ;;
  3809                           
  3810                           	psect	text18
  3811   00159C                     __ptext18:
  3812                           	callstack 0
  3813   00159C                     _beep_largo:
  3814                           	callstack 26
  3815                           
  3816                           ;Laboratorio_5.c: 549: LATA2 = 1;
  3817                           
  3818                           ;incstack = 0
  3819   00159C  8489               	bsf	3977,2,c	;volatile
  3820                           
  3821                           ;Laboratorio_5.c: 550: _delay((unsigned long)((500)*(1000000/4000.0)));
  3822   00159E  0EA3               	movlw	163
  3823   0015A0  6E13               	movwf	??_beep_largo^0,c
  3824   0015A2  0E55               	movlw	85
  3825   0015A4                     u4907:
  3826   0015A4  2EE8               	decfsz	wreg,f,c
  3827   0015A6  D7FE               	bra	u4907
  3828   0015A8  2E13               	decfsz	??_beep_largo^0,f,c
  3829   0015AA  D7FC               	bra	u4907
  3830   0015AC  0000               	nop	
  3831                           
  3832                           ;Laboratorio_5.c: 551: LATA2 = 0;
  3833   0015AE  9489               	bcf	3977,2,c	;volatile
  3834   0015B0  0012               	return		;funcret
  3835   0015B2                     __end_of_beep_largo:
  3836                           	callstack 0
  3837                           
  3838 ;; *************** function _beep_corto *****************
  3839 ;; Defined at:
  3840 ;;		line 542 in file "Laboratorio_5.c"
  3841 ;; Parameters:    Size  Location     Type
  3842 ;;		None
  3843 ;; Auto vars:     Size  Location     Type
  3844 ;;		None
  3845 ;; Return value:  Size  Location     Type
  3846 ;;                  1    wreg      void 
  3847 ;; Registers used:
  3848 ;;		wreg
  3849 ;; Tracked objects:
  3850 ;;		On entry : 0/0
  3851 ;;		On exit  : 0/0
  3852 ;;		Unchanged: 0/0
  3853 ;; Data sizes:     COMRAM   BANK0   BANK1   BANK2   BANK3   BANK4   BANK5   BANK6   BANK7
  3854 ;;      Params:         0       0       0       0       0       0       0       0       0
  3855 ;;      Locals:         0       0       0       0       0       0       0       0       0
  3856 ;;      Temps:          1       0       0       0       0       0       0       0       0
  3857 ;;      Totals:         1       0       0       0       0       0       0       0       0
  3858 ;;Total ram usage:        1 bytes
  3859 ;; Hardware stack levels used: 1
  3860 ;; Hardware stack levels required when called: 4
  3861 ;; This function calls:
  3862 ;;		Nothing
  3863 ;; This function is called by:
  3864 ;;		_main
  3865 ;; This function uses a non-reentrant model
  3866 ;;
  3867                           
  3868                           	psect	text19
  3869   0015B2                     __ptext19:
  3870                           	callstack 0
  3871   0015B2                     _beep_corto:
  3872                           	callstack 26
  3873                           
  3874                           ;Laboratorio_5.c: 543: LATA2 = 1;
  3875                           
  3876                           ;incstack = 0
  3877   0015B2  8489               	bsf	3977,2,c	;volatile
  3878                           
  3879                           ;Laboratorio_5.c: 544: _delay((unsigned long)((100)*(1000000/4000.0)));
  3880   0015B4  0E21               	movlw	33
  3881   0015B6  6E13               	movwf	??_beep_corto^0,c
  3882   0015B8  0E76               	movlw	118
  3883   0015BA                     u4917:
  3884   0015BA  2EE8               	decfsz	wreg,f,c
  3885   0015BC  D7FE               	bra	u4917
  3886   0015BE  2E13               	decfsz	??_beep_corto^0,f,c
  3887   0015C0  D7FC               	bra	u4917
  3888   0015C2  D000               	nop2	
  3889                           
  3890                           ;Laboratorio_5.c: 545: LATA2 = 0;
  3891   0015C4  9489               	bcf	3977,2,c	;volatile
  3892   0015C6  0012               	return		;funcret
  3893   0015C8                     __end_of_beep_corto:
  3894                           	callstack 0
  3895                           
  3896 ;; *************** function _Lcd_Init *****************
  3897 ;; Defined at:
  3898 ;;		line 3 in file "lcd.c"
  3899 ;; Parameters:    Size  Location     Type
  3900 ;;		None
  3901 ;; Auto vars:     Size  Location     Type
  3902 ;;		None
  3903 ;; Return value:  Size  Location     Type
  3904 ;;                  1    wreg      void 
  3905 ;; Registers used:
  3906 ;;		wreg, status,2, status,0, cstack
  3907 ;; Tracked objects:
  3908 ;;		On entry : 0/0
  3909 ;;		On exit  : 0/0
  3910 ;;		Unchanged: 0/0
  3911 ;; Data sizes:     COMRAM   BANK0   BANK1   BANK2   BANK3   BANK4   BANK5   BANK6   BANK7
  3912 ;;      Params:         0       0       0       0       0       0       0       0       0
  3913 ;;      Locals:         0       0       0       0       0       0       0       0       0
  3914 ;;      Temps:          1       0       0       0       0       0       0       0       0
  3915 ;;      Totals:         1       0       0       0       0       0       0       0       0
  3916 ;;Total ram usage:        1 bytes
  3917 ;; Hardware stack levels used: 1
  3918 ;; Hardware stack levels required when called: 6
  3919 ;; This function calls:
  3920 ;;		_Lcd_Clear
  3921 ;;		_Lcd_Cmd
  3922 ;; This function is called by:
  3923 ;;		_main
  3924 ;; This function uses a non-reentrant model
  3925 ;;
  3926                           
  3927                           	psect	text20
  3928   0011C8                     __ptext20:
  3929                           	callstack 0
  3930   0011C8                     _Lcd_Init:
  3931                           	callstack 24
  3932                           
  3933                           ;lcd.c: 4: TRISD = 0;
  3934                           
  3935                           ;incstack = 0
  3936   0011C8  6A95               	clrf	149,c	;volatile
  3937                           
  3938                           ;lcd.c: 5: LATD = 0;
  3939   0011CA  6A8C               	clrf	140,c	;volatile
  3940                           
  3941                           ;lcd.c: 6: TRISA = 0b00000001;
  3942   0011CC  0E01               	movlw	1
  3943   0011CE  6E92               	movwf	146,c	;volatile
  3944                           
  3945                           ;lcd.c: 7: LATA = 0;
  3946   0011D0  6A89               	clrf	137,c	;volatile
  3947                           
  3948                           ;lcd.c: 8: TRISA5 = 0;
  3949   0011D2  9A92               	bcf	3986,5,c	;volatile
  3950                           
  3951                           ;lcd.c: 9: LATA5 = 1;
  3952   0011D4  8A89               	bsf	3977,5,c	;volatile
  3953                           
  3954                           ;lcd.c: 10: _delay((unsigned long)((100)*(1000000/4000.0)));
  3955   0011D6  0E21               	movlw	33
  3956   0011D8  6E16               	movwf	??_Lcd_Init^0,c
  3957   0011DA  0E76               	movlw	118
  3958   0011DC                     u4927:
  3959   0011DC  2EE8               	decfsz	wreg,f,c
  3960   0011DE  D7FE               	bra	u4927
  3961   0011E0  2E16               	decfsz	??_Lcd_Init^0,f,c
  3962   0011E2  D7FC               	bra	u4927
  3963   0011E4  D000               	nop2	
  3964                           
  3965                           ;lcd.c: 11: Lcd_Cmd(0x02);
  3966   0011E6  0E02               	movlw	2
  3967   0011E8  EC53  F005         	call	_Lcd_Cmd
  3968                           
  3969                           ;lcd.c: 12: Lcd_Cmd(0x28);
  3970   0011EC  0E28               	movlw	40
  3971   0011EE  EC53  F005         	call	_Lcd_Cmd
  3972                           
  3973                           ;lcd.c: 13: Lcd_Cmd(0x0C);
  3974   0011F2  0E0C               	movlw	12
  3975   0011F4  EC53  F005         	call	_Lcd_Cmd
  3976                           
  3977                           ;lcd.c: 14: Lcd_Cmd(0x06);
  3978   0011F8  0E06               	movlw	6
  3979   0011FA  EC53  F005         	call	_Lcd_Cmd
  3980                           
  3981                           ;lcd.c: 15: Lcd_Cmd(0x01);
  3982   0011FE  0E01               	movlw	1
  3983   001200  EC53  F005         	call	_Lcd_Cmd
  3984                           
  3985                           ;lcd.c: 16: _delay((unsigned long)((100)*(1000000/4000.0)));
  3986   001204  0E21               	movlw	33
  3987   001206  6E16               	movwf	??_Lcd_Init^0,c
  3988   001208  0E76               	movlw	118
  3989   00120A                     u4937:
  3990   00120A  2EE8               	decfsz	wreg,f,c
  3991   00120C  D7FE               	bra	u4937
  3992   00120E  2E16               	decfsz	??_Lcd_Init^0,f,c
  3993   001210  D7FC               	bra	u4937
  3994   001212  D000               	nop2	
  3995                           
  3996                           ;lcd.c: 17: Lcd_Clear();
  3997   001214  ECF6  F00A         	call	_Lcd_Clear	;wreg free
  3998   001218  0012               	return		;funcret
  3999   00121A                     __end_of_Lcd_Init:
  4000                           	callstack 0
  4001                           
  4002 ;; *************** function _Lcd_Clear *****************
  4003 ;; Defined at:
  4004 ;;		line 61 in file "lcd.c"
  4005 ;; Parameters:    Size  Location     Type
  4006 ;;		None
  4007 ;; Auto vars:     Size  Location     Type
  4008 ;;		None
  4009 ;; Return value:  Size  Location     Type
  4010 ;;                  1    wreg      void 
  4011 ;; Registers used:
  4012 ;;		wreg, status,2, status,0, cstack
  4013 ;; Tracked objects:
  4014 ;;		On entry : 0/0
  4015 ;;		On exit  : 0/0
  4016 ;;		Unchanged: 0/0
  4017 ;; Data sizes:     COMRAM   BANK0   BANK1   BANK2   BANK3   BANK4   BANK5   BANK6   BANK7
  4018 ;;      Params:         0       0       0       0       0       0       0       0       0
  4019 ;;      Locals:         0       0       0       0       0       0       0       0       0
  4020 ;;      Temps:          0       0       0       0       0       0       0       0       0
  4021 ;;      Totals:         0       0       0       0       0       0       0       0       0
  4022 ;;Total ram usage:        0 bytes
  4023 ;; Hardware stack levels used: 1
  4024 ;; Hardware stack levels required when called: 5
  4025 ;; This function calls:
  4026 ;;		_Lcd_Cmd
  4027 ;; This function is called by:
  4028 ;;		_Lcd_Init
  4029 ;;		_main
  4030 ;;		_mostrar_conteo
  4031 ;;		_mostrar_valor
  4032 ;;		_mostrar_completado
  4033 ;;		_emergencia
  4034 ;;		_lcd_animacion_bienvenida
  4035 ;;		_mensaje_reset
  4036 ;; This function uses a non-reentrant model
  4037 ;;
  4038                           
  4039                           	psect	text21
  4040   0015EC                     __ptext21:
  4041                           	callstack 0
  4042   0015EC                     _Lcd_Clear:
  4043                           	callstack 24
  4044                           
  4045                           ;lcd.c: 62: Lcd_Cmd(0x01);
  4046                           
  4047                           ;incstack = 0
  4048   0015EC  0E01               	movlw	1
  4049   0015EE  EC53  F005         	call	_Lcd_Cmd
  4050                           
  4051                           ;lcd.c: 63: _delay((unsigned long)((2)*(1000000/4000.0)));
  4052   0015F2  0EA6               	movlw	166
  4053   0015F4                     u4947:
  4054   0015F4  2EE8               	decfsz	wreg,f,c
  4055   0015F6  D7FE               	bra	u4947
  4056   0015F8  D000               	nop2	
  4057   0015FA  0012               	return		;funcret
  4058   0015FC                     __end_of_Lcd_Clear:
  4059                           	callstack 0
  4060                           
  4061 ;; *************** function _Lcd_Cmd *****************
  4062 ;; Defined at:
  4063 ;;		line 20 in file "lcd.c"
  4064 ;; Parameters:    Size  Location     Type
  4065 ;;  cmd             1    wreg     unsigned char 
  4066 ;; Auto vars:     Size  Location     Type
  4067 ;;  cmd             1   20[COMRAM] unsigned char 
  4068 ;; Return value:  Size  Location     Type
  4069 ;;                  1    wreg      void 
  4070 ;; Registers used:
  4071 ;;		wreg, status,2, status,0
  4072 ;; Tracked objects:
  4073 ;;		On entry : 0/0
  4074 ;;		On exit  : 0/0
  4075 ;;		Unchanged: 0/0
  4076 ;; Data sizes:     COMRAM   BANK0   BANK1   BANK2   BANK3   BANK4   BANK5   BANK6   BANK7
  4077 ;;      Params:         0       0       0       0       0       0       0       0       0
  4078 ;;      Locals:         1       0       0       0       0       0       0       0       0
  4079 ;;      Temps:          2       0       0       0       0       0       0       0       0
  4080 ;;      Totals:         3       0       0       0       0       0       0       0       0
  4081 ;;Total ram usage:        3 bytes
  4082 ;; Hardware stack levels used: 1
  4083 ;; Hardware stack levels required when called: 4
  4084 ;; This function calls:
  4085 ;;		Nothing
  4086 ;; This function is called by:
  4087 ;;		_Lcd_Init
  4088 ;;		_Lcd_Set_Cursor
  4089 ;;		_Lcd_Clear
  4090 ;;		_LCD_CrearCaracter
  4091 ;; This function uses a non-reentrant model
  4092 ;;
  4093                           
  4094                           	psect	text22
  4095   000AA6                     __ptext22:
  4096                           	callstack 0
  4097   000AA6                     _Lcd_Cmd:
  4098                           	callstack 24
  4099                           
  4100                           ;incstack = 0
  4101                           ;Lcd_Cmd@cmd stored from wreg
  4102   000AA6  6E15               	movwf	Lcd_Cmd@cmd^0,c
  4103                           
  4104                           ;lcd.c: 21: LATA3 = 0;
  4105   000AA8  9689               	bcf	3977,3,c	;volatile
  4106                           
  4107                           ;lcd.c: 22: LATD4 = (cmd >> 4) & 1;
  4108   000AAA  C015  F013         	movff	Lcd_Cmd@cmd,??_Lcd_Cmd
  4109   000AAE  3A13               	swapf	??_Lcd_Cmd^0,f,c
  4110   000AB0  0E0F               	movlw	15
  4111   000AB2  1613               	andwf	??_Lcd_Cmd^0,f,c
  4112   000AB4  3013               	rrcf	??_Lcd_Cmd^0,w,c
  4113   000AB6  A0D8               	btfss	status,0,c
  4114   000AB8  D002               	goto	u3960
  4115   000ABA  888C               	bsf	3980,4,c	;volatile
  4116   000ABC  D001               	goto	u3975
  4117   000ABE                     u3960:
  4118   000ABE  988C               	bcf	3980,4,c	;volatile
  4119   000AC0                     u3975:
  4120                           
  4121                           ;lcd.c: 23: LATD5 = (cmd >> 5) & 1;
  4122   000AC0  C015  F013         	movff	Lcd_Cmd@cmd,??_Lcd_Cmd
  4123   000AC4  0E05               	movlw	5
  4124   000AC6  6E14               	movwf	(??_Lcd_Cmd+1)^0,c
  4125   000AC8                     u3985:
  4126   000AC8  90D8               	bcf	status,0,c
  4127   000ACA  3213               	rrcf	??_Lcd_Cmd^0,f,c
  4128   000ACC  2E14               	decfsz	(??_Lcd_Cmd+1)^0,f,c
  4129   000ACE  D7FC               	goto	u3985
  4130   000AD0  3013               	rrcf	??_Lcd_Cmd^0,w,c
  4131   000AD2  A0D8               	btfss	status,0,c
  4132   000AD4  D002               	goto	u3990
  4133   000AD6  8A8C               	bsf	3980,5,c	;volatile
  4134   000AD8  D001               	goto	u4005
  4135   000ADA                     u3990:
  4136   000ADA  9A8C               	bcf	3980,5,c	;volatile
  4137   000ADC                     u4005:
  4138                           
  4139                           ;lcd.c: 24: LATD6 = (cmd >> 6) & 1;
  4140   000ADC  C015  F013         	movff	Lcd_Cmd@cmd,??_Lcd_Cmd
  4141   000AE0  0E06               	movlw	6
  4142   000AE2  6E14               	movwf	(??_Lcd_Cmd+1)^0,c
  4143   000AE4                     u4015:
  4144   000AE4  90D8               	bcf	status,0,c
  4145   000AE6  3213               	rrcf	??_Lcd_Cmd^0,f,c
  4146   000AE8  2E14               	decfsz	(??_Lcd_Cmd+1)^0,f,c
  4147   000AEA  D7FC               	goto	u4015
  4148   000AEC  3013               	rrcf	??_Lcd_Cmd^0,w,c
  4149   000AEE  A0D8               	btfss	status,0,c
  4150   000AF0  D002               	goto	u4020
  4151   000AF2  8C8C               	bsf	3980,6,c	;volatile
  4152   000AF4  D001               	goto	u4035
  4153   000AF6                     u4020:
  4154   000AF6  9C8C               	bcf	3980,6,c	;volatile
  4155   000AF8                     u4035:
  4156                           
  4157                           ;lcd.c: 25: LATD7 = (cmd >> 7) & 1;
  4158   000AF8  6A13               	clrf	??_Lcd_Cmd^0,c
  4159   000AFA  AE15               	btfss	Lcd_Cmd@cmd^0,7,c
  4160   000AFC  D001               	bra	u4045
  4161   000AFE  2A13               	incf	??_Lcd_Cmd^0,f,c
  4162   000B00                     u4045:
  4163   000B00  3013               	rrcf	??_Lcd_Cmd^0,w,c
  4164   000B02  A0D8               	btfss	status,0,c
  4165   000B04  D002               	goto	u4050
  4166   000B06  8E8C               	bsf	3980,7,c	;volatile
  4167   000B08  D001               	goto	u4065
  4168   000B0A                     u4050:
  4169   000B0A  9E8C               	bcf	3980,7,c	;volatile
  4170   000B0C                     u4065:
  4171                           
  4172                           ;lcd.c: 26: LATA4 = 1; _delay((unsigned long)((2)*(1000000/4000.0))); LATA4 = 0;
  4173   000B0C  8889               	bsf	3977,4,c	;volatile
  4174   000B0E  0EA6               	movlw	166
  4175   000B10                     u4957:
  4176   000B10  2EE8               	decfsz	wreg,f,c
  4177   000B12  D7FE               	bra	u4957
  4178   000B14  D000               	nop2	
  4179   000B16  9889               	bcf	3977,4,c	;volatile
  4180                           
  4181                           ;lcd.c: 28: LATD4 = cmd & 1;
  4182   000B18  A015               	btfss	Lcd_Cmd@cmd^0,0,c
  4183   000B1A  D002               	goto	u4070
  4184   000B1C  888C               	bsf	3980,4,c	;volatile
  4185   000B1E  D001               	goto	u4085
  4186   000B20                     u4070:
  4187   000B20  988C               	bcf	3980,4,c	;volatile
  4188   000B22                     u4085:
  4189                           
  4190                           ;lcd.c: 29: LATD5 = (cmd >> 1) & 1;
  4191   000B22  C015  F013         	movff	Lcd_Cmd@cmd,??_Lcd_Cmd
  4192   000B26  90D8               	bcf	status,0,c
  4193   000B28  3213               	rrcf	??_Lcd_Cmd^0,f,c
  4194   000B2A  3013               	rrcf	??_Lcd_Cmd^0,w,c
  4195   000B2C  A0D8               	btfss	status,0,c
  4196   000B2E  D002               	goto	u4090
  4197   000B30  8A8C               	bsf	3980,5,c	;volatile
  4198   000B32  D001               	goto	u4105
  4199   000B34                     u4090:
  4200   000B34  9A8C               	bcf	3980,5,c	;volatile
  4201   000B36                     u4105:
  4202                           
  4203                           ;lcd.c: 30: LATD6 = (cmd >> 2) & 1;
  4204   000B36  C015  F013         	movff	Lcd_Cmd@cmd,??_Lcd_Cmd
  4205   000B3A  90D8               	bcf	status,0,c
  4206   000B3C  3213               	rrcf	??_Lcd_Cmd^0,f,c
  4207   000B3E  90D8               	bcf	status,0,c
  4208   000B40  3213               	rrcf	??_Lcd_Cmd^0,f,c
  4209   000B42  3013               	rrcf	??_Lcd_Cmd^0,w,c
  4210   000B44  A0D8               	btfss	status,0,c
  4211   000B46  D002               	goto	u4110
  4212   000B48  8C8C               	bsf	3980,6,c	;volatile
  4213   000B4A  D001               	goto	u4125
  4214   000B4C                     u4110:
  4215   000B4C  9C8C               	bcf	3980,6,c	;volatile
  4216   000B4E                     u4125:
  4217                           
  4218                           ;lcd.c: 31: LATD7 = (cmd >> 3) & 1;
  4219   000B4E  C015  F013         	movff	Lcd_Cmd@cmd,??_Lcd_Cmd
  4220   000B52  90D8               	bcf	status,0,c
  4221   000B54  3213               	rrcf	??_Lcd_Cmd^0,f,c
  4222   000B56  90D8               	bcf	status,0,c
  4223   000B58  3213               	rrcf	??_Lcd_Cmd^0,f,c
  4224   000B5A  90D8               	bcf	status,0,c
  4225   000B5C  3213               	rrcf	??_Lcd_Cmd^0,f,c
  4226   000B5E  3013               	rrcf	??_Lcd_Cmd^0,w,c
  4227   000B60  A0D8               	btfss	status,0,c
  4228   000B62  D002               	goto	u4130
  4229   000B64  8E8C               	bsf	3980,7,c	;volatile
  4230   000B66  D001               	goto	u4145
  4231   000B68                     u4130:
  4232   000B68  9E8C               	bcf	3980,7,c	;volatile
  4233   000B6A                     u4145:
  4234                           
  4235                           ;lcd.c: 32: LATA4 = 1; _delay((unsigned long)((2)*(1000000/4000.0))); LATA4 = 0;
  4236   000B6A  8889               	bsf	3977,4,c	;volatile
  4237   000B6C  0EA6               	movlw	166
  4238   000B6E                     u4967:
  4239   000B6E  2EE8               	decfsz	wreg,f,c
  4240   000B70  D7FE               	bra	u4967
  4241   000B72  D000               	nop2	
  4242   000B74  9889               	bcf	3977,4,c	;volatile
  4243   000B76  0012               	return		;funcret
  4244   000B78                     __end_of_Lcd_Cmd:
  4245                           	callstack 0
  4246                           
  4247 ;; *************** function _ISR *****************
  4248 ;; Defined at:
  4249 ;;		line 274 in file "Laboratorio_5.c"
  4250 ;; Parameters:    Size  Location     Type
  4251 ;;		None
  4252 ;; Auto vars:     Size  Location     Type
  4253 ;;		None
  4254 ;; Return value:  Size  Location     Type
  4255 ;;                  1    wreg      void 
  4256 ;; Registers used:
  4257 ;;		wreg, status,2, status,0, tblptrl, tblptrh, tblptru, cstack
  4258 ;; Tracked objects:
  4259 ;;		On entry : 0/0
  4260 ;;		On exit  : 0/0
  4261 ;;		Unchanged: 0/0
  4262 ;; Data sizes:     COMRAM   BANK0   BANK1   BANK2   BANK3   BANK4   BANK5   BANK6   BANK7
  4263 ;;      Params:         0       0       0       0       0       0       0       0       0
  4264 ;;      Locals:         0       0       0       0       0       0       0       0       0
  4265 ;;      Temps:          5       0       0       0       0       0       0       0       0
  4266 ;;      Totals:         5       0       0       0       0       0       0       0       0
  4267 ;;Total ram usage:        5 bytes
  4268 ;; Hardware stack levels used: 1
  4269 ;; Hardware stack levels required when called: 3
  4270 ;; This function calls:
  4271 ;;		_ConversionADC
  4272 ;;		_Transmitir_Cadena
  4273 ;;		_Transmitir_Numero
  4274 ;;		i2_Lcd_Clear
  4275 ;;		i2___lwdiv
  4276 ;;		i2___lwmod
  4277 ;;		i2_color
  4278 ;;		i2_emergencia
  4279 ;;		i2_mostrar_completado
  4280 ;;		i2_mostrar_conteo
  4281 ;;		i2_mostrar_valor
  4282 ;;		i2_unidad
  4283 ;; This function is called by:
  4284 ;;		Interrupt level 2
  4285 ;; This function uses a non-reentrant model
  4286 ;;
  4287                           
  4288                           	psect	intcode
  4289   000008                     __pintcode:
  4290                           	callstack 0
  4291   000008                     _ISR:
  4292                           	callstack 24
  4293                           
  4294                           ;incstack = 0
  4295   000008  8236               	bsf	btemp,1,c	;set compiler interrupt flag (level 2)
  4296   00000A  EDA0  F001         	call	int_func,f	;refresh shadow registers
  4297                           
  4298                           	psect	intcode_body
  4299   000340                     __pintcode_body:
  4300                           	callstack 24
  4301   000340                     int_func:
  4302                           	callstack 24
  4303   000340  0006               	pop		; remove dummy address from shadow register refresh
  4304   000342  CFF6 F00F          	movff	tblptrl,??_ISR+1
  4305   000346  CFF7 F010          	movff	tblptrh,??_ISR+2
  4306   00034A  CFF8 F011          	movff	tblptru,??_ISR+3
  4307   00034E  CFF5 F012          	movff	tablat,??_ISR+4
  4308                           
  4309                           ;Laboratorio_5.c: 275: if (RBIF == 1) {
  4310   000352  A0F2               	btfss	4082,0,c	;volatile
  4311   000354  D069               	goto	i2l3237
  4312                           
  4313                           ;Laboratorio_5.c: 277: if (PORTB != 0b11110000) {
  4314   000356  0EF0               	movlw	240
  4315   000358  1881               	xorwf	129,w,c	;volatile
  4316   00035A  B4D8               	btfsc	status,2,c
  4317   00035C  D04A               	goto	i2l3225
  4318                           
  4319                           ;Laboratorio_5.c: 278: LATB = 0b11111110;
  4320   00035E  0EFE               	movlw	254
  4321   000360  6E8A               	movwf	138,c	;volatile
  4322                           
  4323                           ;Laboratorio_5.c: 279: if (RB4 == 0) Tecla = 1;
  4324   000362  B881               	btfsc	3969,4,c	;volatile
  4325   000364  D002               	goto	i2l269
  4326   000366  0E01               	movlw	1
  4327   000368  D041               	goto	L16
  4328   00036A                     i2l269:
  4329                           
  4330                           ;Laboratorio_5.c: 280: else if (RB5 == 0) Tecla = 2;
  4331   00036A  BA81               	btfsc	3969,5,c	;volatile
  4332   00036C  D002               	goto	i2l271
  4333   00036E  0E02               	movlw	2
  4334   000370  D03D               	goto	L16
  4335   000372                     i2l271:
  4336                           
  4337                           ;Laboratorio_5.c: 281: else if (RB6 == 0) Tecla = 3;
  4338   000372  BC81               	btfsc	3969,6,c	;volatile
  4339   000374  D002               	goto	i2l273
  4340   000376  0E03               	movlw	3
  4341   000378  D039               	goto	L16
  4342   00037A                     i2l273:
  4343                           
  4344                           ;Laboratorio_5.c: 282: else if (RB7 == 0) Tecla = 4;
  4345   00037A  BE81               	btfsc	3969,7,c	;volatile
  4346   00037C  D002               	goto	i2l3189
  4347   00037E  0E04               	movlw	4
  4348   000380  D035               	goto	L16
  4349   000382                     i2l3189:
  4350                           
  4351                           ;Laboratorio_5.c: 283: else {;Laboratorio_5.c: 284: LATB = 0b11111101;
  4352   000382  0EFD               	movlw	253
  4353   000384  6E8A               	movwf	138,c	;volatile
  4354                           
  4355                           ;Laboratorio_5.c: 285: if (RB4 == 0) Tecla = 5;
  4356   000386  B881               	btfsc	3969,4,c	;volatile
  4357   000388  D002               	goto	i2l277
  4358   00038A  0E05               	movlw	5
  4359   00038C  D02F               	goto	L16
  4360   00038E                     i2l277:
  4361                           
  4362                           ;Laboratorio_5.c: 286: else if (RB5 == 0) Tecla = 6;
  4363   00038E  BA81               	btfsc	3969,5,c	;volatile
  4364   000390  D002               	goto	i2l279
  4365   000392  0E06               	movlw	6
  4366   000394  D02B               	goto	L16
  4367   000396                     i2l279:
  4368                           
  4369                           ;Laboratorio_5.c: 287: else if (RB6 == 0) Tecla = 7;
  4370   000396  BC81               	btfsc	3969,6,c	;volatile
  4371   000398  D002               	goto	i2l281
  4372   00039A  0E07               	movlw	7
  4373   00039C  D027               	goto	L16
  4374   00039E                     i2l281:
  4375                           
  4376                           ;Laboratorio_5.c: 288: else if (RB7 == 0) Tecla = 8;
  4377   00039E  BE81               	btfsc	3969,7,c	;volatile
  4378   0003A0  D002               	goto	i2l3201
  4379   0003A2  0E08               	movlw	8
  4380   0003A4  D023               	goto	L16
  4381   0003A6                     i2l3201:
  4382                           
  4383                           ;Laboratorio_5.c: 289: else {;Laboratorio_5.c: 290: LATB = 0b11111011;
  4384   0003A6  0EFB               	movlw	251
  4385   0003A8  6E8A               	movwf	138,c	;volatile
  4386                           
  4387                           ;Laboratorio_5.c: 291: if (RB4 == 0) Tecla = 9;
  4388   0003AA  B881               	btfsc	3969,4,c	;volatile
  4389   0003AC  D002               	goto	i2l285
  4390   0003AE  0E09               	movlw	9
  4391   0003B0  D01D               	goto	L16
  4392   0003B2                     i2l285:
  4393                           
  4394                           ;Laboratorio_5.c: 292: else if (RB5 == 0) Tecla = 10;
  4395   0003B2  BA81               	btfsc	3969,5,c	;volatile
  4396   0003B4  D002               	goto	i2l287
  4397   0003B6  0E0A               	movlw	10
  4398   0003B8  D019               	goto	L16
  4399   0003BA                     i2l287:
  4400                           
  4401                           ;Laboratorio_5.c: 293: else if (RB6 == 0) Tecla = 11;
  4402   0003BA  BC81               	btfsc	3969,6,c	;volatile
  4403   0003BC  D002               	goto	i2l289
  4404   0003BE  0E0B               	movlw	11
  4405   0003C0  D015               	goto	L16
  4406   0003C2                     i2l289:
  4407                           
  4408                           ;Laboratorio_5.c: 294: else if (RB7 == 0) Tecla = 12;
  4409   0003C2  BE81               	btfsc	3969,7,c	;volatile
  4410   0003C4  D002               	goto	i2l3213
  4411   0003C6  0E0C               	movlw	12
  4412   0003C8  D011               	goto	L16
  4413   0003CA                     i2l3213:
  4414                           
  4415                           ;Laboratorio_5.c: 295: else {;Laboratorio_5.c: 296: LATB = 0b11110111;
  4416   0003CA  0EF7               	movlw	247
  4417   0003CC  6E8A               	movwf	138,c	;volatile
  4418                           
  4419                           ;Laboratorio_5.c: 297: if (RB4 == 0) Tecla = 13;
  4420   0003CE  B881               	btfsc	3969,4,c	;volatile
  4421   0003D0  D002               	goto	i2l293
  4422   0003D2  0E0D               	movlw	13
  4423   0003D4  D00B               	goto	L16
  4424   0003D6                     i2l293:
  4425                           
  4426                           ;Laboratorio_5.c: 298: else if (RB5 == 0) Tecla = 14;
  4427   0003D6  BA81               	btfsc	3969,5,c	;volatile
  4428   0003D8  D002               	goto	i2l295
  4429   0003DA  0E0E               	movlw	14
  4430   0003DC  D007               	goto	L16
  4431   0003DE                     i2l295:
  4432                           
  4433                           ;Laboratorio_5.c: 299: else if (RB6 == 0) Tecla = 15;
  4434   0003DE  BC81               	btfsc	3969,6,c	;volatile
  4435   0003E0  D002               	goto	i2l297
  4436   0003E2  0E0F               	movlw	15
  4437   0003E4  D003               	goto	L16
  4438   0003E6                     i2l297:
  4439                           
  4440                           ;Laboratorio_5.c: 300: else if (RB7 == 0) Tecla = 16;
  4441   0003E6  BE81               	btfsc	3969,7,c	;volatile
  4442   0003E8  D002               	goto	i2l294
  4443   0003EA  0E10               	movlw	16
  4444   0003EC                     L16:
  4445   0003EC  6E34               	movwf	_Tecla^0,c	;volatile
  4446   0003EE                     i2l294:
  4447                           
  4448                           ;Laboratorio_5.c: 301: };Laboratorio_5.c: 302: };Laboratorio_5.c: 303: };Laboratorio_5.c
      +                          : 304: LATB = 0b11110000;
  4449   0003EE  0EF0               	movlw	240
  4450   0003F0  6E8A               	movwf	138,c	;volatile
  4451   0003F2                     i2l3225:
  4452                           
  4453                           ;Laboratorio_5.c: 305: };Laboratorio_5.c: 306: _delay((unsigned long)((350)*(1000000/400
      +                          0.0)));
  4454   0003F2  0E72               	movlw	114
  4455   0003F4  6E0E               	movwf	??_ISR^0,c
  4456   0003F6  0EA2               	movlw	162
  4457   0003F8                     i2u497_47:
  4458   0003F8  2EE8               	decfsz	wreg,f,c
  4459   0003FA  D7FE               	bra	i2u497_47
  4460   0003FC  2E0E               	decfsz	??_ISR^0,f,c
  4461   0003FE  D7FC               	bra	i2u497_47
  4462                           
  4463                           ;Laboratorio_5.c: 307: RBIF = 0;
  4464   000400  90F2               	bcf	4082,0,c	;volatile
  4465                           
  4466                           ;Laboratorio_5.c: 308: if (inactividad > 10 & inactividad <20) {
  4467   000402  5029               	movf	(_inactividad+1)^0,w,c
  4468   000404  E104               	bnz	i2u376_40
  4469   000406  0E0B               	movlw	11
  4470   000408  5C28               	subwf	_inactividad^0,w,c
  4471   00040A  A0D8               	btfss	status,0,c
  4472   00040C  D009               	goto	i2l300
  4473   00040E                     i2u376_40:
  4474   00040E  5029               	movf	(_inactividad+1)^0,w,c
  4475   000410  E107               	bnz	i2l300
  4476   000412  0E14               	movlw	20
  4477   000414  5C28               	subwf	_inactividad^0,w,c
  4478   000416  B0D8               	btfsc	status,0,c
  4479   000418  D003               	goto	i2l300
  4480                           
  4481                           ;Laboratorio_5.c: 309: lcd_backlight = 1;
  4482   00041A  0E01               	movlw	1
  4483   00041C  6E35               	movwf	_lcd_backlight^0,c
  4484                           
  4485                           ;Laboratorio_5.c: 310: LATA5 = 1;
  4486   00041E  8A89               	bsf	3977,5,c	;volatile
  4487   000420                     i2l300:
  4488                           
  4489                           ;Laboratorio_5.c: 311: };Laboratorio_5.c: 312: inactividad = 0;
  4490   000420  0E00               	movlw	0
  4491   000422  6E29               	movwf	(_inactividad+1)^0,c
  4492   000424  0E00               	movlw	0
  4493   000426  6E28               	movwf	_inactividad^0,c
  4494   000428                     i2l3237:
  4495                           
  4496                           ;Laboratorio_5.c: 313: };Laboratorio_5.c: 315: if (TMR0IF) {
  4497   000428  A4F2               	btfss	4082,2,c	;volatile
  4498   00042A  D06C               	goto	i2l303
  4499                           
  4500                           ;Laboratorio_5.c: 316: TMR0 = 3036;
  4501   00042C  0E0B               	movlw	11
  4502   00042E  6ED7               	movwf	215,c	;volatile
  4503   000430  0EDC               	movlw	220
  4504   000432  6ED6               	movwf	214,c	;volatile
  4505                           
  4506                           ;Laboratorio_5.c: 317: TMR0IF = 0;
  4507   000434  94F2               	bcf	4082,2,c	;volatile
  4508                           
  4509                           ;Laboratorio_5.c: 318: LATA1 ^= 1;
  4510   000436  7289               	btg	3977,1,c	;volatile
  4511                           
  4512                           ;Laboratorio_5.c: 319: inactividad++;
  4513   000438  4A28               	infsnz	_inactividad^0,f,c
  4514   00043A  2A29               	incf	(_inactividad+1)^0,f,c
  4515                           
  4516                           ;Laboratorio_5.c: 321: VADC=ConversionADC(0);
  4517   00043C  0E00               	movlw	0
  4518   00043E  ECA2  F00A         	call	_ConversionADC
  4519   000442  6E0E               	movwf	??_ISR^0,c
  4520   000444  500E               	movf	??_ISR^0,w,c
  4521   000446  6E26               	movwf	_VADC^0,c
  4522   000448  6A27               	clrf	(_VADC+1)^0,c
  4523                           
  4524                           ;Laboratorio_5.c: 322: Transmitir_Cadena("Valor del ADC: ");
  4525   00044A  0E94               	movlw	low STR_2
  4526   00044C  6E02               	movwf	Transmitir_Cadena@cadena^0,c
  4527   00044E  0E7F               	movlw	high STR_2
  4528   000450  6E03               	movwf	(Transmitir_Cadena@cadena+1)^0,c
  4529   000452  EC55  F00A         	call	_Transmitir_Cadena	;wreg free
  4530                           
  4531                           ;Laboratorio_5.c: 323: Transmitir_Numero(VADC);
  4532   000456  5026               	movf	_VADC^0,w,c
  4533   000458  EC36  F009         	call	_Transmitir_Numero
  4534                           
  4535                           ;Laboratorio_5.c: 325: if (inactividad == 10) {
  4536   00045C  0E0A               	movlw	10
  4537   00045E  1828               	xorwf	_inactividad^0,w,c
  4538   000460  1029               	iorwf	(_inactividad+1)^0,w,c
  4539   000462  A4D8               	btfss	status,2,c
  4540   000464  D002               	goto	i2l3257
  4541                           
  4542                           ;Laboratorio_5.c: 326: lcd_backlight = 0;
  4543   000466  6A35               	clrf	_lcd_backlight^0,c
  4544                           
  4545                           ;Laboratorio_5.c: 327: LATA5 = 0;
  4546   000468  9A89               	bcf	3977,5,c	;volatile
  4547   00046A                     i2l3257:
  4548                           
  4549                           ;Laboratorio_5.c: 328: };Laboratorio_5.c: 330: if (inactividad >= 20) {
  4550   00046A  5029               	movf	(_inactividad+1)^0,w,c
  4551   00046C  E104               	bnz	i2u380_40
  4552   00046E  0E14               	movlw	20
  4553   000470  5C28               	subwf	_inactividad^0,w,c
  4554   000472  A0D8               	btfss	status,0,c
  4555   000474  D047               	goto	i2l303
  4556   000476                     i2u380_40:
  4557                           
  4558                           ;Laboratorio_5.c: 331: Lcd_Clear();
  4559   000476  ECFE  F00A         	call	i2_Lcd_Clear	;wreg free
  4560                           
  4561                           ;Laboratorio_5.c: 332: LATE = 0;
  4562   00047A  6A8D               	clrf	141,c	;volatile
  4563                           
  4564                           ;Laboratorio_5.c: 333: LATD = 0;
  4565   00047C  6A8C               	clrf	140,c	;volatile
  4566                           
  4567                           ;Laboratorio_5.c: 334: LATA5 = 0;
  4568   00047E  9A89               	bcf	3977,5,c	;volatile
  4569                           
  4570                           ;Laboratorio_5.c: 335: LATC2=0;
  4571   000480  948B               	bcf	3979,2,c	;volatile
  4572                           
  4573                           ;Laboratorio_5.c: 337: TMR0IE = 1;
  4574   000482  8AF2               	bsf	4082,5,c	;volatile
  4575                           
  4576                           ;Laboratorio_5.c: 338: RBIE = 1;
  4577   000484  86F2               	bsf	4082,3,c	;volatile
  4578                           
  4579                           ;Laboratorio_5.c: 339: RBIF = 0;
  4580   000486  90F2               	bcf	4082,0,c	;volatile
  4581   000488  0003               	sleep		;# 
  4582                           
  4583                           ;Laboratorio_5.c: 343: inactividad = 0;
  4584   00048A  0E00               	movlw	0
  4585   00048C  6E29               	movwf	(_inactividad+1)^0,c
  4586   00048E  0E00               	movlw	0
  4587   000490  6E28               	movwf	_inactividad^0,c
  4588                           
  4589                           ;Laboratorio_5.c: 344: color(contador / 10);
  4590   000492  C02C  F001         	movff	_contador,i2___lwdiv@dividend
  4591   000496  C02D  F002         	movff	_contador+1,i2___lwdiv@dividend+1
  4592   00049A  0E00               	movlw	0
  4593   00049C  6E04               	movwf	(i2___lwdiv@divisor+1)^0,c
  4594   00049E  0E0A               	movlw	10
  4595   0004A0  6E03               	movwf	i2___lwdiv@divisor^0,c
  4596   0004A2  EC0D  F009         	call	i2___lwdiv	;wreg free
  4597   0004A6  C001  F008         	movff	?i2___lwdiv,i2color@i
  4598   0004AA  C002  F009         	movff	?i2___lwdiv+1,i2color@i+1
  4599   0004AE  EC5F  F008         	call	i2_color	;wreg free
  4600                           
  4601                           ;Laboratorio_5.c: 345: unidad(contador % 10);
  4602   0004B2  C02C  F001         	movff	_contador,i2___lwmod@dividend
  4603   0004B6  C02D  F002         	movff	_contador+1,i2___lwmod@dividend+1
  4604   0004BA  0E00               	movlw	0
  4605   0004BC  6E04               	movwf	(i2___lwmod@divisor+1)^0,c
  4606   0004BE  0E0A               	movlw	10
  4607   0004C0  6E03               	movwf	i2___lwmod@divisor^0,c
  4608   0004C2  EC9C  F009         	call	i2___lwmod	;wreg free
  4609   0004C6  C001  F006         	movff	?i2___lwmod,i2unidad@i
  4610   0004CA  C002  F007         	movff	?i2___lwmod+1,i2unidad@i+1
  4611   0004CE  ECED  F00A         	call	i2_unidad	;wreg free
  4612                           
  4613                           ;Laboratorio_5.c: 346: TMR0IE = 1;
  4614   0004D2  8AF2               	bsf	4082,5,c	;volatile
  4615                           
  4616                           ;Laboratorio_5.c: 347: lcd_backlight = 1;
  4617   0004D4  0E01               	movlw	1
  4618   0004D6  6E35               	movwf	_lcd_backlight^0,c
  4619                           
  4620                           ;Laboratorio_5.c: 348: LATA5 = 1;
  4621   0004D8  8A89               	bsf	3977,5,c	;volatile
  4622                           
  4623                           ;Laboratorio_5.c: 350: if (estado == 1) mostrar_valor();
  4624   0004DA  0430               	decf	_estado^0,w,c
  4625   0004DC  1031               	iorwf	(_estado+1)^0,w,c
  4626   0004DE  A4D8               	btfss	status,2,c
  4627   0004E0  D003               	goto	i2l3291
  4628   0004E2  ECC0  F00A         	call	i2_mostrar_valor	;wreg free
  4629   0004E6  D00E               	goto	i2l303
  4630   0004E8                     i2l3291:
  4631                           
  4632                           ;Laboratorio_5.c: 351: else if (estado == 2) mostrar_conteo();
  4633   0004E8  0E02               	movlw	2
  4634   0004EA  1830               	xorwf	_estado^0,w,c
  4635   0004EC  1031               	iorwf	(_estado+1)^0,w,c
  4636   0004EE  A4D8               	btfss	status,2,c
  4637   0004F0  D003               	goto	i2l3295
  4638   0004F2  EC6D  F004         	call	i2_mostrar_conteo	;wreg free
  4639   0004F6  D006               	goto	i2l303
  4640   0004F8                     i2l3295:
  4641                           
  4642                           ;Laboratorio_5.c: 352: else if (estado == 3) mostrar_completado();
  4643   0004F8  0E03               	movlw	3
  4644   0004FA  1830               	xorwf	_estado^0,w,c
  4645   0004FC  1031               	iorwf	(_estado+1)^0,w,c
  4646   0004FE  B4D8               	btfsc	status,2,c
  4647   000500  EC87  F007         	call	i2_mostrar_completado	;wreg free
  4648   000504                     i2l303:
  4649                           
  4650                           ;Laboratorio_5.c: 353: };Laboratorio_5.c: 354: };Laboratorio_5.c: 356: if (RCIF==1) {
  4651   000504  AA9E               	btfss	3998,5,c	;volatile
  4652   000506  D05E               	goto	i2l315
  4653                           
  4654                           ;Laboratorio_5.c: 357: inactividad = 0;
  4655   000508  0E00               	movlw	0
  4656   00050A  6E29               	movwf	(_inactividad+1)^0,c
  4657   00050C  0E00               	movlw	0
  4658   00050E  6E28               	movwf	_inactividad^0,c
  4659                           
  4660                           ;Laboratorio_5.c: 358: if (OERR) {
  4661   000510  A2AB               	btfss	4011,1,c	;volatile
  4662   000512  D002               	goto	i2l310
  4663                           
  4664                           ;Laboratorio_5.c: 359: CREN = 0;
  4665   000514  98AB               	bcf	4011,4,c	;volatile
  4666                           
  4667                           ;Laboratorio_5.c: 360: CREN = 1;
  4668   000516  88AB               	bsf	4011,4,c	;volatile
  4669   000518                     i2l310:
  4670                           
  4671                           ;Laboratorio_5.c: 361: };Laboratorio_5.c: 363: BufferR = RCREG;
  4672   000518  CFAE F032          	movff	4014,_BufferR	;volatile
  4673                           
  4674                           ;Laboratorio_5.c: 365: if (estado != 4){
  4675   00051C  0E04               	movlw	4
  4676   00051E  1830               	xorwf	_estado^0,w,c
  4677   000520  1031               	iorwf	(_estado+1)^0,w,c
  4678   000522  B4D8               	btfsc	status,2,c
  4679   000524  D04F               	goto	i2l315
  4680                           
  4681                           ;Laboratorio_5.c: 366: if (BufferR == 'P' || BufferR == 'p'){
  4682   000526  0E50               	movlw	80
  4683   000528  1832               	xorwf	_BufferR^0,w,c
  4684   00052A  B4D8               	btfsc	status,2,c
  4685   00052C  D004               	goto	i2u388_40
  4686   00052E  0E70               	movlw	112
  4687   000530  1832               	xorwf	_BufferR^0,w,c
  4688   000532  A4D8               	btfss	status,2,c
  4689   000534  D009               	goto	i2l3315
  4690   000536                     i2u388_40:
  4691                           
  4692                           ;Laboratorio_5.c: 367: Transmitir_Cadena("Parada de emergencia \r\n");
  4693   000536  0EFD               	movlw	low STR_3
  4694   000538  6E02               	movwf	Transmitir_Cadena@cadena^0,c
  4695   00053A  0E7E               	movlw	high STR_3
  4696   00053C  6E03               	movwf	(Transmitir_Cadena@cadena+1)^0,c
  4697   00053E  EC55  F00A         	call	_Transmitir_Cadena	;wreg free
  4698                           
  4699                           ;Laboratorio_5.c: 368: emergencia();
  4700   000542  ECBD  F009         	call	i2_emergencia	;wreg free
  4701                           
  4702                           ;Laboratorio_5.c: 369: }
  4703   000546  D03E               	goto	i2l315
  4704   000548                     i2l3315:
  4705                           
  4706                           ;Laboratorio_5.c: 370: else if (BufferR == 'E' || BufferR == 'e'){
  4707   000548  0E45               	movlw	69
  4708   00054A  1832               	xorwf	_BufferR^0,w,c
  4709   00054C  B4D8               	btfsc	status,2,c
  4710   00054E  D004               	goto	i2u390_40
  4711   000550  0E65               	movlw	101
  4712   000552  1832               	xorwf	_BufferR^0,w,c
  4713   000554  A4D8               	btfss	status,2,c
  4714   000556  D00A               	goto	i2l3323
  4715   000558                     i2u390_40:
  4716                           
  4717                           ;Laboratorio_5.c: 371: Transmitir_Cadena("Encender Motor \r\n");
  4718   000558  0E3F               	movlw	low STR_4
  4719   00055A  6E02               	movwf	Transmitir_Cadena@cadena^0,c
  4720   00055C  0E7F               	movlw	high STR_4
  4721   00055E  6E03               	movwf	(Transmitir_Cadena@cadena+1)^0,c
  4722   000560  EC55  F00A         	call	_Transmitir_Cadena	;wreg free
  4723                           
  4724                           ;Laboratorio_5.c: 372: EMOTOR = 1;
  4725   000564  0E00               	movlw	0
  4726   000566  6E25               	movwf	(_EMOTOR+1)^0,c
  4727   000568  0E01               	movlw	1
  4728   00056A  D011               	goto	L17
  4729   00056C                     i2l3323:
  4730                           
  4731                           ;Laboratorio_5.c: 374: else if (BufferR == 'A' || BufferR == 'a'){
  4732   00056C  0E41               	movlw	65
  4733   00056E  1832               	xorwf	_BufferR^0,w,c
  4734   000570  B4D8               	btfsc	status,2,c
  4735   000572  D004               	goto	i2u392_40
  4736   000574  0E61               	movlw	97
  4737   000576  1832               	xorwf	_BufferR^0,w,c
  4738   000578  A4D8               	btfss	status,2,c
  4739   00057A  D00B               	goto	i2l3331
  4740   00057C                     i2u392_40:
  4741                           
  4742                           ;Laboratorio_5.c: 375: Transmitir_Cadena("Apagar motor \r\n");
  4743   00057C  0E84               	movlw	low STR_5
  4744   00057E  6E02               	movwf	Transmitir_Cadena@cadena^0,c
  4745   000580  0E7F               	movlw	high STR_5
  4746   000582  6E03               	movwf	(Transmitir_Cadena@cadena+1)^0,c
  4747   000584  EC55  F00A         	call	_Transmitir_Cadena	;wreg free
  4748                           
  4749                           ;Laboratorio_5.c: 376: EMOTOR = 2;
  4750   000588  0E00               	movlw	0
  4751   00058A  6E25               	movwf	(_EMOTOR+1)^0,c
  4752   00058C  0E02               	movlw	2
  4753   00058E                     L17:
  4754   00058E  6E24               	movwf	_EMOTOR^0,c
  4755                           
  4756                           ;Laboratorio_5.c: 377: }
  4757   000590  D019               	goto	i2l315
  4758   000592                     i2l3331:
  4759                           
  4760                           ;Laboratorio_5.c: 378: else if ((BufferR == 'R' || BufferR == 'r') && estado == 2){
  4761   000592  0E52               	movlw	82
  4762   000594  1832               	xorwf	_BufferR^0,w,c
  4763   000596  B4D8               	btfsc	status,2,c
  4764   000598  D004               	goto	i2u394_40
  4765   00059A  0E72               	movlw	114
  4766   00059C  1832               	xorwf	_BufferR^0,w,c
  4767   00059E  A4D8               	btfss	status,2,c
  4768   0005A0  D011               	goto	i2l315
  4769   0005A2                     i2u394_40:
  4770   0005A2  0E02               	movlw	2
  4771   0005A4  1830               	xorwf	_estado^0,w,c
  4772   0005A6  1031               	iorwf	(_estado+1)^0,w,c
  4773   0005A8  A4D8               	btfss	status,2,c
  4774   0005AA  D00C               	goto	i2l315
  4775                           
  4776                           ;Laboratorio_5.c: 379: Transmitir_Cadena("Reset de conteo \r\n ");
  4777   0005AC  0E2B               	movlw	low STR_6
  4778   0005AE  6E02               	movwf	Transmitir_Cadena@cadena^0,c
  4779   0005B0  0E7F               	movlw	high STR_6
  4780   0005B2  6E03               	movwf	(Transmitir_Cadena@cadena+1)^0,c
  4781   0005B4  EC55  F00A         	call	_Transmitir_Cadena	;wreg free
  4782                           
  4783                           ;Laboratorio_5.c: 380: contador = 0;
  4784   0005B8  0E00               	movlw	0
  4785   0005BA  6E2D               	movwf	(_contador+1)^0,c
  4786   0005BC  0E00               	movlw	0
  4787   0005BE  6E2C               	movwf	_contador^0,c
  4788                           
  4789                           ;Laboratorio_5.c: 381: mostrar_conteo();
  4790   0005C0  EC6D  F004         	call	i2_mostrar_conteo	;wreg free
  4791   0005C4                     i2l315:
  4792   0005C4  C012  FFF5         	movff	??_ISR+4,tablat
  4793   0005C8  C011  FFF8         	movff	??_ISR+3,tblptru
  4794   0005CC  C010  FFF7         	movff	??_ISR+2,tblptrh
  4795   0005D0  C00F  FFF6         	movff	??_ISR+1,tblptrl
  4796   0005D4  9236               	bcf	btemp,1,c	;clear compiler interrupt flag (level 2)
  4797   0005D6  0011               	retfie		f
  4798   0005D8                     __end_of_ISR:
  4799                           	callstack 0
  4800                           
  4801 ;; *************** function i2_mostrar_valor *****************
  4802 ;; Defined at:
  4803 ;;		line 423 in file "Laboratorio_5.c"
  4804 ;; Parameters:    Size  Location     Type
  4805 ;;		None
  4806 ;; Auto vars:     Size  Location     Type
  4807 ;;		None
  4808 ;; Return value:  Size  Location     Type
  4809 ;;                  1    wreg      void 
  4810 ;; Registers used:
  4811 ;;		wreg, status,2, status,0, tblptrl, tblptrh, tblptru, cstack
  4812 ;; Tracked objects:
  4813 ;;		On entry : 0/0
  4814 ;;		On exit  : 0/0
  4815 ;;		Unchanged: 0/0
  4816 ;; Data sizes:     COMRAM   BANK0   BANK1   BANK2   BANK3   BANK4   BANK5   BANK6   BANK7
  4817 ;;      Params:         0       0       0       0       0       0       0       0       0
  4818 ;;      Locals:         0       0       0       0       0       0       0       0       0
  4819 ;;      Temps:          0       0       0       0       0       0       0       0       0
  4820 ;;      Totals:         0       0       0       0       0       0       0       0       0
  4821 ;;Total ram usage:        0 bytes
  4822 ;; Hardware stack levels used: 1
  4823 ;; Hardware stack levels required when called: 2
  4824 ;; This function calls:
  4825 ;;		i2_Lcd_Clear
  4826 ;;		i2_Lcd_Set_Cursor
  4827 ;;		i2_Lcd_String
  4828 ;; This function is called by:
  4829 ;;		_ISR
  4830 ;; This function uses a non-reentrant model
  4831 ;;
  4832                           
  4833                           	psect	text24
  4834   001580                     __ptext24:
  4835                           	callstack 0
  4836   001580                     i2_mostrar_valor:
  4837                           	callstack 24
  4838                           
  4839                           ;Laboratorio_5.c: 424: Lcd_Clear();
  4840                           
  4841                           ;incstack = 0
  4842   001580  ECFE  F00A         	call	i2_Lcd_Clear	;wreg free
  4843                           
  4844                           ;Laboratorio_5.c: 425: Lcd_Set_Cursor(1, 1);
  4845   001584  0E01               	movlw	1
  4846   001586  6E04               	movwf	i2Lcd_Set_Cursor@column^0,c
  4847   001588  0E01               	movlw	1
  4848   00158A  EC90  F00A         	call	i2_Lcd_Set_Cursor
  4849                           
  4850                           ;Laboratorio_5.c: 426: Lcd_String("Ingrese valor:");
  4851   00158E  0EB3               	movlw	low STR_9
  4852   001590  6E04               	movwf	i2Lcd_String@str^0,c
  4853   001592  0E7F               	movlw	high STR_9
  4854   001594  6E05               	movwf	(i2Lcd_String@str+1)^0,c
  4855   001596  EC40  F00A         	call	i2_Lcd_String	;wreg free
  4856   00159A  0012               	return		;funcret
  4857   00159C                     __end_ofi2_mostrar_valor:
  4858                           	callstack 0
  4859                           
  4860 ;; *************** function i2_mostrar_conteo *****************
  4861 ;; Defined at:
  4862 ;;		line 389 in file "Laboratorio_5.c"
  4863 ;; Parameters:    Size  Location     Type
  4864 ;;		None
  4865 ;; Auto vars:     Size  Location     Type
  4866 ;;  faltan          2   11[COMRAM] int 
  4867 ;; Return value:  Size  Location     Type
  4868 ;;                  1    wreg      void 
  4869 ;; Registers used:
  4870 ;;		wreg, status,2, status,0, tblptrl, tblptrh, tblptru, cstack
  4871 ;; Tracked objects:
  4872 ;;		On entry : 0/0
  4873 ;;		On exit  : 0/0
  4874 ;;		Unchanged: 0/0
  4875 ;; Data sizes:     COMRAM   BANK0   BANK1   BANK2   BANK3   BANK4   BANK5   BANK6   BANK7
  4876 ;;      Params:         0       0       0       0       0       0       0       0       0
  4877 ;;      Locals:         2       0       0       0       0       0       0       0       0
  4878 ;;      Temps:          0       0       0       0       0       0       0       0       0
  4879 ;;      Totals:         2       0       0       0       0       0       0       0       0
  4880 ;;Total ram usage:        2 bytes
  4881 ;; Hardware stack levels used: 1
  4882 ;; Hardware stack levels required when called: 2
  4883 ;; This function calls:
  4884 ;;		i2_Lcd_Char
  4885 ;;		i2_Lcd_Clear
  4886 ;;		i2_Lcd_Set_Cursor
  4887 ;;		i2_Lcd_String
  4888 ;;		i2___awdiv
  4889 ;;		i2___awmod
  4890 ;;		i2___lwdiv
  4891 ;;		i2___lwmod
  4892 ;;		i2_color
  4893 ;;		i2_unidad
  4894 ;; This function is called by:
  4895 ;;		_ISR
  4896 ;; This function uses a non-reentrant model
  4897 ;;
  4898                           
  4899                           	psect	text25
  4900   0008DA                     __ptext25:
  4901                           	callstack 0
  4902   0008DA                     i2_mostrar_conteo:
  4903                           	callstack 24
  4904                           
  4905                           ;Laboratorio_5.c: 390: Lcd_Clear();
  4906                           
  4907                           ;incstack = 0
  4908   0008DA  ECFE  F00A         	call	i2_Lcd_Clear	;wreg free
  4909                           
  4910                           ;Laboratorio_5.c: 391: Lcd_Set_Cursor(1, 1);
  4911   0008DE  0E01               	movlw	1
  4912   0008E0  6E04               	movwf	i2Lcd_Set_Cursor@column^0,c
  4913   0008E2  0E01               	movlw	1
  4914   0008E4  EC90  F00A         	call	i2_Lcd_Set_Cursor
  4915                           
  4916                           ;Laboratorio_5.c: 392: Lcd_String("Objetivo:");
  4917   0008E8  0EF5               	movlw	low STR_7
  4918   0008EA  6E04               	movwf	i2Lcd_String@str^0,c
  4919   0008EC  0E7F               	movlw	high STR_7
  4920   0008EE  6E05               	movwf	(i2Lcd_String@str+1)^0,c
  4921   0008F0  EC40  F00A         	call	i2_Lcd_String	;wreg free
  4922                           
  4923                           ;Laboratorio_5.c: 393: Lcd_Char((objetivo / 10) + '0');
  4924   0008F4  C02E  F001         	movff	_objetivo,i2___lwdiv@dividend
  4925   0008F8  C02F  F002         	movff	_objetivo+1,i2___lwdiv@dividend+1
  4926   0008FC  0E00               	movlw	0
  4927   0008FE  6E04               	movwf	(i2___lwdiv@divisor+1)^0,c
  4928   000900  0E0A               	movlw	10
  4929   000902  6E03               	movwf	i2___lwdiv@divisor^0,c
  4930   000904  EC0D  F009         	call	i2___lwdiv	;wreg free
  4931   000908  5001               	movf	?i2___lwdiv^0,w,c
  4932   00090A  0F30               	addlw	48
  4933   00090C  ECBC  F005         	call	i2_Lcd_Char
  4934                           
  4935                           ;Laboratorio_5.c: 394: Lcd_Char((objetivo % 10) + '0');
  4936   000910  C02E  F001         	movff	_objetivo,i2___lwmod@dividend
  4937   000914  C02F  F002         	movff	_objetivo+1,i2___lwmod@dividend+1
  4938   000918  0E00               	movlw	0
  4939   00091A  6E04               	movwf	(i2___lwmod@divisor+1)^0,c
  4940   00091C  0E0A               	movlw	10
  4941   00091E  6E03               	movwf	i2___lwmod@divisor^0,c
  4942   000920  EC9C  F009         	call	i2___lwmod	;wreg free
  4943   000924  5001               	movf	?i2___lwmod^0,w,c
  4944   000926  0F30               	addlw	48
  4945   000928  ECBC  F005         	call	i2_Lcd_Char
  4946                           
  4947                           ;Laboratorio_5.c: 396: Lcd_Set_Cursor(2, 1);
  4948   00092C  0E01               	movlw	1
  4949   00092E  6E04               	movwf	i2Lcd_Set_Cursor@column^0,c
  4950   000930  0E02               	movlw	2
  4951   000932  EC90  F00A         	call	i2_Lcd_Set_Cursor
  4952                           
  4953                           ;Laboratorio_5.c: 397: Lcd_String("Faltantes:");
  4954   000936  0EEA               	movlw	low STR_8
  4955   000938  6E04               	movwf	i2Lcd_String@str^0,c
  4956   00093A  0E7F               	movlw	high STR_8
  4957   00093C  6E05               	movwf	(i2Lcd_String@str+1)^0,c
  4958   00093E  EC40  F00A         	call	i2_Lcd_String	;wreg free
  4959                           
  4960                           ;Laboratorio_5.c: 398: int faltan = objetivo - contador;
  4961   000942  502C               	movf	_contador^0,w,c
  4962   000944  5C2E               	subwf	_objetivo^0,w,c
  4963   000946  6E0C               	movwf	i2mostrar_conteo@faltan^0,c
  4964   000948  502D               	movf	(_contador+1)^0,w,c
  4965   00094A  582F               	subwfb	(_objetivo+1)^0,w,c
  4966   00094C  6E0D               	movwf	(i2mostrar_conteo@faltan+1)^0,c
  4967                           
  4968                           ;Laboratorio_5.c: 399: if (faltan < 0) faltan = 0;
  4969   00094E  AE0D               	btfss	(i2mostrar_conteo@faltan+1)^0,7,c
  4970   000950  D004               	goto	i2l2973
  4971   000952  0E00               	movlw	0
  4972   000954  6E0D               	movwf	(i2mostrar_conteo@faltan+1)^0,c
  4973   000956  0E00               	movlw	0
  4974   000958  6E0C               	movwf	i2mostrar_conteo@faltan^0,c
  4975   00095A                     i2l2973:
  4976                           
  4977                           ;Laboratorio_5.c: 400: Lcd_Char((faltan / 10) + '0');
  4978   00095A  C00C  F001         	movff	i2mostrar_conteo@faltan,i2___awdiv@dividend
  4979   00095E  C00D  F002         	movff	i2mostrar_conteo@faltan+1,i2___awdiv@dividend+1
  4980   000962  0E00               	movlw	0
  4981   000964  6E04               	movwf	(i2___awdiv@divisor+1)^0,c
  4982   000966  0E0A               	movlw	10
  4983   000968  6E03               	movwf	i2___awdiv@divisor^0,c
  4984   00096A  ECCF  F006         	call	i2___awdiv	;wreg free
  4985   00096E  5001               	movf	?i2___awdiv^0,w,c
  4986   000970  0F30               	addlw	48
  4987   000972  ECBC  F005         	call	i2_Lcd_Char
  4988                           
  4989                           ;Laboratorio_5.c: 401: Lcd_Char((faltan % 10) + '0');
  4990   000976  C00C  F001         	movff	i2mostrar_conteo@faltan,i2___awmod@dividend
  4991   00097A  C00D  F002         	movff	i2mostrar_conteo@faltan+1,i2___awmod@dividend+1
  4992   00097E  0E00               	movlw	0
  4993   000980  6E04               	movwf	(i2___awmod@divisor+1)^0,c
  4994   000982  0E0A               	movlw	10
  4995   000984  6E03               	movwf	i2___awmod@divisor^0,c
  4996   000986  ECF7  F007         	call	i2___awmod	;wreg free
  4997   00098A  5001               	movf	?i2___awmod^0,w,c
  4998   00098C  0F30               	addlw	48
  4999   00098E  ECBC  F005         	call	i2_Lcd_Char
  5000                           
  5001                           ;Laboratorio_5.c: 403: unidad(contador % 10);
  5002   000992  C02C  F001         	movff	_contador,i2___lwmod@dividend
  5003   000996  C02D  F002         	movff	_contador+1,i2___lwmod@dividend+1
  5004   00099A  0E00               	movlw	0
  5005   00099C  6E04               	movwf	(i2___lwmod@divisor+1)^0,c
  5006   00099E  0E0A               	movlw	10
  5007   0009A0  6E03               	movwf	i2___lwmod@divisor^0,c
  5008   0009A2  EC9C  F009         	call	i2___lwmod	;wreg free
  5009   0009A6  C001  F006         	movff	?i2___lwmod,i2unidad@i
  5010   0009AA  C002  F007         	movff	?i2___lwmod+1,i2unidad@i+1
  5011   0009AE  ECED  F00A         	call	i2_unidad	;wreg free
  5012                           
  5013                           ;Laboratorio_5.c: 404: color(contador / 10);
  5014   0009B2  C02C  F001         	movff	_contador,i2___lwdiv@dividend
  5015   0009B6  C02D  F002         	movff	_contador+1,i2___lwdiv@dividend+1
  5016   0009BA  0E00               	movlw	0
  5017   0009BC  6E04               	movwf	(i2___lwdiv@divisor+1)^0,c
  5018   0009BE  0E0A               	movlw	10
  5019   0009C0  6E03               	movwf	i2___lwdiv@divisor^0,c
  5020   0009C2  EC0D  F009         	call	i2___lwdiv	;wreg free
  5021   0009C6  C001  F008         	movff	?i2___lwdiv,i2color@i
  5022   0009CA  C002  F009         	movff	?i2___lwdiv+1,i2color@i+1
  5023   0009CE  EC5F  F008         	call	i2_color	;wreg free
  5024   0009D2  0012               	return		;funcret
  5025   0009D4                     __end_ofi2_mostrar_conteo:
  5026                           	callstack 0
  5027                           
  5028 ;; *************** function i2___awmod *****************
  5029 ;; Defined at:
  5030 ;;		line 7 in file "C:\Program Files\Microchip\xc8\v2.50\pic\sources\c90\common\awmod.c"
  5031 ;; Parameters:    Size  Location     Type
  5032 ;;  dividend        2    0[COMRAM] int 
  5033 ;;  divisor         2    2[COMRAM] int 
  5034 ;; Auto vars:     Size  Location     Type
  5035 ;;  sign            1    5[COMRAM] unsigned char 
  5036 ;;  counter         1    4[COMRAM] unsigned char 
  5037 ;; Return value:  Size  Location     Type
  5038 ;;                  2    0[COMRAM] int 
  5039 ;; Registers used:
  5040 ;;		wreg, status,2, status,0
  5041 ;; Tracked objects:
  5042 ;;		On entry : 0/0
  5043 ;;		On exit  : 0/0
  5044 ;;		Unchanged: 0/0
  5045 ;; Data sizes:     COMRAM   BANK0   BANK1   BANK2   BANK3   BANK4   BANK5   BANK6   BANK7
  5046 ;;      Params:         4       0       0       0       0       0       0       0       0
  5047 ;;      Locals:         2       0       0       0       0       0       0       0       0
  5048 ;;      Temps:          0       0       0       0       0       0       0       0       0
  5049 ;;      Totals:         6       0       0       0       0       0       0       0       0
  5050 ;;Total ram usage:        6 bytes
  5051 ;; Hardware stack levels used: 1
  5052 ;; This function calls:
  5053 ;;		Nothing
  5054 ;; This function is called by:
  5055 ;;		i2_mostrar_conteo
  5056 ;; This function uses a non-reentrant model
  5057 ;;
  5058                           
  5059                           	psect	text26
  5060   000FEE                     __ptext26:
  5061                           	callstack 0
  5062   000FEE                     i2___awmod:
  5063                           	callstack 25
  5064                           
  5065                           ;incstack = 0
  5066   000FEE  6A06               	clrf	i2___awmod@sign^0,c
  5067   000FF0  AE02               	btfss	(i2___awmod@dividend+1)^0,7,c
  5068   000FF2  D006               	goto	i2l2701
  5069   000FF4  6C01               	negf	i2___awmod@dividend^0,c
  5070   000FF6  1E02               	comf	(i2___awmod@dividend+1)^0,f,c
  5071   000FF8  B0D8               	btfsc	status,0,c
  5072   000FFA  2A02               	incf	(i2___awmod@dividend+1)^0,f,c
  5073   000FFC  0E01               	movlw	1
  5074   000FFE  6E06               	movwf	i2___awmod@sign^0,c
  5075   001000                     i2l2701:
  5076   001000  AE04               	btfss	(i2___awmod@divisor+1)^0,7,c
  5077   001002  D004               	goto	i2l2705
  5078   001004  6C03               	negf	i2___awmod@divisor^0,c
  5079   001006  1E04               	comf	(i2___awmod@divisor+1)^0,f,c
  5080   001008  B0D8               	btfsc	status,0,c
  5081   00100A  2A04               	incf	(i2___awmod@divisor+1)^0,f,c
  5082   00100C                     i2l2705:
  5083   00100C  5003               	movf	i2___awmod@divisor^0,w,c
  5084   00100E  1004               	iorwf	(i2___awmod@divisor+1)^0,w,c
  5085   001010  B4D8               	btfsc	status,2,c
  5086   001012  D018               	goto	i2l2721
  5087   001014  0E01               	movlw	1
  5088   001016  6E05               	movwf	i2___awmod@counter^0,c
  5089   001018  D004               	goto	i2l2711
  5090   00101A                     i2l2709:
  5091   00101A  90D8               	bcf	status,0,c
  5092   00101C  3603               	rlcf	i2___awmod@divisor^0,f,c
  5093   00101E  3604               	rlcf	(i2___awmod@divisor+1)^0,f,c
  5094   001020  2A05               	incf	i2___awmod@counter^0,f,c
  5095   001022                     i2l2711:
  5096   001022  AE04               	btfss	(i2___awmod@divisor+1)^0,7,c
  5097   001024  D7FA               	goto	i2l2709
  5098   001026                     i2u312_40:
  5099   001026  5003               	movf	i2___awmod@divisor^0,w,c
  5100   001028  5C01               	subwf	i2___awmod@dividend^0,w,c
  5101   00102A  5004               	movf	(i2___awmod@divisor+1)^0,w,c
  5102   00102C  5802               	subwfb	(i2___awmod@dividend+1)^0,w,c
  5103   00102E  A0D8               	btfss	status,0,c
  5104   001030  D004               	goto	i2l2717
  5105   001032  5003               	movf	i2___awmod@divisor^0,w,c
  5106   001034  5E01               	subwf	i2___awmod@dividend^0,f,c
  5107   001036  5004               	movf	(i2___awmod@divisor+1)^0,w,c
  5108   001038  5A02               	subwfb	(i2___awmod@dividend+1)^0,f,c
  5109   00103A                     i2l2717:
  5110   00103A  90D8               	bcf	status,0,c
  5111   00103C  3204               	rrcf	(i2___awmod@divisor+1)^0,f,c
  5112   00103E  3203               	rrcf	i2___awmod@divisor^0,f,c
  5113   001040  2E05               	decfsz	i2___awmod@counter^0,f,c
  5114   001042  D7F1               	goto	i2u312_40
  5115   001044                     i2l2721:
  5116   001044  5006               	movf	i2___awmod@sign^0,w,c
  5117   001046  B4D8               	btfsc	status,2,c
  5118   001048  D004               	goto	i2l2725
  5119   00104A  6C01               	negf	i2___awmod@dividend^0,c
  5120   00104C  1E02               	comf	(i2___awmod@dividend+1)^0,f,c
  5121   00104E  B0D8               	btfsc	status,0,c
  5122   001050  2A02               	incf	(i2___awmod@dividend+1)^0,f,c
  5123   001052                     i2l2725:
  5124   001052  C001  F001         	movff	i2___awmod@dividend,?i2___awmod
  5125   001056  C002  F002         	movff	i2___awmod@dividend+1,?i2___awmod+1
  5126   00105A  0012               	return		;funcret
  5127   00105C                     __end_ofi2___awmod:
  5128                           	callstack 0
  5129                           
  5130 ;; *************** function i2___awdiv *****************
  5131 ;; Defined at:
  5132 ;;		line 7 in file "C:\Program Files\Microchip\xc8\v2.50\pic\sources\c90\common\awdiv.c"
  5133 ;; Parameters:    Size  Location     Type
  5134 ;;  dividend        2    0[COMRAM] int 
  5135 ;;  divisor         2    2[COMRAM] int 
  5136 ;; Auto vars:     Size  Location     Type
  5137 ;;  quotient        2    6[COMRAM] int 
  5138 ;;  sign            1    5[COMRAM] unsigned char 
  5139 ;;  counter         1    4[COMRAM] unsigned char 
  5140 ;; Return value:  Size  Location     Type
  5141 ;;                  2    0[COMRAM] int 
  5142 ;; Registers used:
  5143 ;;		wreg, status,2, status,0
  5144 ;; Tracked objects:
  5145 ;;		On entry : 0/0
  5146 ;;		On exit  : 0/0
  5147 ;;		Unchanged: 0/0
  5148 ;; Data sizes:     COMRAM   BANK0   BANK1   BANK2   BANK3   BANK4   BANK5   BANK6   BANK7
  5149 ;;      Params:         4       0       0       0       0       0       0       0       0
  5150 ;;      Locals:         4       0       0       0       0       0       0       0       0
  5151 ;;      Temps:          0       0       0       0       0       0       0       0       0
  5152 ;;      Totals:         8       0       0       0       0       0       0       0       0
  5153 ;;Total ram usage:        8 bytes
  5154 ;; Hardware stack levels used: 1
  5155 ;; This function calls:
  5156 ;;		Nothing
  5157 ;; This function is called by:
  5158 ;;		i2_mostrar_conteo
  5159 ;; This function uses a non-reentrant model
  5160 ;;
  5161                           
  5162                           	psect	text27
  5163   000D9E                     __ptext27:
  5164                           	callstack 0
  5165   000D9E                     i2___awdiv:
  5166                           	callstack 25
  5167                           
  5168                           ;incstack = 0
  5169   000D9E  6A06               	clrf	i2___awdiv@sign^0,c
  5170   000DA0  AE04               	btfss	(i2___awdiv@divisor+1)^0,7,c
  5171   000DA2  D006               	goto	i2l2657
  5172   000DA4  6C03               	negf	i2___awdiv@divisor^0,c
  5173   000DA6  1E04               	comf	(i2___awdiv@divisor+1)^0,f,c
  5174   000DA8  B0D8               	btfsc	status,0,c
  5175   000DAA  2A04               	incf	(i2___awdiv@divisor+1)^0,f,c
  5176   000DAC  0E01               	movlw	1
  5177   000DAE  6E06               	movwf	i2___awdiv@sign^0,c
  5178   000DB0                     i2l2657:
  5179   000DB0  AE02               	btfss	(i2___awdiv@dividend+1)^0,7,c
  5180   000DB2  D006               	goto	i2l2663
  5181   000DB4  6C01               	negf	i2___awdiv@dividend^0,c
  5182   000DB6  1E02               	comf	(i2___awdiv@dividend+1)^0,f,c
  5183   000DB8  B0D8               	btfsc	status,0,c
  5184   000DBA  2A02               	incf	(i2___awdiv@dividend+1)^0,f,c
  5185   000DBC  0E01               	movlw	1
  5186   000DBE  1A06               	xorwf	i2___awdiv@sign^0,f,c
  5187   000DC0                     i2l2663:
  5188   000DC0  0E00               	movlw	0
  5189   000DC2  6E08               	movwf	(i2___awdiv@quotient+1)^0,c
  5190   000DC4  0E00               	movlw	0
  5191   000DC6  6E07               	movwf	i2___awdiv@quotient^0,c
  5192   000DC8  5003               	movf	i2___awdiv@divisor^0,w,c
  5193   000DCA  1004               	iorwf	(i2___awdiv@divisor+1)^0,w,c
  5194   000DCC  B4D8               	btfsc	status,2,c
  5195   000DCE  D01C               	goto	i2l2685
  5196   000DD0  0E01               	movlw	1
  5197   000DD2  6E05               	movwf	i2___awdiv@counter^0,c
  5198   000DD4  D004               	goto	i2l2671
  5199   000DD6                     i2l2669:
  5200   000DD6  90D8               	bcf	status,0,c
  5201   000DD8  3603               	rlcf	i2___awdiv@divisor^0,f,c
  5202   000DDA  3604               	rlcf	(i2___awdiv@divisor+1)^0,f,c
  5203   000DDC  2A05               	incf	i2___awdiv@counter^0,f,c
  5204   000DDE                     i2l2671:
  5205   000DDE  AE04               	btfss	(i2___awdiv@divisor+1)^0,7,c
  5206   000DE0  D7FA               	goto	i2l2669
  5207   000DE2                     i2u306_40:
  5208   000DE2  90D8               	bcf	status,0,c
  5209   000DE4  3607               	rlcf	i2___awdiv@quotient^0,f,c
  5210   000DE6  3608               	rlcf	(i2___awdiv@quotient+1)^0,f,c
  5211   000DE8  5003               	movf	i2___awdiv@divisor^0,w,c
  5212   000DEA  5C01               	subwf	i2___awdiv@dividend^0,w,c
  5213   000DEC  5004               	movf	(i2___awdiv@divisor+1)^0,w,c
  5214   000DEE  5802               	subwfb	(i2___awdiv@dividend+1)^0,w,c
  5215   000DF0  A0D8               	btfss	status,0,c
  5216   000DF2  D005               	goto	i2l2681
  5217   000DF4  5003               	movf	i2___awdiv@divisor^0,w,c
  5218   000DF6  5E01               	subwf	i2___awdiv@dividend^0,f,c
  5219   000DF8  5004               	movf	(i2___awdiv@divisor+1)^0,w,c
  5220   000DFA  5A02               	subwfb	(i2___awdiv@dividend+1)^0,f,c
  5221   000DFC  8007               	bsf	i2___awdiv@quotient^0,0,c
  5222   000DFE                     i2l2681:
  5223   000DFE  90D8               	bcf	status,0,c
  5224   000E00  3204               	rrcf	(i2___awdiv@divisor+1)^0,f,c
  5225   000E02  3203               	rrcf	i2___awdiv@divisor^0,f,c
  5226   000E04  2E05               	decfsz	i2___awdiv@counter^0,f,c
  5227   000E06  D7ED               	goto	i2u306_40
  5228   000E08                     i2l2685:
  5229   000E08  5006               	movf	i2___awdiv@sign^0,w,c
  5230   000E0A  B4D8               	btfsc	status,2,c
  5231   000E0C  D004               	goto	i2l2689
  5232   000E0E  6C07               	negf	i2___awdiv@quotient^0,c
  5233   000E10  1E08               	comf	(i2___awdiv@quotient+1)^0,f,c
  5234   000E12  B0D8               	btfsc	status,0,c
  5235   000E14  2A08               	incf	(i2___awdiv@quotient+1)^0,f,c
  5236   000E16                     i2l2689:
  5237   000E16  C007  F001         	movff	i2___awdiv@quotient,?i2___awdiv
  5238   000E1A  C008  F002         	movff	i2___awdiv@quotient+1,?i2___awdiv+1
  5239   000E1E  0012               	return		;funcret
  5240   000E20                     __end_ofi2___awdiv:
  5241                           	callstack 0
  5242                           
  5243 ;; *************** function i2_mostrar_completado *****************
  5244 ;; Defined at:
  5245 ;;		line 429 in file "Laboratorio_5.c"
  5246 ;; Parameters:    Size  Location     Type
  5247 ;;		None
  5248 ;; Auto vars:     Size  Location     Type
  5249 ;;		None
  5250 ;; Return value:  Size  Location     Type
  5251 ;;                  1    wreg      void 
  5252 ;; Registers used:
  5253 ;;		wreg, status,2, status,0, tblptrl, tblptrh, tblptru, cstack
  5254 ;; Tracked objects:
  5255 ;;		On entry : 0/0
  5256 ;;		On exit  : 0/0
  5257 ;;		Unchanged: 0/0
  5258 ;; Data sizes:     COMRAM   BANK0   BANK1   BANK2   BANK3   BANK4   BANK5   BANK6   BANK7
  5259 ;;      Params:         0       0       0       0       0       0       0       0       0
  5260 ;;      Locals:         0       0       0       0       0       0       0       0       0
  5261 ;;      Temps:          0       0       0       0       0       0       0       0       0
  5262 ;;      Totals:         0       0       0       0       0       0       0       0       0
  5263 ;;Total ram usage:        0 bytes
  5264 ;; Hardware stack levels used: 1
  5265 ;; Hardware stack levels required when called: 2
  5266 ;; This function calls:
  5267 ;;		i2_Lcd_Clear
  5268 ;;		i2_Lcd_Set_Cursor
  5269 ;;		i2_Lcd_String
  5270 ;;		i2___lwdiv
  5271 ;;		i2___lwmod
  5272 ;;		i2_color
  5273 ;;		i2_unidad
  5274 ;; This function is called by:
  5275 ;;		_ISR
  5276 ;; This function uses a non-reentrant model
  5277 ;;
  5278                           
  5279                           	psect	text28
  5280   000F0E                     __ptext28:
  5281                           	callstack 0
  5282   000F0E                     i2_mostrar_completado:
  5283                           	callstack 24
  5284                           
  5285                           ;Laboratorio_5.c: 430: unidad(objetivo%10);
  5286                           
  5287                           ;incstack = 0
  5288   000F0E  C02E  F001         	movff	_objetivo,i2___lwmod@dividend
  5289   000F12  C02F  F002         	movff	_objetivo+1,i2___lwmod@dividend+1
  5290   000F16  0E00               	movlw	0
  5291   000F18  6E04               	movwf	(i2___lwmod@divisor+1)^0,c
  5292   000F1A  0E0A               	movlw	10
  5293   000F1C  6E03               	movwf	i2___lwmod@divisor^0,c
  5294   000F1E  EC9C  F009         	call	i2___lwmod	;wreg free
  5295   000F22  C001  F006         	movff	?i2___lwmod,i2unidad@i
  5296   000F26  C002  F007         	movff	?i2___lwmod+1,i2unidad@i+1
  5297   000F2A  ECED  F00A         	call	i2_unidad	;wreg free
  5298                           
  5299                           ;Laboratorio_5.c: 431: color(objetivo/10);
  5300   000F2E  C02E  F001         	movff	_objetivo,i2___lwdiv@dividend
  5301   000F32  C02F  F002         	movff	_objetivo+1,i2___lwdiv@dividend+1
  5302   000F36  0E00               	movlw	0
  5303   000F38  6E04               	movwf	(i2___lwdiv@divisor+1)^0,c
  5304   000F3A  0E0A               	movlw	10
  5305   000F3C  6E03               	movwf	i2___lwdiv@divisor^0,c
  5306   000F3E  EC0D  F009         	call	i2___lwdiv	;wreg free
  5307   000F42  C001  F008         	movff	?i2___lwdiv,i2color@i
  5308   000F46  C002  F009         	movff	?i2___lwdiv+1,i2color@i+1
  5309   000F4A  EC5F  F008         	call	i2_color	;wreg free
  5310                           
  5311                           ;Laboratorio_5.c: 432: Lcd_Clear();
  5312   000F4E  ECFE  F00A         	call	i2_Lcd_Clear	;wreg free
  5313                           
  5314                           ;Laboratorio_5.c: 433: Lcd_Set_Cursor(1, 1);
  5315   000F52  0E01               	movlw	1
  5316   000F54  6E04               	movwf	i2Lcd_Set_Cursor@column^0,c
  5317   000F56  0E01               	movlw	1
  5318   000F58  EC90  F00A         	call	i2_Lcd_Set_Cursor
  5319                           
  5320                           ;Laboratorio_5.c: 434: Lcd_String("Conteo Completo!");
  5321   000F5C  0E51               	movlw	low STR_10
  5322   000F5E  6E04               	movwf	i2Lcd_String@str^0,c
  5323   000F60  0E7F               	movlw	high STR_10
  5324   000F62  6E05               	movwf	(i2Lcd_String@str+1)^0,c
  5325   000F64  EC40  F00A         	call	i2_Lcd_String	;wreg free
  5326                           
  5327                           ;Laboratorio_5.c: 435: Lcd_Set_Cursor(2, 1);
  5328   000F68  0E01               	movlw	1
  5329   000F6A  6E04               	movwf	i2Lcd_Set_Cursor@column^0,c
  5330   000F6C  0E02               	movlw	2
  5331   000F6E  EC90  F00A         	call	i2_Lcd_Set_Cursor
  5332                           
  5333                           ;Laboratorio_5.c: 436: Lcd_String("Presione OK");
  5334   000F72  0EDE               	movlw	low STR_11
  5335   000F74  6E04               	movwf	i2Lcd_String@str^0,c
  5336   000F76  0E7F               	movlw	high STR_11
  5337   000F78  6E05               	movwf	(i2Lcd_String@str+1)^0,c
  5338   000F7A  EC40  F00A         	call	i2_Lcd_String	;wreg free
  5339   000F7E  0012               	return		;funcret
  5340   000F80                     __end_ofi2_mostrar_completado:
  5341                           	callstack 0
  5342                           
  5343 ;; *************** function i2_unidad *****************
  5344 ;; Defined at:
  5345 ;;		line 407 in file "Laboratorio_5.c"
  5346 ;; Parameters:    Size  Location     Type
  5347 ;;  i               2    5[COMRAM] int 
  5348 ;; Auto vars:     Size  Location     Type
  5349 ;;		None
  5350 ;; Return value:  Size  Location     Type
  5351 ;;                  1    wreg      void 
  5352 ;; Registers used:
  5353 ;;		wreg, status,2, status,0
  5354 ;; Tracked objects:
  5355 ;;		On entry : 0/0
  5356 ;;		On exit  : 0/0
  5357 ;;		Unchanged: 0/0
  5358 ;; Data sizes:     COMRAM   BANK0   BANK1   BANK2   BANK3   BANK4   BANK5   BANK6   BANK7
  5359 ;;      Params:         2       0       0       0       0       0       0       0       0
  5360 ;;      Locals:         0       0       0       0       0       0       0       0       0
  5361 ;;      Temps:          1       0       0       0       0       0       0       0       0
  5362 ;;      Totals:         3       0       0       0       0       0       0       0       0
  5363 ;;Total ram usage:        3 bytes
  5364 ;; Hardware stack levels used: 1
  5365 ;; This function calls:
  5366 ;;		Nothing
  5367 ;; This function is called by:
  5368 ;;		_ISR
  5369 ;;		i2_mostrar_conteo
  5370 ;;		i2_mostrar_completado
  5371 ;; This function uses a non-reentrant model
  5372 ;;
  5373                           
  5374                           	psect	text29
  5375   0015DA                     __ptext29:
  5376                           	callstack 0
  5377   0015DA                     i2_unidad:
  5378                           	callstack 26
  5379                           
  5380                           ;Laboratorio_5.c: 408: LATD = (LATD & 0xF0) | (i & 0x0F);
  5381                           
  5382                           ;incstack = 0
  5383   0015DA  C006  F008         	movff	i2unidad@i,??i2_unidad
  5384   0015DE  0E0F               	movlw	15
  5385   0015E0  1608               	andwf	??i2_unidad^0,f,c
  5386   0015E2  508C               	movf	140,w,c	;volatile
  5387   0015E4  0BF0               	andlw	240
  5388   0015E6  1008               	iorwf	??i2_unidad^0,w,c
  5389   0015E8  6E8C               	movwf	140,c	;volatile
  5390   0015EA  0012               	return		;funcret
  5391   0015EC                     __end_ofi2_unidad:
  5392                           	callstack 0
  5393                           
  5394 ;; *************** function i2_color *****************
  5395 ;; Defined at:
  5396 ;;		line 411 in file "Laboratorio_5.c"
  5397 ;; Parameters:    Size  Location     Type
  5398 ;;  i               2    7[COMRAM] int 
  5399 ;; Auto vars:     Size  Location     Type
  5400 ;;		None
  5401 ;; Return value:  Size  Location     Type
  5402 ;;                  1    wreg      void 
  5403 ;; Registers used:
  5404 ;;		wreg, status,2, status,0
  5405 ;; Tracked objects:
  5406 ;;		On entry : 0/0
  5407 ;;		On exit  : 0/0
  5408 ;;		Unchanged: 0/0
  5409 ;; Data sizes:     COMRAM   BANK0   BANK1   BANK2   BANK3   BANK4   BANK5   BANK6   BANK7
  5410 ;;      Params:         2       0       0       0       0       0       0       0       0
  5411 ;;      Locals:         0       0       0       0       0       0       0       0       0
  5412 ;;      Temps:          2       0       0       0       0       0       0       0       0
  5413 ;;      Totals:         4       0       0       0       0       0       0       0       0
  5414 ;;Total ram usage:        4 bytes
  5415 ;; Hardware stack levels used: 1
  5416 ;; This function calls:
  5417 ;;		Nothing
  5418 ;; This function is called by:
  5419 ;;		_ISR
  5420 ;;		i2_mostrar_conteo
  5421 ;;		i2_mostrar_completado
  5422 ;; This function uses a non-reentrant model
  5423 ;;
  5424                           
  5425                           	psect	text30
  5426   0010BE                     __ptext30:
  5427                           	callstack 0
  5428   0010BE                     i2_color:
  5429                           	callstack 25
  5430                           
  5431                           ;Laboratorio_5.c: 412: switch (i) {
  5432                           
  5433                           ;incstack = 0
  5434   0010BE  D014               	goto	i2l2643
  5435   0010C0                     i2l2629:
  5436   0010C0  0E05               	movlw	5
  5437   0010C2  6E8D               	movwf	141,c	;volatile
  5438   0010C4  0012               	return	
  5439   0010C6                     i2l2631:
  5440   0010C6  0E04               	movlw	4
  5441   0010C8  6E8D               	movwf	141,c	;volatile
  5442   0010CA  0012               	return	
  5443   0010CC                     i2l2633:
  5444   0010CC  0E06               	movlw	6
  5445   0010CE  6E8D               	movwf	141,c	;volatile
  5446   0010D0  0012               	return	
  5447   0010D2                     i2l2635:
  5448   0010D2  0E02               	movlw	2
  5449   0010D4  6E8D               	movwf	141,c	;volatile
  5450   0010D6  0012               	return	
  5451   0010D8                     i2l2637:
  5452   0010D8  0E03               	movlw	3
  5453   0010DA  6E8D               	movwf	141,c	;volatile
  5454   0010DC  0012               	return	
  5455   0010DE                     i2l2639:
  5456   0010DE  0E07               	movlw	7
  5457   0010E0  6E8D               	movwf	141,c	;volatile
  5458   0010E2  0012               	return	
  5459   0010E4                     i2l345:
  5460   0010E4  6A8D               	clrf	141,c	;volatile
  5461   0010E6  0012               	return	
  5462   0010E8                     i2l2643:
  5463   0010E8  C008  F00A         	movff	i2color@i,??i2_color
  5464   0010EC  C009  F00B         	movff	i2color@i+1,??i2_color+1
  5465                           
  5466                           ; Switch on 2 bytes has been partitioned into a top level switch of size 1, and 1 sub-sw
      +                          itches
  5467                           ; Switch size 1, requested type "simple"
  5468                           ; Number of cases is 1, Range of values is 0 to 0
  5469                           ; switch strategies available:
  5470                           ; Name         Instructions Cycles
  5471                           ; simple_byte            4     3 (average)
  5472                           ;	Chosen strategy is simple_byte
  5473   0010F0  500B               	movf	(??i2_color+1)^0,w,c
  5474   0010F2  0A00               	xorlw	0	; case 0
  5475   0010F4  A4D8               	btfss	status,2,c
  5476   0010F6  D7F6               	goto	i2l345
  5477                           
  5478                           ; Switch size 1, requested type "simple"
  5479                           ; Number of cases is 6, Range of values is 0 to 5
  5480                           ; switch strategies available:
  5481                           ; Name         Instructions Cycles
  5482                           ; simple_byte           19    10 (average)
  5483                           ;	Chosen strategy is simple_byte
  5484   0010F8  500A               	movf	??i2_color^0,w,c
  5485   0010FA  0A00               	xorlw	0	; case 0
  5486   0010FC  B4D8               	btfsc	status,2,c
  5487   0010FE  D7E0               	goto	i2l2629
  5488   001100  0A01               	xorlw	1	; case 1
  5489   001102  B4D8               	btfsc	status,2,c
  5490   001104  D7E0               	goto	i2l2631
  5491   001106  0A03               	xorlw	3	; case 2
  5492   001108  B4D8               	btfsc	status,2,c
  5493   00110A  D7E0               	goto	i2l2633
  5494   00110C  0A01               	xorlw	1	; case 3
  5495   00110E  B4D8               	btfsc	status,2,c
  5496   001110  D7E0               	goto	i2l2635
  5497   001112  0A07               	xorlw	7	; case 4
  5498   001114  B4D8               	btfsc	status,2,c
  5499   001116  D7E0               	goto	i2l2637
  5500   001118  0A01               	xorlw	1	; case 5
  5501   00111A  B4D8               	btfsc	status,2,c
  5502   00111C  D7E0               	goto	i2l2639
  5503   00111E  D7E2               	goto	i2l345
  5504   001120                     __end_ofi2_color:
  5505                           	callstack 0
  5506                           
  5507 ;; *************** function i2___lwmod *****************
  5508 ;; Defined at:
  5509 ;;		line 7 in file "C:\Program Files\Microchip\xc8\v2.50\pic\sources\c90\common\lwmod.c"
  5510 ;; Parameters:    Size  Location     Type
  5511 ;;  dividend        2    0[COMRAM] unsigned int 
  5512 ;;  divisor         2    2[COMRAM] unsigned int 
  5513 ;; Auto vars:     Size  Location     Type
  5514 ;;  counter         1    4[COMRAM] unsigned char 
  5515 ;; Return value:  Size  Location     Type
  5516 ;;                  2    0[COMRAM] unsigned int 
  5517 ;; Registers used:
  5518 ;;		wreg, status,2, status,0
  5519 ;; Tracked objects:
  5520 ;;		On entry : 0/0
  5521 ;;		On exit  : 0/0
  5522 ;;		Unchanged: 0/0
  5523 ;; Data sizes:     COMRAM   BANK0   BANK1   BANK2   BANK3   BANK4   BANK5   BANK6   BANK7
  5524 ;;      Params:         4       0       0       0       0       0       0       0       0
  5525 ;;      Locals:         1       0       0       0       0       0       0       0       0
  5526 ;;      Temps:          0       0       0       0       0       0       0       0       0
  5527 ;;      Totals:         5       0       0       0       0       0       0       0       0
  5528 ;;Total ram usage:        5 bytes
  5529 ;; Hardware stack levels used: 1
  5530 ;; This function calls:
  5531 ;;		Nothing
  5532 ;; This function is called by:
  5533 ;;		_ISR
  5534 ;;		i2_mostrar_conteo
  5535 ;;		i2_mostrar_completado
  5536 ;; This function uses a non-reentrant model
  5537 ;;
  5538                           
  5539                           	psect	text31
  5540   001338                     __ptext31:
  5541                           	callstack 0
  5542   001338                     i2___lwmod:
  5543                           	callstack 25
  5544                           
  5545                           ;incstack = 0
  5546   001338  5003               	movf	i2___lwmod@divisor^0,w,c
  5547   00133A  1004               	iorwf	(i2___lwmod@divisor+1)^0,w,c
  5548   00133C  B4D8               	btfsc	status,2,c
  5549   00133E  D018               	goto	i2l903
  5550   001340  0E01               	movlw	1
  5551   001342  6E05               	movwf	i2___lwmod@counter^0,c
  5552   001344  D004               	goto	i2l2757
  5553   001346                     i2l2755:
  5554   001346  90D8               	bcf	status,0,c
  5555   001348  3603               	rlcf	i2___lwmod@divisor^0,f,c
  5556   00134A  3604               	rlcf	(i2___lwmod@divisor+1)^0,f,c
  5557   00134C  2A05               	incf	i2___lwmod@counter^0,f,c
  5558   00134E                     i2l2757:
  5559   00134E  AE04               	btfss	(i2___lwmod@divisor+1)^0,7,c
  5560   001350  D7FA               	goto	i2l2755
  5561   001352                     i2u319_40:
  5562   001352  5003               	movf	i2___lwmod@divisor^0,w,c
  5563   001354  5C01               	subwf	i2___lwmod@dividend^0,w,c
  5564   001356  5004               	movf	(i2___lwmod@divisor+1)^0,w,c
  5565   001358  5802               	subwfb	(i2___lwmod@dividend+1)^0,w,c
  5566   00135A  A0D8               	btfss	status,0,c
  5567   00135C  D004               	goto	i2l2763
  5568   00135E  5003               	movf	i2___lwmod@divisor^0,w,c
  5569   001360  5E01               	subwf	i2___lwmod@dividend^0,f,c
  5570   001362  5004               	movf	(i2___lwmod@divisor+1)^0,w,c
  5571   001364  5A02               	subwfb	(i2___lwmod@dividend+1)^0,f,c
  5572   001366                     i2l2763:
  5573   001366  90D8               	bcf	status,0,c
  5574   001368  3204               	rrcf	(i2___lwmod@divisor+1)^0,f,c
  5575   00136A  3203               	rrcf	i2___lwmod@divisor^0,f,c
  5576   00136C  2E05               	decfsz	i2___lwmod@counter^0,f,c
  5577   00136E  D7F1               	goto	i2u319_40
  5578   001370                     i2l903:
  5579   001370  C001  F001         	movff	i2___lwmod@dividend,?i2___lwmod
  5580   001374  C002  F002         	movff	i2___lwmod@dividend+1,?i2___lwmod+1
  5581   001378  0012               	return		;funcret
  5582   00137A                     __end_ofi2___lwmod:
  5583                           	callstack 0
  5584                           
  5585 ;; *************** function i2___lwdiv *****************
  5586 ;; Defined at:
  5587 ;;		line 7 in file "C:\Program Files\Microchip\xc8\v2.50\pic\sources\c90\common\lwdiv.c"
  5588 ;; Parameters:    Size  Location     Type
  5589 ;;  dividend        2    0[COMRAM] unsigned int 
  5590 ;;  divisor         2    2[COMRAM] unsigned int 
  5591 ;; Auto vars:     Size  Location     Type
  5592 ;;  quotient        2    4[COMRAM] unsigned int 
  5593 ;;  counter         1    6[COMRAM] unsigned char 
  5594 ;; Return value:  Size  Location     Type
  5595 ;;                  2    0[COMRAM] unsigned int 
  5596 ;; Registers used:
  5597 ;;		wreg, status,2, status,0
  5598 ;; Tracked objects:
  5599 ;;		On entry : 0/0
  5600 ;;		On exit  : 0/0
  5601 ;;		Unchanged: 0/0
  5602 ;; Data sizes:     COMRAM   BANK0   BANK1   BANK2   BANK3   BANK4   BANK5   BANK6   BANK7
  5603 ;;      Params:         4       0       0       0       0       0       0       0       0
  5604 ;;      Locals:         3       0       0       0       0       0       0       0       0
  5605 ;;      Temps:          0       0       0       0       0       0       0       0       0
  5606 ;;      Totals:         7       0       0       0       0       0       0       0       0
  5607 ;;Total ram usage:        7 bytes
  5608 ;; Hardware stack levels used: 1
  5609 ;; This function calls:
  5610 ;;		Nothing
  5611 ;; This function is called by:
  5612 ;;		_ISR
  5613 ;;		i2_mostrar_conteo
  5614 ;;		i2_mostrar_completado
  5615 ;; This function uses a non-reentrant model
  5616 ;;
  5617                           
  5618                           	psect	text32
  5619   00121A                     __ptext32:
  5620                           	callstack 0
  5621   00121A                     i2___lwdiv:
  5622                           	callstack 25
  5623                           
  5624                           ;incstack = 0
  5625   00121A  0E00               	movlw	0
  5626   00121C  6E06               	movwf	(i2___lwdiv@quotient+1)^0,c
  5627   00121E  0E00               	movlw	0
  5628   001220  6E05               	movwf	i2___lwdiv@quotient^0,c
  5629   001222  5003               	movf	i2___lwdiv@divisor^0,w,c
  5630   001224  1004               	iorwf	(i2___lwdiv@divisor+1)^0,w,c
  5631   001226  B4D8               	btfsc	status,2,c
  5632   001228  D01C               	goto	i2l893
  5633   00122A  0E01               	movlw	1
  5634   00122C  6E07               	movwf	i2___lwdiv@counter^0,c
  5635   00122E  D004               	goto	i2l2737
  5636   001230                     i2l2735:
  5637   001230  90D8               	bcf	status,0,c
  5638   001232  3603               	rlcf	i2___lwdiv@divisor^0,f,c
  5639   001234  3604               	rlcf	(i2___lwdiv@divisor+1)^0,f,c
  5640   001236  2A07               	incf	i2___lwdiv@counter^0,f,c
  5641   001238                     i2l2737:
  5642   001238  AE04               	btfss	(i2___lwdiv@divisor+1)^0,7,c
  5643   00123A  D7FA               	goto	i2l2735
  5644   00123C                     i2u316_40:
  5645   00123C  90D8               	bcf	status,0,c
  5646   00123E  3605               	rlcf	i2___lwdiv@quotient^0,f,c
  5647   001240  3606               	rlcf	(i2___lwdiv@quotient+1)^0,f,c
  5648   001242  5003               	movf	i2___lwdiv@divisor^0,w,c
  5649   001244  5C01               	subwf	i2___lwdiv@dividend^0,w,c
  5650   001246  5004               	movf	(i2___lwdiv@divisor+1)^0,w,c
  5651   001248  5802               	subwfb	(i2___lwdiv@dividend+1)^0,w,c
  5652   00124A  A0D8               	btfss	status,0,c
  5653   00124C  D005               	goto	i2l2747
  5654   00124E  5003               	movf	i2___lwdiv@divisor^0,w,c
  5655   001250  5E01               	subwf	i2___lwdiv@dividend^0,f,c
  5656   001252  5004               	movf	(i2___lwdiv@divisor+1)^0,w,c
  5657   001254  5A02               	subwfb	(i2___lwdiv@dividend+1)^0,f,c
  5658   001256  8005               	bsf	i2___lwdiv@quotient^0,0,c
  5659   001258                     i2l2747:
  5660   001258  90D8               	bcf	status,0,c
  5661   00125A  3204               	rrcf	(i2___lwdiv@divisor+1)^0,f,c
  5662   00125C  3203               	rrcf	i2___lwdiv@divisor^0,f,c
  5663   00125E  2E07               	decfsz	i2___lwdiv@counter^0,f,c
  5664   001260  D7ED               	goto	i2u316_40
  5665   001262                     i2l893:
  5666   001262  C005  F001         	movff	i2___lwdiv@quotient,?i2___lwdiv
  5667   001266  C006  F002         	movff	i2___lwdiv@quotient+1,?i2___lwdiv+1
  5668   00126A  0012               	return		;funcret
  5669   00126C                     __end_ofi2___lwdiv:
  5670                           	callstack 0
  5671                           
  5672 ;; *************** function i2_emergencia *****************
  5673 ;; Defined at:
  5674 ;;		line 439 in file "Laboratorio_5.c"
  5675 ;; Parameters:    Size  Location     Type
  5676 ;;		None
  5677 ;; Auto vars:     Size  Location     Type
  5678 ;;		None
  5679 ;; Return value:  Size  Location     Type
  5680 ;;                  1    wreg      void 
  5681 ;; Registers used:
  5682 ;;		wreg, status,2, status,0, tblptrl, tblptrh, tblptru, cstack
  5683 ;; Tracked objects:
  5684 ;;		On entry : 0/0
  5685 ;;		On exit  : 0/0
  5686 ;;		Unchanged: 0/0
  5687 ;; Data sizes:     COMRAM   BANK0   BANK1   BANK2   BANK3   BANK4   BANK5   BANK6   BANK7
  5688 ;;      Params:         0       0       0       0       0       0       0       0       0
  5689 ;;      Locals:         0       0       0       0       0       0       0       0       0
  5690 ;;      Temps:          0       0       0       0       0       0       0       0       0
  5691 ;;      Totals:         0       0       0       0       0       0       0       0       0
  5692 ;;Total ram usage:        0 bytes
  5693 ;; Hardware stack levels used: 1
  5694 ;; Hardware stack levels required when called: 2
  5695 ;; This function calls:
  5696 ;;		i2_Lcd_Clear
  5697 ;;		i2_Lcd_Set_Cursor
  5698 ;;		i2_Lcd_String
  5699 ;; This function is called by:
  5700 ;;		_ISR
  5701 ;; This function uses a non-reentrant model
  5702 ;;
  5703                           
  5704                           	psect	text33
  5705   00137A                     __ptext33:
  5706                           	callstack 0
  5707   00137A                     i2_emergencia:
  5708                           	callstack 24
  5709                           
  5710                           ;Laboratorio_5.c: 440: estado = 4;
  5711                           
  5712                           ;incstack = 0
  5713   00137A  0E00               	movlw	0
  5714   00137C  6E31               	movwf	(_estado+1)^0,c
  5715   00137E  0E04               	movlw	4
  5716   001380  6E30               	movwf	_estado^0,c
  5717                           
  5718                           ;Laboratorio_5.c: 441: Lcd_Clear();
  5719   001382  ECFE  F00A         	call	i2_Lcd_Clear	;wreg free
  5720                           
  5721                           ;Laboratorio_5.c: 442: Lcd_Set_Cursor(1, 1);
  5722   001386  0E01               	movlw	1
  5723   001388  6E04               	movwf	i2Lcd_Set_Cursor@column^0,c
  5724   00138A  0E01               	movlw	1
  5725   00138C  EC90  F00A         	call	i2_Lcd_Set_Cursor
  5726                           
  5727                           ;Laboratorio_5.c: 443: Lcd_String("! EMERGENCIA !");
  5728   001390  0EA4               	movlw	low STR_12
  5729   001392  6E04               	movwf	i2Lcd_String@str^0,c
  5730   001394  0E7F               	movlw	high STR_12
  5731   001396  6E05               	movwf	(i2Lcd_String@str+1)^0,c
  5732   001398  EC40  F00A         	call	i2_Lcd_String	;wreg free
  5733                           
  5734                           ;Laboratorio_5.c: 444: Lcd_Set_Cursor(2, 1);
  5735   00139C  0E01               	movlw	1
  5736   00139E  6E04               	movwf	i2Lcd_Set_Cursor@column^0,c
  5737   0013A0  0E02               	movlw	2
  5738   0013A2  EC90  F00A         	call	i2_Lcd_Set_Cursor
  5739                           
  5740                           ;Laboratorio_5.c: 445: Lcd_String("Reset manual");
  5741   0013A6  0ED1               	movlw	low STR_13
  5742   0013A8  6E04               	movwf	i2Lcd_String@str^0,c
  5743   0013AA  0E7F               	movlw	high STR_13
  5744   0013AC  6E05               	movwf	(i2Lcd_String@str+1)^0,c
  5745   0013AE  EC40  F00A         	call	i2_Lcd_String	;wreg free
  5746                           
  5747                           ;Laboratorio_5.c: 446: LATE = 0b00000001;
  5748   0013B2  0E01               	movlw	1
  5749   0013B4  6E8D               	movwf	141,c	;volatile
  5750                           
  5751                           ;Laboratorio_5.c: 447: LATC2 = 0;
  5752   0013B6  948B               	bcf	3979,2,c	;volatile
  5753                           
  5754                           ;Laboratorio_5.c: 448: TMR0ON = 0;
  5755   0013B8  9ED5               	bcf	4053,7,c	;volatile
  5756   0013BA                     i2l355:
  5757   0013BA  D7FF               	goto	i2l355
  5758   0013BC                     __end_ofi2_emergencia:
  5759                           	callstack 0
  5760                           
  5761 ;; *************** function i2_Lcd_String *****************
  5762 ;; Defined at:
  5763 ;;		line 50 in file "lcd.c"
  5764 ;; Parameters:    Size  Location     Type
  5765 ;;  str             2    3[COMRAM] PTR const unsigned char 
  5766 ;;		 -> STR_16(17), STR_15(17), STR_14(22), STR_13(13), 
  5767 ;;		 -> STR_12(15), STR_11(12), STR_10(17), STR_9(15), 
  5768 ;;		 -> STR_8(11), STR_7(10), STR_1(15), 
  5769 ;; Auto vars:     Size  Location     Type
  5770 ;;		None
  5771 ;; Return value:  Size  Location     Type
  5772 ;;                  1    wreg      void 
  5773 ;; Registers used:
  5774 ;;		wreg, status,2, status,0, tblptrl, tblptrh, tblptru, cstack
  5775 ;; Tracked objects:
  5776 ;;		On entry : 0/0
  5777 ;;		On exit  : 0/0
  5778 ;;		Unchanged: 0/0
  5779 ;; Data sizes:     COMRAM   BANK0   BANK1   BANK2   BANK3   BANK4   BANK5   BANK6   BANK7
  5780 ;;      Params:         2       0       0       0       0       0       0       0       0
  5781 ;;      Locals:         0       0       0       0       0       0       0       0       0
  5782 ;;      Temps:          0       0       0       0       0       0       0       0       0
  5783 ;;      Totals:         2       0       0       0       0       0       0       0       0
  5784 ;;Total ram usage:        2 bytes
  5785 ;; Hardware stack levels used: 1
  5786 ;; Hardware stack levels required when called: 1
  5787 ;; This function calls:
  5788 ;;		i2_Lcd_Char
  5789 ;; This function is called by:
  5790 ;;		i2_mostrar_conteo
  5791 ;;		i2_mostrar_valor
  5792 ;;		i2_mostrar_completado
  5793 ;;		i2_emergencia
  5794 ;; This function uses a non-reentrant model
  5795 ;;
  5796                           
  5797                           	psect	text34
  5798   001480                     __ptext34:
  5799                           	callstack 0
  5800   001480                     i2_Lcd_String:
  5801                           	callstack 24
  5802                           
  5803                           ;lcd.c: 51: while (*str) {
  5804                           
  5805                           ;incstack = 0
  5806   001480  D00A               	goto	i2l2609
  5807   001482                     i2l2605:
  5808                           
  5809                           ;lcd.c: 52: Lcd_Char(*str++);
  5810   001482  C004  FFF6         	movff	i2Lcd_String@str,tblptrl
  5811   001486  C005  FFF7         	movff	i2Lcd_String@str+1,tblptrh
  5812   00148A                     	if	0	;tblptru may be non-zero
  5813   00148A                     	endif
  5814   00148A                     	if	0	;tblptru may be non-zero
  5815   00148A                     	endif
  5816   00148A  0008               	tblrd		*
  5817   00148C  50F5               	movf	tablat,w,c
  5818   00148E  ECBC  F005         	call	i2_Lcd_Char
  5819   001492  4A04               	infsnz	i2Lcd_String@str^0,f,c
  5820   001494  2A05               	incf	(i2Lcd_String@str+1)^0,f,c
  5821   001496                     i2l2609:
  5822   001496  C004  FFF6         	movff	i2Lcd_String@str,tblptrl
  5823   00149A  C005  FFF7         	movff	i2Lcd_String@str+1,tblptrh
  5824   00149E                     	if	0	;tblptru may be non-zero
  5825   00149E                     	endif
  5826   00149E                     	if	0	;tblptru may be non-zero
  5827   00149E                     	endif
  5828   00149E  0008               	tblrd		*
  5829   0014A0  50F5               	movf	tablat,w,c
  5830   0014A2  0900               	iorlw	0
  5831   0014A4  B4D8               	btfsc	status,2,c
  5832   0014A6  0012               	return	
  5833   0014A8  D7EC               	goto	i2l2605
  5834   0014AA                     __end_ofi2_Lcd_String:
  5835                           	callstack 0
  5836                           
  5837 ;; *************** function i2_Lcd_Char *****************
  5838 ;; Defined at:
  5839 ;;		line 35 in file "lcd.c"
  5840 ;; Parameters:    Size  Location     Type
  5841 ;;  data            1    wreg     unsigned char 
  5842 ;; Auto vars:     Size  Location     Type
  5843 ;;  data            1    2[COMRAM] unsigned char 
  5844 ;; Return value:  Size  Location     Type
  5845 ;;                  1    wreg      void 
  5846 ;; Registers used:
  5847 ;;		wreg, status,2, status,0
  5848 ;; Tracked objects:
  5849 ;;		On entry : 0/0
  5850 ;;		On exit  : 0/0
  5851 ;;		Unchanged: 0/0
  5852 ;; Data sizes:     COMRAM   BANK0   BANK1   BANK2   BANK3   BANK4   BANK5   BANK6   BANK7
  5853 ;;      Params:         0       0       0       0       0       0       0       0       0
  5854 ;;      Locals:         1       0       0       0       0       0       0       0       0
  5855 ;;      Temps:          2       0       0       0       0       0       0       0       0
  5856 ;;      Totals:         3       0       0       0       0       0       0       0       0
  5857 ;;Total ram usage:        3 bytes
  5858 ;; Hardware stack levels used: 1
  5859 ;; This function calls:
  5860 ;;		Nothing
  5861 ;; This function is called by:
  5862 ;;		i2_Lcd_String
  5863 ;;		i2_mostrar_conteo
  5864 ;; This function uses a non-reentrant model
  5865 ;;
  5866                           
  5867                           	psect	text35
  5868   000B78                     __ptext35:
  5869                           	callstack 0
  5870   000B78                     i2_Lcd_Char:
  5871                           	callstack 24
  5872                           
  5873                           ;incstack = 0
  5874                           ;i2Lcd_Char@data stored from wreg
  5875   000B78  6E03               	movwf	i2Lcd_Char@data^0,c
  5876                           
  5877                           ;lcd.c: 36: LATA3 = 1;
  5878   000B7A  8689               	bsf	3977,3,c	;volatile
  5879                           
  5880                           ;lcd.c: 37: LATD4 = (data >> 4) & 1;
  5881   000B7C  C003  F001         	movff	i2Lcd_Char@data,??i2_Lcd_Char
  5882   000B80  3A01               	swapf	??i2_Lcd_Char^0,f,c
  5883   000B82  0E0F               	movlw	15
  5884   000B84  1601               	andwf	??i2_Lcd_Char^0,f,c
  5885   000B86  3001               	rrcf	??i2_Lcd_Char^0,w,c
  5886   000B88  A0D8               	btfss	status,0,c
  5887   000B8A  D002               	goto	i2u257_40
  5888   000B8C  888C               	bsf	3980,4,c	;volatile
  5889   000B8E  D001               	goto	i2u258_45
  5890   000B90                     i2u257_40:
  5891   000B90  988C               	bcf	3980,4,c	;volatile
  5892   000B92                     i2u258_45:
  5893                           
  5894                           ;lcd.c: 38: LATD5 = (data >> 5) & 1;
  5895   000B92  C003  F001         	movff	i2Lcd_Char@data,??i2_Lcd_Char
  5896   000B96  0E05               	movlw	5
  5897   000B98  6E02               	movwf	(??i2_Lcd_Char+1)^0,c
  5898   000B9A                     i2u259_45:
  5899   000B9A  90D8               	bcf	status,0,c
  5900   000B9C  3201               	rrcf	??i2_Lcd_Char^0,f,c
  5901   000B9E  2E02               	decfsz	(??i2_Lcd_Char+1)^0,f,c
  5902   000BA0  D7FC               	goto	i2u259_45
  5903   000BA2  3001               	rrcf	??i2_Lcd_Char^0,w,c
  5904   000BA4  A0D8               	btfss	status,0,c
  5905   000BA6  D002               	goto	i2u260_40
  5906   000BA8  8A8C               	bsf	3980,5,c	;volatile
  5907   000BAA  D001               	goto	i2u261_45
  5908   000BAC                     i2u260_40:
  5909   000BAC  9A8C               	bcf	3980,5,c	;volatile
  5910   000BAE                     i2u261_45:
  5911                           
  5912                           ;lcd.c: 39: LATD6 = (data >> 6) & 1;
  5913   000BAE  C003  F001         	movff	i2Lcd_Char@data,??i2_Lcd_Char
  5914   000BB2  0E06               	movlw	6
  5915   000BB4  6E02               	movwf	(??i2_Lcd_Char+1)^0,c
  5916   000BB6                     i2u262_45:
  5917   000BB6  90D8               	bcf	status,0,c
  5918   000BB8  3201               	rrcf	??i2_Lcd_Char^0,f,c
  5919   000BBA  2E02               	decfsz	(??i2_Lcd_Char+1)^0,f,c
  5920   000BBC  D7FC               	goto	i2u262_45
  5921   000BBE  3001               	rrcf	??i2_Lcd_Char^0,w,c
  5922   000BC0  A0D8               	btfss	status,0,c
  5923   000BC2  D002               	goto	i2u263_40
  5924   000BC4  8C8C               	bsf	3980,6,c	;volatile
  5925   000BC6  D001               	goto	i2u264_45
  5926   000BC8                     i2u263_40:
  5927   000BC8  9C8C               	bcf	3980,6,c	;volatile
  5928   000BCA                     i2u264_45:
  5929                           
  5930                           ;lcd.c: 40: LATD7 = (data >> 7) & 1;
  5931   000BCA  6A01               	clrf	??i2_Lcd_Char^0,c
  5932   000BCC  AE03               	btfss	i2Lcd_Char@data^0,7,c
  5933   000BCE  D001               	bra	i2u265_45
  5934   000BD0  2A01               	incf	??i2_Lcd_Char^0,f,c
  5935   000BD2                     i2u265_45:
  5936   000BD2  3001               	rrcf	??i2_Lcd_Char^0,w,c
  5937   000BD4  A0D8               	btfss	status,0,c
  5938   000BD6  D002               	goto	i2u266_40
  5939   000BD8  8E8C               	bsf	3980,7,c	;volatile
  5940   000BDA  D001               	goto	i2u267_45
  5941   000BDC                     i2u266_40:
  5942   000BDC  9E8C               	bcf	3980,7,c	;volatile
  5943   000BDE                     i2u267_45:
  5944                           
  5945                           ;lcd.c: 41: LATA4 = 1; _delay((unsigned long)((200)*(1000000/4000000.0))); LATA4 = 0;
  5946   000BDE  8889               	bsf	3977,4,c	;volatile
  5947   000BE0  0E10               	movlw	16
  5948   000BE2                     i2u498_47:
  5949   000BE2  2EE8               	decfsz	wreg,f,c
  5950   000BE4  D7FE               	bra	i2u498_47
  5951   000BE6  D000               	nop2	
  5952   000BE8  9889               	bcf	3977,4,c	;volatile
  5953                           
  5954                           ;lcd.c: 43: LATD4 = data & 1;
  5955   000BEA  A003               	btfss	i2Lcd_Char@data^0,0,c
  5956   000BEC  D002               	goto	i2u268_40
  5957   000BEE  888C               	bsf	3980,4,c	;volatile
  5958   000BF0  D001               	goto	i2u269_45
  5959   000BF2                     i2u268_40:
  5960   000BF2  988C               	bcf	3980,4,c	;volatile
  5961   000BF4                     i2u269_45:
  5962                           
  5963                           ;lcd.c: 44: LATD5 = (data >> 1) & 1;
  5964   000BF4  C003  F001         	movff	i2Lcd_Char@data,??i2_Lcd_Char
  5965   000BF8  90D8               	bcf	status,0,c
  5966   000BFA  3201               	rrcf	??i2_Lcd_Char^0,f,c
  5967   000BFC  3001               	rrcf	??i2_Lcd_Char^0,w,c
  5968   000BFE  A0D8               	btfss	status,0,c
  5969   000C00  D002               	goto	i2u270_40
  5970   000C02  8A8C               	bsf	3980,5,c	;volatile
  5971   000C04  D001               	goto	i2u271_45
  5972   000C06                     i2u270_40:
  5973   000C06  9A8C               	bcf	3980,5,c	;volatile
  5974   000C08                     i2u271_45:
  5975                           
  5976                           ;lcd.c: 45: LATD6 = (data >> 2) & 1;
  5977   000C08  C003  F001         	movff	i2Lcd_Char@data,??i2_Lcd_Char
  5978   000C0C  90D8               	bcf	status,0,c
  5979   000C0E  3201               	rrcf	??i2_Lcd_Char^0,f,c
  5980   000C10  90D8               	bcf	status,0,c
  5981   000C12  3201               	rrcf	??i2_Lcd_Char^0,f,c
  5982   000C14  3001               	rrcf	??i2_Lcd_Char^0,w,c
  5983   000C16  A0D8               	btfss	status,0,c
  5984   000C18  D002               	goto	i2u272_40
  5985   000C1A  8C8C               	bsf	3980,6,c	;volatile
  5986   000C1C  D001               	goto	i2u273_45
  5987   000C1E                     i2u272_40:
  5988   000C1E  9C8C               	bcf	3980,6,c	;volatile
  5989   000C20                     i2u273_45:
  5990                           
  5991                           ;lcd.c: 46: LATD7 = (data >> 3) & 1;
  5992   000C20  C003  F001         	movff	i2Lcd_Char@data,??i2_Lcd_Char
  5993   000C24  90D8               	bcf	status,0,c
  5994   000C26  3201               	rrcf	??i2_Lcd_Char^0,f,c
  5995   000C28  90D8               	bcf	status,0,c
  5996   000C2A  3201               	rrcf	??i2_Lcd_Char^0,f,c
  5997   000C2C  90D8               	bcf	status,0,c
  5998   000C2E  3201               	rrcf	??i2_Lcd_Char^0,f,c
  5999   000C30  3001               	rrcf	??i2_Lcd_Char^0,w,c
  6000   000C32  A0D8               	btfss	status,0,c
  6001   000C34  D002               	goto	i2u274_40
  6002   000C36  8E8C               	bsf	3980,7,c	;volatile
  6003   000C38  D001               	goto	i2u275_45
  6004   000C3A                     i2u274_40:
  6005   000C3A  9E8C               	bcf	3980,7,c	;volatile
  6006   000C3C                     i2u275_45:
  6007                           
  6008                           ;lcd.c: 47: LATA4 = 1; _delay((unsigned long)((200)*(1000000/4000000.0))); LATA4 = 0;
  6009   000C3C  8889               	bsf	3977,4,c	;volatile
  6010   000C3E  0E10               	movlw	16
  6011   000C40                     i2u499_47:
  6012   000C40  2EE8               	decfsz	wreg,f,c
  6013   000C42  D7FE               	bra	i2u499_47
  6014   000C44  D000               	nop2	
  6015   000C46  9889               	bcf	3977,4,c	;volatile
  6016   000C48  0012               	return		;funcret
  6017   000C4A                     __end_ofi2_Lcd_Char:
  6018                           	callstack 0
  6019                           
  6020 ;; *************** function i2_Lcd_Set_Cursor *****************
  6021 ;; Defined at:
  6022 ;;		line 56 in file "lcd.c"
  6023 ;; Parameters:    Size  Location     Type
  6024 ;;  row             1    wreg     unsigned char 
  6025 ;;  column          1    3[COMRAM] unsigned char 
  6026 ;; Auto vars:     Size  Location     Type
  6027 ;;  row             1    4[COMRAM] unsigned char 
  6028 ;;  pos             1    7[COMRAM] unsigned char 
  6029 ;; Return value:  Size  Location     Type
  6030 ;;                  1    wreg      void 
  6031 ;; Registers used:
  6032 ;;		wreg, status,2, status,0, cstack
  6033 ;; Tracked objects:
  6034 ;;		On entry : 0/0
  6035 ;;		On exit  : 0/0
  6036 ;;		Unchanged: 0/0
  6037 ;; Data sizes:     COMRAM   BANK0   BANK1   BANK2   BANK3   BANK4   BANK5   BANK6   BANK7
  6038 ;;      Params:         1       0       0       0       0       0       0       0       0
  6039 ;;      Locals:         4       0       0       0       0       0       0       0       0
  6040 ;;      Temps:          0       0       0       0       0       0       0       0       0
  6041 ;;      Totals:         5       0       0       0       0       0       0       0       0
  6042 ;;Total ram usage:        5 bytes
  6043 ;; Hardware stack levels used: 1
  6044 ;; Hardware stack levels required when called: 1
  6045 ;; This function calls:
  6046 ;;		i2_Lcd_Cmd
  6047 ;; This function is called by:
  6048 ;;		i2_mostrar_conteo
  6049 ;;		i2_mostrar_valor
  6050 ;;		i2_mostrar_completado
  6051 ;;		i2_emergencia
  6052 ;; This function uses a non-reentrant model
  6053 ;;
  6054                           
  6055                           	psect	text36
  6056   001520                     __ptext36:
  6057                           	callstack 0
  6058   001520                     i2_Lcd_Set_Cursor:
  6059                           	callstack 24
  6060                           
  6061                           ;incstack = 0
  6062                           ;i2Lcd_Set_Cursor@row stored from wreg
  6063   001520  6E05               	movwf	i2Lcd_Set_Cursor@row^0,c
  6064                           
  6065                           ;lcd.c: 57: char pos = (row == 1) ? 0x80 + (column - 1) : 0xC0 + (column - 1);
  6066   001522  0405               	decf	i2Lcd_Set_Cursor@row^0,w,c
  6067   001524  B4D8               	btfsc	status,2,c
  6068   001526  D002               	goto	i2l2615
  6069   001528  0EBF               	movlw	191
  6070   00152A  D001               	goto	L18
  6071   00152C                     i2l2615:
  6072   00152C  0E7F               	movlw	127
  6073   00152E                     L18:
  6074   00152E  2404               	addwf	i2Lcd_Set_Cursor@column^0,w,c
  6075   001530  6E06               	movwf	i2_Lcd_Set_Cursor$169^0,c
  6076   001532  6A07               	clrf	(i2_Lcd_Set_Cursor$169+1)^0,c
  6077   001534  0E00               	movlw	0
  6078   001536  2207               	addwfc	(i2_Lcd_Set_Cursor$169+1)^0,f,c
  6079   001538  C006  F008         	movff	i2_Lcd_Set_Cursor$169,i2Lcd_Set_Cursor@pos
  6080                           
  6081                           ;lcd.c: 58: Lcd_Cmd(pos);
  6082   00153C  5008               	movf	i2Lcd_Set_Cursor@pos^0,w,c
  6083   00153E  EC25  F006         	call	i2_Lcd_Cmd
  6084   001542  0012               	return		;funcret
  6085   001544                     __end_ofi2_Lcd_Set_Cursor:
  6086                           	callstack 0
  6087                           
  6088 ;; *************** function i2_Lcd_Clear *****************
  6089 ;; Defined at:
  6090 ;;		line 61 in file "lcd.c"
  6091 ;; Parameters:    Size  Location     Type
  6092 ;;		None
  6093 ;; Auto vars:     Size  Location     Type
  6094 ;;		None
  6095 ;; Return value:  Size  Location     Type
  6096 ;;                  1    wreg      void 
  6097 ;; Registers used:
  6098 ;;		wreg, status,2, status,0, cstack
  6099 ;; Tracked objects:
  6100 ;;		On entry : 0/0
  6101 ;;		On exit  : 0/0
  6102 ;;		Unchanged: 0/0
  6103 ;; Data sizes:     COMRAM   BANK0   BANK1   BANK2   BANK3   BANK4   BANK5   BANK6   BANK7
  6104 ;;      Params:         0       0       0       0       0       0       0       0       0
  6105 ;;      Locals:         0       0       0       0       0       0       0       0       0
  6106 ;;      Temps:          0       0       0       0       0       0       0       0       0
  6107 ;;      Totals:         0       0       0       0       0       0       0       0       0
  6108 ;;Total ram usage:        0 bytes
  6109 ;; Hardware stack levels used: 1
  6110 ;; Hardware stack levels required when called: 1
  6111 ;; This function calls:
  6112 ;;		i2_Lcd_Cmd
  6113 ;; This function is called by:
  6114 ;;		_ISR
  6115 ;;		i2_mostrar_conteo
  6116 ;;		i2_mostrar_valor
  6117 ;;		i2_mostrar_completado
  6118 ;;		i2_emergencia
  6119 ;; This function uses a non-reentrant model
  6120 ;;
  6121                           
  6122                           	psect	text37
  6123   0015FC                     __ptext37:
  6124                           	callstack 0
  6125   0015FC                     i2_Lcd_Clear:
  6126                           	callstack 24
  6127                           
  6128                           ;lcd.c: 62: Lcd_Cmd(0x01);
  6129                           
  6130                           ;incstack = 0
  6131   0015FC  0E01               	movlw	1
  6132   0015FE  EC25  F006         	call	i2_Lcd_Cmd
  6133                           
  6134                           ;lcd.c: 63: _delay((unsigned long)((2)*(1000000/4000.0)));
  6135   001602  0EA6               	movlw	166
  6136   001604                     i2u500_47:
  6137   001604  2EE8               	decfsz	wreg,f,c
  6138   001606  D7FE               	bra	i2u500_47
  6139   001608  D000               	nop2	
  6140   00160A  0012               	return		;funcret
  6141   00160C                     __end_ofi2_Lcd_Clear:
  6142                           	callstack 0
  6143                           
  6144 ;; *************** function i2_Lcd_Cmd *****************
  6145 ;; Defined at:
  6146 ;;		line 20 in file "lcd.c"
  6147 ;; Parameters:    Size  Location     Type
  6148 ;;  cmd             1    wreg     unsigned char 
  6149 ;; Auto vars:     Size  Location     Type
  6150 ;;  cmd             1    2[COMRAM] unsigned char 
  6151 ;; Return value:  Size  Location     Type
  6152 ;;                  1    wreg      void 
  6153 ;; Registers used:
  6154 ;;		wreg, status,2, status,0
  6155 ;; Tracked objects:
  6156 ;;		On entry : 0/0
  6157 ;;		On exit  : 0/0
  6158 ;;		Unchanged: 0/0
  6159 ;; Data sizes:     COMRAM   BANK0   BANK1   BANK2   BANK3   BANK4   BANK5   BANK6   BANK7
  6160 ;;      Params:         0       0       0       0       0       0       0       0       0
  6161 ;;      Locals:         1       0       0       0       0       0       0       0       0
  6162 ;;      Temps:          2       0       0       0       0       0       0       0       0
  6163 ;;      Totals:         3       0       0       0       0       0       0       0       0
  6164 ;;Total ram usage:        3 bytes
  6165 ;; Hardware stack levels used: 1
  6166 ;; This function calls:
  6167 ;;		Nothing
  6168 ;; This function is called by:
  6169 ;;		i2_Lcd_Set_Cursor
  6170 ;;		i2_Lcd_Clear
  6171 ;; This function uses a non-reentrant model
  6172 ;;
  6173                           
  6174                           	psect	text38
  6175   000C4A                     __ptext38:
  6176                           	callstack 0
  6177   000C4A                     i2_Lcd_Cmd:
  6178                           	callstack 24
  6179                           
  6180                           ;incstack = 0
  6181                           ;i2Lcd_Cmd@cmd stored from wreg
  6182   000C4A  6E03               	movwf	i2Lcd_Cmd@cmd^0,c
  6183                           
  6184                           ;lcd.c: 21: LATA3 = 0;
  6185   000C4C  9689               	bcf	3977,3,c	;volatile
  6186                           
  6187                           ;lcd.c: 22: LATD4 = (cmd >> 4) & 1;
  6188   000C4E  C003  F001         	movff	i2Lcd_Cmd@cmd,??i2_Lcd_Cmd
  6189   000C52  3A01               	swapf	??i2_Lcd_Cmd^0,f,c
  6190   000C54  0E0F               	movlw	15
  6191   000C56  1601               	andwf	??i2_Lcd_Cmd^0,f,c
  6192   000C58  3001               	rrcf	??i2_Lcd_Cmd^0,w,c
  6193   000C5A  A0D8               	btfss	status,0,c
  6194   000C5C  D002               	goto	i2u238_40
  6195   000C5E  888C               	bsf	3980,4,c	;volatile
  6196   000C60  D001               	goto	i2u239_45
  6197   000C62                     i2u238_40:
  6198   000C62  988C               	bcf	3980,4,c	;volatile
  6199   000C64                     i2u239_45:
  6200                           
  6201                           ;lcd.c: 23: LATD5 = (cmd >> 5) & 1;
  6202   000C64  C003  F001         	movff	i2Lcd_Cmd@cmd,??i2_Lcd_Cmd
  6203   000C68  0E05               	movlw	5
  6204   000C6A  6E02               	movwf	(??i2_Lcd_Cmd+1)^0,c
  6205   000C6C                     i2u240_45:
  6206   000C6C  90D8               	bcf	status,0,c
  6207   000C6E  3201               	rrcf	??i2_Lcd_Cmd^0,f,c
  6208   000C70  2E02               	decfsz	(??i2_Lcd_Cmd+1)^0,f,c
  6209   000C72  D7FC               	goto	i2u240_45
  6210   000C74  3001               	rrcf	??i2_Lcd_Cmd^0,w,c
  6211   000C76  A0D8               	btfss	status,0,c
  6212   000C78  D002               	goto	i2u241_40
  6213   000C7A  8A8C               	bsf	3980,5,c	;volatile
  6214   000C7C  D001               	goto	i2u242_45
  6215   000C7E                     i2u241_40:
  6216   000C7E  9A8C               	bcf	3980,5,c	;volatile
  6217   000C80                     i2u242_45:
  6218                           
  6219                           ;lcd.c: 24: LATD6 = (cmd >> 6) & 1;
  6220   000C80  C003  F001         	movff	i2Lcd_Cmd@cmd,??i2_Lcd_Cmd
  6221   000C84  0E06               	movlw	6
  6222   000C86  6E02               	movwf	(??i2_Lcd_Cmd+1)^0,c
  6223   000C88                     i2u243_45:
  6224   000C88  90D8               	bcf	status,0,c
  6225   000C8A  3201               	rrcf	??i2_Lcd_Cmd^0,f,c
  6226   000C8C  2E02               	decfsz	(??i2_Lcd_Cmd+1)^0,f,c
  6227   000C8E  D7FC               	goto	i2u243_45
  6228   000C90  3001               	rrcf	??i2_Lcd_Cmd^0,w,c
  6229   000C92  A0D8               	btfss	status,0,c
  6230   000C94  D002               	goto	i2u244_40
  6231   000C96  8C8C               	bsf	3980,6,c	;volatile
  6232   000C98  D001               	goto	i2u245_45
  6233   000C9A                     i2u244_40:
  6234   000C9A  9C8C               	bcf	3980,6,c	;volatile
  6235   000C9C                     i2u245_45:
  6236                           
  6237                           ;lcd.c: 25: LATD7 = (cmd >> 7) & 1;
  6238   000C9C  6A01               	clrf	??i2_Lcd_Cmd^0,c
  6239   000C9E  AE03               	btfss	i2Lcd_Cmd@cmd^0,7,c
  6240   000CA0  D001               	bra	i2u246_45
  6241   000CA2  2A01               	incf	??i2_Lcd_Cmd^0,f,c
  6242   000CA4                     i2u246_45:
  6243   000CA4  3001               	rrcf	??i2_Lcd_Cmd^0,w,c
  6244   000CA6  A0D8               	btfss	status,0,c
  6245   000CA8  D002               	goto	i2u247_40
  6246   000CAA  8E8C               	bsf	3980,7,c	;volatile
  6247   000CAC  D001               	goto	i2u248_45
  6248   000CAE                     i2u247_40:
  6249   000CAE  9E8C               	bcf	3980,7,c	;volatile
  6250   000CB0                     i2u248_45:
  6251                           
  6252                           ;lcd.c: 26: LATA4 = 1; _delay((unsigned long)((2)*(1000000/4000.0))); LATA4 = 0;
  6253   000CB0  8889               	bsf	3977,4,c	;volatile
  6254   000CB2  0EA6               	movlw	166
  6255   000CB4                     i2u501_47:
  6256   000CB4  2EE8               	decfsz	wreg,f,c
  6257   000CB6  D7FE               	bra	i2u501_47
  6258   000CB8  D000               	nop2	
  6259   000CBA  9889               	bcf	3977,4,c	;volatile
  6260                           
  6261                           ;lcd.c: 28: LATD4 = cmd & 1;
  6262   000CBC  A003               	btfss	i2Lcd_Cmd@cmd^0,0,c
  6263   000CBE  D002               	goto	i2u249_40
  6264   000CC0  888C               	bsf	3980,4,c	;volatile
  6265   000CC2  D001               	goto	i2u250_45
  6266   000CC4                     i2u249_40:
  6267   000CC4  988C               	bcf	3980,4,c	;volatile
  6268   000CC6                     i2u250_45:
  6269                           
  6270                           ;lcd.c: 29: LATD5 = (cmd >> 1) & 1;
  6271   000CC6  C003  F001         	movff	i2Lcd_Cmd@cmd,??i2_Lcd_Cmd
  6272   000CCA  90D8               	bcf	status,0,c
  6273   000CCC  3201               	rrcf	??i2_Lcd_Cmd^0,f,c
  6274   000CCE  3001               	rrcf	??i2_Lcd_Cmd^0,w,c
  6275   000CD0  A0D8               	btfss	status,0,c
  6276   000CD2  D002               	goto	i2u251_40
  6277   000CD4  8A8C               	bsf	3980,5,c	;volatile
  6278   000CD6  D001               	goto	i2u252_45
  6279   000CD8                     i2u251_40:
  6280   000CD8  9A8C               	bcf	3980,5,c	;volatile
  6281   000CDA                     i2u252_45:
  6282                           
  6283                           ;lcd.c: 30: LATD6 = (cmd >> 2) & 1;
  6284   000CDA  C003  F001         	movff	i2Lcd_Cmd@cmd,??i2_Lcd_Cmd
  6285   000CDE  90D8               	bcf	status,0,c
  6286   000CE0  3201               	rrcf	??i2_Lcd_Cmd^0,f,c
  6287   000CE2  90D8               	bcf	status,0,c
  6288   000CE4  3201               	rrcf	??i2_Lcd_Cmd^0,f,c
  6289   000CE6  3001               	rrcf	??i2_Lcd_Cmd^0,w,c
  6290   000CE8  A0D8               	btfss	status,0,c
  6291   000CEA  D002               	goto	i2u253_40
  6292   000CEC  8C8C               	bsf	3980,6,c	;volatile
  6293   000CEE  D001               	goto	i2u254_45
  6294   000CF0                     i2u253_40:
  6295   000CF0  9C8C               	bcf	3980,6,c	;volatile
  6296   000CF2                     i2u254_45:
  6297                           
  6298                           ;lcd.c: 31: LATD7 = (cmd >> 3) & 1;
  6299   000CF2  C003  F001         	movff	i2Lcd_Cmd@cmd,??i2_Lcd_Cmd
  6300   000CF6  90D8               	bcf	status,0,c
  6301   000CF8  3201               	rrcf	??i2_Lcd_Cmd^0,f,c
  6302   000CFA  90D8               	bcf	status,0,c
  6303   000CFC  3201               	rrcf	??i2_Lcd_Cmd^0,f,c
  6304   000CFE  90D8               	bcf	status,0,c
  6305   000D00  3201               	rrcf	??i2_Lcd_Cmd^0,f,c
  6306   000D02  3001               	rrcf	??i2_Lcd_Cmd^0,w,c
  6307   000D04  A0D8               	btfss	status,0,c
  6308   000D06  D002               	goto	i2u255_40
  6309   000D08  8E8C               	bsf	3980,7,c	;volatile
  6310   000D0A  D001               	goto	i2u256_45
  6311   000D0C                     i2u255_40:
  6312   000D0C  9E8C               	bcf	3980,7,c	;volatile
  6313   000D0E                     i2u256_45:
  6314                           
  6315                           ;lcd.c: 32: LATA4 = 1; _delay((unsigned long)((2)*(1000000/4000.0))); LATA4 = 0;
  6316   000D0E  8889               	bsf	3977,4,c	;volatile
  6317   000D10  0EA6               	movlw	166
  6318   000D12                     i2u502_47:
  6319   000D12  2EE8               	decfsz	wreg,f,c
  6320   000D14  D7FE               	bra	i2u502_47
  6321   000D16  D000               	nop2	
  6322   000D18  9889               	bcf	3977,4,c	;volatile
  6323   000D1A  0012               	return		;funcret
  6324   000D1C                     __end_ofi2_Lcd_Cmd:
  6325                           	callstack 0
  6326                           
  6327 ;; *************** function _Transmitir_Numero *****************
  6328 ;; Defined at:
  6329 ;;		line 512 in file "Laboratorio_5.c"
  6330 ;; Parameters:    Size  Location     Type
  6331 ;;  valor           1    wreg     unsigned char 
  6332 ;; Auto vars:     Size  Location     Type
  6333 ;;  valor           1    8[COMRAM] unsigned char 
  6334 ;; Return value:  Size  Location     Type
  6335 ;;                  1    wreg      void 
  6336 ;; Registers used:
  6337 ;;		wreg, status,2, status,0, cstack
  6338 ;; Tracked objects:
  6339 ;;		On entry : 0/0
  6340 ;;		On exit  : 0/0
  6341 ;;		Unchanged: 0/0
  6342 ;; Data sizes:     COMRAM   BANK0   BANK1   BANK2   BANK3   BANK4   BANK5   BANK6   BANK7
  6343 ;;      Params:         0       0       0       0       0       0       0       0       0
  6344 ;;      Locals:         1       0       0       0       0       0       0       0       0
  6345 ;;      Temps:          0       0       0       0       0       0       0       0       0
  6346 ;;      Totals:         1       0       0       0       0       0       0       0       0
  6347 ;;Total ram usage:        1 bytes
  6348 ;; Hardware stack levels used: 1
  6349 ;; Hardware stack levels required when called: 1
  6350 ;; This function calls:
  6351 ;;		_Transmitir
  6352 ;;		___lbdiv
  6353 ;;		___lbmod
  6354 ;; This function is called by:
  6355 ;;		_ISR
  6356 ;; This function uses a non-reentrant model
  6357 ;;
  6358                           
  6359                           	psect	text39
  6360   00126C                     __ptext39:
  6361                           	callstack 0
  6362   00126C                     _Transmitir_Numero:
  6363                           	callstack 25
  6364                           
  6365                           ;incstack = 0
  6366                           ;Transmitir_Numero@valor stored from wreg
  6367   00126C  6E09               	movwf	Transmitir_Numero@valor^0,c
  6368                           
  6369                           ;Laboratorio_5.c: 513: Transmitir((valor / 100) + '0');
  6370   00126E  0E64               	movlw	100
  6371   001270  6E01               	movwf	___lbdiv@divisor^0,c
  6372   001272  5009               	movf	Transmitir_Numero@valor^0,w,c
  6373   001274  ECDE  F009         	call	___lbdiv
  6374   001278  0F30               	addlw	48
  6375   00127A  EC06  F00B         	call	_Transmitir
  6376                           
  6377                           ;Laboratorio_5.c: 514: Transmitir(((valor / 10) % 10) + '0');
  6378   00127E  0E0A               	movlw	10
  6379   001280  6E05               	movwf	___lbmod@divisor^0,c
  6380   001282  0E0A               	movlw	10
  6381   001284  6E01               	movwf	___lbdiv@divisor^0,c
  6382   001286  5009               	movf	Transmitir_Numero@valor^0,w,c
  6383   001288  ECDE  F009         	call	___lbdiv
  6384   00128C  EC6A  F00A         	call	___lbmod
  6385   001290  0F30               	addlw	48
  6386   001292  EC06  F00B         	call	_Transmitir
  6387                           
  6388                           ;Laboratorio_5.c: 515: Transmitir((valor % 10) + '0');
  6389   001296  0E0A               	movlw	10
  6390   001298  6E05               	movwf	___lbmod@divisor^0,c
  6391   00129A  5009               	movf	Transmitir_Numero@valor^0,w,c
  6392   00129C  EC6A  F00A         	call	___lbmod
  6393   0012A0  0F30               	addlw	48
  6394   0012A2  EC06  F00B         	call	_Transmitir
  6395                           
  6396                           ;Laboratorio_5.c: 516: Transmitir('\r');
  6397   0012A6  0E0D               	movlw	13
  6398   0012A8  EC06  F00B         	call	_Transmitir
  6399                           
  6400                           ;Laboratorio_5.c: 517: Transmitir('\n');
  6401   0012AC  0E0A               	movlw	10
  6402   0012AE  EC06  F00B         	call	_Transmitir
  6403   0012B2  0012               	return		;funcret
  6404   0012B4                     __end_of_Transmitir_Numero:
  6405                           	callstack 0
  6406                           
  6407 ;; *************** function ___lbmod *****************
  6408 ;; Defined at:
  6409 ;;		line 4 in file "C:\Program Files\Microchip\xc8\v2.50\pic\sources\c90\common\lbmod.c"
  6410 ;; Parameters:    Size  Location     Type
  6411 ;;  dividend        1    wreg     unsigned char 
  6412 ;;  divisor         1    4[COMRAM] unsigned char 
  6413 ;; Auto vars:     Size  Location     Type
  6414 ;;  dividend        1    5[COMRAM] unsigned char 
  6415 ;;  rem             1    7[COMRAM] unsigned char 
  6416 ;;  counter         1    6[COMRAM] unsigned char 
  6417 ;; Return value:  Size  Location     Type
  6418 ;;                  1    wreg      unsigned char 
  6419 ;; Registers used:
  6420 ;;		wreg, status,2, status,0
  6421 ;; Tracked objects:
  6422 ;;		On entry : 0/0
  6423 ;;		On exit  : 0/0
  6424 ;;		Unchanged: 0/0
  6425 ;; Data sizes:     COMRAM   BANK0   BANK1   BANK2   BANK3   BANK4   BANK5   BANK6   BANK7
  6426 ;;      Params:         1       0       0       0       0       0       0       0       0
  6427 ;;      Locals:         3       0       0       0       0       0       0       0       0
  6428 ;;      Temps:          0       0       0       0       0       0       0       0       0
  6429 ;;      Totals:         4       0       0       0       0       0       0       0       0
  6430 ;;Total ram usage:        4 bytes
  6431 ;; Hardware stack levels used: 1
  6432 ;; This function calls:
  6433 ;;		Nothing
  6434 ;; This function is called by:
  6435 ;;		_Transmitir_Numero
  6436 ;; This function uses a non-reentrant model
  6437 ;;
  6438                           
  6439                           	psect	text40
  6440   0014D4                     __ptext40:
  6441                           	callstack 0
  6442   0014D4                     ___lbmod:
  6443                           	callstack 25
  6444                           
  6445                           ;incstack = 0
  6446                           ;___lbmod@dividend stored from wreg
  6447   0014D4  6E06               	movwf	___lbmod@dividend^0,c
  6448   0014D6  0E08               	movlw	8
  6449   0014D8  6E07               	movwf	___lbmod@counter^0,c
  6450   0014DA  6A08               	clrf	___lbmod@rem^0,c
  6451   0014DC                     i2l2551:
  6452   0014DC  90D8               	bcf	status,0,c
  6453   0014DE  3406               	rlcf	___lbmod@dividend^0,w,c
  6454   0014E0  3408               	rlcf	___lbmod@rem^0,w,c
  6455   0014E2  6E08               	movwf	___lbmod@rem^0,c
  6456   0014E4  90D8               	bcf	status,0,c
  6457   0014E6  3606               	rlcf	___lbmod@dividend^0,f,c
  6458   0014E8  5005               	movf	___lbmod@divisor^0,w,c
  6459   0014EA  5C08               	subwf	___lbmod@rem^0,w,c
  6460   0014EC  A0D8               	btfss	status,0,c
  6461   0014EE  D002               	goto	i2l2559
  6462   0014F0  5005               	movf	___lbmod@divisor^0,w,c
  6463   0014F2  5E08               	subwf	___lbmod@rem^0,f,c
  6464   0014F4                     i2l2559:
  6465   0014F4  2E07               	decfsz	___lbmod@counter^0,f,c
  6466   0014F6  D7F2               	goto	i2l2551
  6467   0014F8  5008               	movf	___lbmod@rem^0,w,c
  6468   0014FA  0012               	return		;funcret
  6469   0014FC                     __end_of___lbmod:
  6470                           	callstack 0
  6471                           
  6472 ;; *************** function ___lbdiv *****************
  6473 ;; Defined at:
  6474 ;;		line 4 in file "C:\Program Files\Microchip\xc8\v2.50\pic\sources\c90\common\lbdiv.c"
  6475 ;; Parameters:    Size  Location     Type
  6476 ;;  dividend        1    wreg     unsigned char 
  6477 ;;  divisor         1    0[COMRAM] unsigned char 
  6478 ;; Auto vars:     Size  Location     Type
  6479 ;;  dividend        1    1[COMRAM] unsigned char 
  6480 ;;  quotient        1    3[COMRAM] unsigned char 
  6481 ;;  counter         1    2[COMRAM] unsigned char 
  6482 ;; Return value:  Size  Location     Type
  6483 ;;                  1    wreg      unsigned char 
  6484 ;; Registers used:
  6485 ;;		wreg, status,2, status,0
  6486 ;; Tracked objects:
  6487 ;;		On entry : 0/0
  6488 ;;		On exit  : 0/0
  6489 ;;		Unchanged: 0/0
  6490 ;; Data sizes:     COMRAM   BANK0   BANK1   BANK2   BANK3   BANK4   BANK5   BANK6   BANK7
  6491 ;;      Params:         1       0       0       0       0       0       0       0       0
  6492 ;;      Locals:         3       0       0       0       0       0       0       0       0
  6493 ;;      Temps:          0       0       0       0       0       0       0       0       0
  6494 ;;      Totals:         4       0       0       0       0       0       0       0       0
  6495 ;;Total ram usage:        4 bytes
  6496 ;; Hardware stack levels used: 1
  6497 ;; This function calls:
  6498 ;;		Nothing
  6499 ;; This function is called by:
  6500 ;;		_Transmitir_Numero
  6501 ;; This function uses a non-reentrant model
  6502 ;;
  6503                           
  6504                           	psect	text41
  6505   0013BC                     __ptext41:
  6506                           	callstack 0
  6507   0013BC                     ___lbdiv:
  6508                           	callstack 25
  6509                           
  6510                           ;incstack = 0
  6511                           ;___lbdiv@dividend stored from wreg
  6512   0013BC  6E02               	movwf	___lbdiv@dividend^0,c
  6513   0013BE  6A04               	clrf	___lbdiv@quotient^0,c
  6514   0013C0  5001               	movf	___lbdiv@divisor^0,w,c
  6515   0013C2  B4D8               	btfsc	status,2,c
  6516   0013C4  D015               	goto	i2l2543
  6517   0013C6  0E01               	movlw	1
  6518   0013C8  6E03               	movwf	___lbdiv@counter^0,c
  6519   0013CA  D003               	goto	i2l2531
  6520   0013CC                     i2l2527:
  6521   0013CC  90D8               	bcf	status,0,c
  6522   0013CE  3601               	rlcf	___lbdiv@divisor^0,f,c
  6523   0013D0  2A03               	incf	___lbdiv@counter^0,f,c
  6524   0013D2                     i2l2531:
  6525   0013D2  AE01               	btfss	___lbdiv@divisor^0,7,c
  6526   0013D4  D7FB               	goto	i2l2527
  6527   0013D6                     i2u292_40:
  6528   0013D6  90D8               	bcf	status,0,c
  6529   0013D8  3604               	rlcf	___lbdiv@quotient^0,f,c
  6530   0013DA  5001               	movf	___lbdiv@divisor^0,w,c
  6531   0013DC  5C02               	subwf	___lbdiv@dividend^0,w,c
  6532   0013DE  A0D8               	btfss	status,0,c
  6533   0013E0  D003               	goto	i2l2539
  6534   0013E2  5001               	movf	___lbdiv@divisor^0,w,c
  6535   0013E4  5E02               	subwf	___lbdiv@dividend^0,f,c
  6536   0013E6  8004               	bsf	___lbdiv@quotient^0,0,c
  6537   0013E8                     i2l2539:
  6538   0013E8  90D8               	bcf	status,0,c
  6539   0013EA  3201               	rrcf	___lbdiv@divisor^0,f,c
  6540   0013EC  2E03               	decfsz	___lbdiv@counter^0,f,c
  6541   0013EE  D7F3               	goto	i2u292_40
  6542   0013F0                     i2l2543:
  6543   0013F0  5004               	movf	___lbdiv@quotient^0,w,c
  6544   0013F2  0012               	return		;funcret
  6545   0013F4                     __end_of___lbdiv:
  6546                           	callstack 0
  6547                           
  6548 ;; *************** function _Transmitir_Cadena *****************
  6549 ;; Defined at:
  6550 ;;		line 506 in file "Laboratorio_5.c"
  6551 ;; Parameters:    Size  Location     Type
  6552 ;;  cadena          2    1[COMRAM] PTR const unsigned char 
  6553 ;;		 -> STR_6(20), STR_5(16), STR_4(18), STR_3(24), 
  6554 ;;		 -> STR_2(16), 
  6555 ;; Auto vars:     Size  Location     Type
  6556 ;;		None
  6557 ;; Return value:  Size  Location     Type
  6558 ;;                  1    wreg      void 
  6559 ;; Registers used:
  6560 ;;		wreg, status,2, status,0, tblptrl, tblptrh, tblptru, cstack
  6561 ;; Tracked objects:
  6562 ;;		On entry : 0/0
  6563 ;;		On exit  : 0/0
  6564 ;;		Unchanged: 0/0
  6565 ;; Data sizes:     COMRAM   BANK0   BANK1   BANK2   BANK3   BANK4   BANK5   BANK6   BANK7
  6566 ;;      Params:         2       0       0       0       0       0       0       0       0
  6567 ;;      Locals:         0       0       0       0       0       0       0       0       0
  6568 ;;      Temps:          0       0       0       0       0       0       0       0       0
  6569 ;;      Totals:         2       0       0       0       0       0       0       0       0
  6570 ;;Total ram usage:        2 bytes
  6571 ;; Hardware stack levels used: 1
  6572 ;; Hardware stack levels required when called: 1
  6573 ;; This function calls:
  6574 ;;		_Transmitir
  6575 ;; This function is called by:
  6576 ;;		_ISR
  6577 ;; This function uses a non-reentrant model
  6578 ;;
  6579                           
  6580                           	psect	text42
  6581   0014AA                     __ptext42:
  6582                           	callstack 0
  6583   0014AA                     _Transmitir_Cadena:
  6584                           	callstack 25
  6585                           
  6586                           ;Laboratorio_5.c: 507: while (*cadena) {
  6587                           
  6588                           ;incstack = 0
  6589   0014AA  D00A               	goto	i2l2949
  6590   0014AC                     i2l2945:
  6591                           
  6592                           ;Laboratorio_5.c: 508: Transmitir(*cadena);
  6593   0014AC  C002  FFF6         	movff	Transmitir_Cadena@cadena,tblptrl
  6594   0014B0  C003  FFF7         	movff	Transmitir_Cadena@cadena+1,tblptrh
  6595   0014B4                     	if	0	;tblptru may be non-zero
  6596   0014B4                     	endif
  6597   0014B4                     	if	0	;tblptru may be non-zero
  6598   0014B4                     	endif
  6599   0014B4  0008               	tblrd		*
  6600   0014B6  50F5               	movf	tablat,w,c
  6601   0014B8  EC06  F00B         	call	_Transmitir
  6602                           
  6603                           ;Laboratorio_5.c: 509: cadena++;
  6604   0014BC  4A02               	infsnz	Transmitir_Cadena@cadena^0,f,c
  6605   0014BE  2A03               	incf	(Transmitir_Cadena@cadena+1)^0,f,c
  6606   0014C0                     i2l2949:
  6607   0014C0  C002  FFF6         	movff	Transmitir_Cadena@cadena,tblptrl
  6608   0014C4  C003  FFF7         	movff	Transmitir_Cadena@cadena+1,tblptrh
  6609   0014C8                     	if	0	;tblptru may be non-zero
  6610   0014C8                     	endif
  6611   0014C8                     	if	0	;tblptru may be non-zero
  6612   0014C8                     	endif
  6613   0014C8  0008               	tblrd		*
  6614   0014CA  50F5               	movf	tablat,w,c
  6615   0014CC  0900               	iorlw	0
  6616   0014CE  B4D8               	btfsc	status,2,c
  6617   0014D0  0012               	return	
  6618   0014D2  D7EC               	goto	i2l2945
  6619   0014D4                     __end_of_Transmitir_Cadena:
  6620                           	callstack 0
  6621                           
  6622 ;; *************** function _Transmitir *****************
  6623 ;; Defined at:
  6624 ;;		line 502 in file "Laboratorio_5.c"
  6625 ;; Parameters:    Size  Location     Type
  6626 ;;  BufferT         1    wreg     unsigned char 
  6627 ;; Auto vars:     Size  Location     Type
  6628 ;;  BufferT         1    0[COMRAM] unsigned char 
  6629 ;; Return value:  Size  Location     Type
  6630 ;;                  1    wreg      void 
  6631 ;; Registers used:
  6632 ;;		wreg
  6633 ;; Tracked objects:
  6634 ;;		On entry : 0/0
  6635 ;;		On exit  : 0/0
  6636 ;;		Unchanged: 0/0
  6637 ;; Data sizes:     COMRAM   BANK0   BANK1   BANK2   BANK3   BANK4   BANK5   BANK6   BANK7
  6638 ;;      Params:         0       0       0       0       0       0       0       0       0
  6639 ;;      Locals:         1       0       0       0       0       0       0       0       0
  6640 ;;      Temps:          0       0       0       0       0       0       0       0       0
  6641 ;;      Totals:         1       0       0       0       0       0       0       0       0
  6642 ;;Total ram usage:        1 bytes
  6643 ;; Hardware stack levels used: 1
  6644 ;; This function calls:
  6645 ;;		Nothing
  6646 ;; This function is called by:
  6647 ;;		_Transmitir_Cadena
  6648 ;;		_Transmitir_Numero
  6649 ;; This function uses a non-reentrant model
  6650 ;;
  6651                           
  6652                           	psect	text43
  6653   00160C                     __ptext43:
  6654                           	callstack 0
  6655   00160C                     _Transmitir:
  6656                           	callstack 25
  6657                           
  6658                           ;incstack = 0
  6659                           ;Transmitir@BufferT stored from wreg
  6660   00160C  6E01               	movwf	Transmitir@BufferT^0,c
  6661   00160E                     
  6662                           ;Laboratorio_5.c: 503: while (!TXIF);
  6663   00160E  A89E               	btfss	3998,4,c	;volatile
  6664   001610  D7FE               	goto	i2l1307
  6665                           
  6666                           ;Laboratorio_5.c: 504: TXREG = BufferT;
  6667   001612  C001  FFAD         	movff	Transmitir@BufferT,4013	;volatile
  6668   001616  0012               	return		;funcret
  6669   001618                     __end_of_Transmitir:
  6670                           	callstack 0
  6671                           
  6672 ;; *************** function _ConversionADC *****************
  6673 ;; Defined at:
  6674 ;;		line 519 in file "Laboratorio_5.c"
  6675 ;; Parameters:    Size  Location     Type
  6676 ;;  canal           1    wreg     unsigned char 
  6677 ;; Auto vars:     Size  Location     Type
  6678 ;;  canal           1    0[COMRAM] unsigned char 
  6679 ;; Return value:  Size  Location     Type
  6680 ;;                  1    wreg      unsigned char 
  6681 ;; Registers used:
  6682 ;;		wreg, status,2, status,0
  6683 ;; Tracked objects:
  6684 ;;		On entry : 0/0
  6685 ;;		On exit  : 0/0
  6686 ;;		Unchanged: 0/0
  6687 ;; Data sizes:     COMRAM   BANK0   BANK1   BANK2   BANK3   BANK4   BANK5   BANK6   BANK7
  6688 ;;      Params:         0       0       0       0       0       0       0       0       0
  6689 ;;      Locals:         1       0       0       0       0       0       0       0       0
  6690 ;;      Temps:          0       0       0       0       0       0       0       0       0
  6691 ;;      Totals:         1       0       0       0       0       0       0       0       0
  6692 ;;Total ram usage:        1 bytes
  6693 ;; Hardware stack levels used: 1
  6694 ;; This function calls:
  6695 ;;		Nothing
  6696 ;; This function is called by:
  6697 ;;		_ISR
  6698 ;; This function uses a non-reentrant model
  6699 ;;
  6700                           
  6701                           	psect	text44
  6702   001544                     __ptext44:
  6703                           	callstack 0
  6704   001544                     _ConversionADC:
  6705                           	callstack 26
  6706                           
  6707                           ;incstack = 0
  6708                           ;ConversionADC@canal stored from wreg
  6709   001544  6E01               	movwf	ConversionADC@canal^0,c
  6710                           
  6711                           ;Laboratorio_5.c: 520: if (canal>12)
  6712   001546  0E0C               	movlw	12
  6713   001548  6401               	cpfsgt	ConversionADC@canal^0,c
  6714   00154A  D002               	goto	i2l1873
  6715                           
  6716                           ;Laboratorio_5.c: 521: return 0;
  6717   00154C  0E00               	movlw	0
  6718   00154E  0012               	return	
  6719   001550                     i2l1873:
  6720                           
  6721                           ;Laboratorio_5.c: 522: ADCON0=(canal<<2)|0b00000001;
  6722   001550  4401               	rlncf	ConversionADC@canal^0,w,c
  6723   001552  46E8               	rlncf	wreg,f,c
  6724   001554  0BFC               	andlw	252
  6725   001556  0901               	iorlw	1
  6726   001558  6EC2               	movwf	194,c	;volatile
  6727                           
  6728                           ;Laboratorio_5.c: 523: GO = 1;
  6729   00155A  82C2               	bsf	4034,1,c	;volatile
  6730   00155C                     i2l398:
  6731   00155C  B2C2               	btfsc	4034,1,c	;volatile
  6732   00155E  D7FE               	goto	i2l398
  6733                           
  6734                           ;Laboratorio_5.c: 525: return ADRESH;
  6735   001560  50C4               	movf	196,w,c	;volatile
  6736   001562  0012               	return		;funcret
  6737   001564                     __end_of_ConversionADC:
  6738                           	callstack 0
  6739                           
  6740                           	psect	rparam
  6741   000001                     ___rparam_used  equ	1
  6742   000000                     ___param_bank   equ	0
  6743   000000                     __Lparam        equ	__Lrparam
  6744   000000                     __Hparam        equ	__Hrparam
  6745                           
  6746                           	psect	temp
  6747   000036                     btemp:
  6748                           	callstack 0
  6749   000036                     	ds	1
  6750   000036                     int$flags       set	btemp
  6751   000037                     wtemp8          set	btemp+1
  6752   000037                     ttemp5          set	btemp+1
  6753   00003A                     ttemp6          set	btemp+4
  6754   00003E                     ttemp7          set	btemp+8
  6755                           
  6756                           	psect	idloc
  6757                           
  6758                           ;Config register IDLOC0 @ 0x200000
  6759                           ;	unspecified, using default values
  6760   200000                     	org	2097152
  6761   200000  FF                 	db	255
  6762                           
  6763                           ;Config register IDLOC1 @ 0x200001
  6764                           ;	unspecified, using default values
  6765   200001                     	org	2097153
  6766   200001  FF                 	db	255
  6767                           
  6768                           ;Config register IDLOC2 @ 0x200002
  6769                           ;	unspecified, using default values
  6770   200002                     	org	2097154
  6771   200002  FF                 	db	255
  6772                           
  6773                           ;Config register IDLOC3 @ 0x200003
  6774                           ;	unspecified, using default values
  6775   200003                     	org	2097155
  6776   200003  FF                 	db	255
  6777                           
  6778                           ;Config register IDLOC4 @ 0x200004
  6779                           ;	unspecified, using default values
  6780   200004                     	org	2097156
  6781   200004  FF                 	db	255
  6782                           
  6783                           ;Config register IDLOC5 @ 0x200005
  6784                           ;	unspecified, using default values
  6785   200005                     	org	2097157
  6786   200005  FF                 	db	255
  6787                           
  6788                           ;Config register IDLOC6 @ 0x200006
  6789                           ;	unspecified, using default values
  6790   200006                     	org	2097158
  6791   200006  FF                 	db	255
  6792                           
  6793                           ;Config register IDLOC7 @ 0x200007
  6794                           ;	unspecified, using default values
  6795   200007                     	org	2097159
  6796   200007  FF                 	db	255
  6797                           
  6798                           	psect	config
  6799                           
  6800                           ;Config register CONFIG1L @ 0x300000
  6801                           ;	unspecified, using default values
  6802                           ;	PLL Prescaler Selection bits
  6803                           ;	PLLDIV = 0x0, unprogrammed default
  6804                           ;	System Clock Postscaler Selection bits
  6805                           ;	CPUDIV = 0x0, unprogrammed default
  6806                           ;	USB Clock Selection bit (used in Full-Speed USB mode only; UCFG:FSEN = 1)
  6807                           ;	USBDIV = 0x0, unprogrammed default
  6808   300000                     	org	3145728
  6809   300000  00                 	db	0
  6810                           
  6811                           ;Config register CONFIG1H @ 0x300001
  6812                           ;	Oscillator Selection bits
  6813                           ;	FOSC = INTOSC_EC, Internal oscillator, CLKO function on RA6, EC used by USB (INTCKO)
  6814                           ;	Fail-Safe Clock Monitor Enable bit
  6815                           ;	FCMEN = 0x0, unprogrammed default
  6816                           ;	Internal/External Oscillator Switchover bit
  6817                           ;	IESO = 0x0, unprogrammed default
  6818   300001                     	org	3145729
  6819   300001  09                 	db	9
  6820                           
  6821                           ;Config register CONFIG2L @ 0x300002
  6822                           ;	Power-up Timer Enable bit
  6823                           ;	PWRT = 0x1, unprogrammed default
  6824                           ;	Brown-out Reset Enable bits
  6825                           ;	BOR = OFF, Brown-out Reset disabled in hardware and software
  6826                           ;	Brown-out Reset Voltage bits
  6827                           ;	BORV = 0x3, unprogrammed default
  6828                           ;	USB Voltage Regulator Enable bit
  6829                           ;	VREGEN = 0x0, unprogrammed default
  6830   300002                     	org	3145730
  6831   300002  19                 	db	25
  6832                           
  6833                           ;Config register CONFIG2H @ 0x300003
  6834                           ;	Watchdog Timer Enable bit
  6835                           ;	WDT = OFF, WDT disabled (control is placed on the SWDTEN bit)
  6836                           ;	Watchdog Timer Postscale Select bits
  6837                           ;	WDTPS = 0xF, unprogrammed default
  6838   300003                     	org	3145731
  6839   300003  1E                 	db	30
  6840                           
  6841                           ; Padding undefined space
  6842   300004                     	org	3145732
  6843   300004  FF                 	db	255
  6844                           
  6845                           ;Config register CONFIG3H @ 0x300005
  6846                           ;	CCP2 MUX bit
  6847                           ;	CCP2MX = 0x1, unprogrammed default
  6848                           ;	PORTB A/D Enable bit
  6849                           ;	PBADEN = OFF, PORTB<4:0> pins are configured as digital I/O on Reset
  6850                           ;	Low-Power Timer 1 Oscillator Enable bit
  6851                           ;	LPT1OSC = 0x0, unprogrammed default
  6852                           ;	MCLR Pin Enable bit
  6853                           ;	MCLRE = 0x1, unprogrammed default
  6854   300005                     	org	3145733
  6855   300005  81                 	db	129
  6856                           
  6857                           ;Config register CONFIG4L @ 0x300006
  6858                           ;	Stack Full/Underflow Reset Enable bit
  6859                           ;	STVREN = 0x1, unprogrammed default
  6860                           ;	Single-Supply ICSP Enable bit
  6861                           ;	LVP = OFF, Single-Supply ICSP disabled
  6862                           ;	Dedicated In-Circuit Debug/Programming Port (ICPORT) Enable bit
  6863                           ;	ICPRT = 0x0, unprogrammed default
  6864                           ;	Extended Instruction Set Enable bit
  6865                           ;	XINST = 0x0, unprogrammed default
  6866                           ;	Background Debugger Enable bit
  6867                           ;	DEBUG = 0x1, unprogrammed default
  6868   300006                     	org	3145734
  6869   300006  81                 	db	129
  6870                           
  6871                           ; Padding undefined space
  6872   300007                     	org	3145735
  6873   300007  FF                 	db	255
  6874                           
  6875                           ;Config register CONFIG5L @ 0x300008
  6876                           ;	unspecified, using default values
  6877                           ;	Code Protection bit
  6878                           ;	CP0 = 0x1, unprogrammed default
  6879                           ;	Code Protection bit
  6880                           ;	CP1 = 0x1, unprogrammed default
  6881                           ;	Code Protection bit
  6882                           ;	CP2 = 0x1, unprogrammed default
  6883                           ;	Code Protection bit
  6884                           ;	CP3 = 0x1, unprogrammed default
  6885   300008                     	org	3145736
  6886   300008  0F                 	db	15
  6887                           
  6888                           ;Config register CONFIG5H @ 0x300009
  6889                           ;	unspecified, using default values
  6890                           ;	Boot Block Code Protection bit
  6891                           ;	CPB = 0x1, unprogrammed default
  6892                           ;	Data EEPROM Code Protection bit
  6893                           ;	CPD = 0x1, unprogrammed default
  6894   300009                     	org	3145737
  6895   300009  C0                 	db	192
  6896                           
  6897                           ;Config register CONFIG6L @ 0x30000A
  6898                           ;	unspecified, using default values
  6899                           ;	Write Protection bit
  6900                           ;	WRT0 = 0x1, unprogrammed default
  6901                           ;	Write Protection bit
  6902                           ;	WRT1 = 0x1, unprogrammed default
  6903                           ;	Write Protection bit
  6904                           ;	WRT2 = 0x1, unprogrammed default
  6905                           ;	Write Protection bit
  6906                           ;	WRT3 = 0x1, unprogrammed default
  6907   30000A                     	org	3145738
  6908   30000A  0F                 	db	15
  6909                           
  6910                           ;Config register CONFIG6H @ 0x30000B
  6911                           ;	unspecified, using default values
  6912                           ;	Configuration Register Write Protection bit
  6913                           ;	WRTC = 0x1, unprogrammed default
  6914                           ;	Boot Block Write Protection bit
  6915                           ;	WRTB = 0x1, unprogrammed default
  6916                           ;	Data EEPROM Write Protection bit
  6917                           ;	WRTD = 0x1, unprogrammed default
  6918   30000B                     	org	3145739
  6919   30000B  E0                 	db	224
  6920                           
  6921                           ;Config register CONFIG7L @ 0x30000C
  6922                           ;	unspecified, using default values
  6923                           ;	Table Read Protection bit
  6924                           ;	EBTR0 = 0x1, unprogrammed default
  6925                           ;	Table Read Protection bit
  6926                           ;	EBTR1 = 0x1, unprogrammed default
  6927                           ;	Table Read Protection bit
  6928                           ;	EBTR2 = 0x1, unprogrammed default
  6929                           ;	Table Read Protection bit
  6930                           ;	EBTR3 = 0x1, unprogrammed default
  6931   30000C                     	org	3145740
  6932   30000C  0F                 	db	15
  6933                           
  6934                           ;Config register CONFIG7H @ 0x30000D
  6935                           ;	unspecified, using default values
  6936                           ;	Boot Block Table Read Protection bit
  6937                           ;	EBTRB = 0x1, unprogrammed default
  6938   30000D                     	org	3145741
  6939   30000D  40                 	db	64
  6940                           tosu	equ	0xFFF
  6941                           tosh	equ	0xFFE
  6942                           tosl	equ	0xFFD
  6943                           stkptr	equ	0xFFC
  6944                           pclatu	equ	0xFFB
  6945                           pclath	equ	0xFFA
  6946                           pcl	equ	0xFF9
  6947                           tblptru	equ	0xFF8
  6948                           tblptrh	equ	0xFF7
  6949                           tblptrl	equ	0xFF6
  6950                           tablat	equ	0xFF5
  6951                           prodh	equ	0xFF4
  6952                           prodl	equ	0xFF3
  6953                           indf0	equ	0xFEF
  6954                           postinc0	equ	0xFEE
  6955                           postdec0	equ	0xFED
  6956                           preinc0	equ	0xFEC
  6957                           plusw0	equ	0xFEB
  6958                           fsr0h	equ	0xFEA
  6959                           fsr0l	equ	0xFE9
  6960                           wreg	equ	0xFE8
  6961                           indf1	equ	0xFE7
  6962                           postinc1	equ	0xFE6
  6963                           postdec1	equ	0xFE5
  6964                           preinc1	equ	0xFE4
  6965                           plusw1	equ	0xFE3
  6966                           fsr1h	equ	0xFE2
  6967                           fsr1l	equ	0xFE1
  6968                           bsr	equ	0xFE0
  6969                           indf2	equ	0xFDF
  6970                           postinc2	equ	0xFDE
  6971                           postdec2	equ	0xFDD
  6972                           preinc2	equ	0xFDC
  6973                           plusw2	equ	0xFDB
  6974                           fsr2h	equ	0xFDA
  6975                           fsr2l	equ	0xFD9
  6976                           status	equ	0xFD8

Data Sizes:
    Strings     258
    Constant    80
    Data        1
    BSS         17
    Persistent  0
    Stack       0

Auto Spaces:
    Space          Size  Autos    Used
    COMRAM           94     35      53
    BANK0           160     34      34
    BANK1           256      0       0
    BANK2           256      0       0
    BANK3           256      0       0
    BANK4           256      0       0
    BANK5           256      0       0
    BANK6           256      0       0
    BANK7           256      0       0

Pointer List with Targets:

    LCD_CrearCaracter@pattern	PTR const unsigned char  size(2) Largest target is 8
		 -> explosion(CODE[8]), rpg(CODE[8]), runner0(CODE[8]), runner1(CODE[8]), 
		 -> runner2(CODE[8]), 

    Lcd_String@str	PTR const unsigned char  size(2) Largest target is 22
		 -> STR_1(CODE[15]), STR_10(CODE[17]), STR_11(CODE[12]), STR_12(CODE[15]), 
		 -> STR_13(CODE[13]), STR_14(CODE[22]), STR_15(CODE[17]), STR_16(CODE[17]), 
		 -> STR_7(CODE[10]), STR_8(CODE[11]), STR_9(CODE[15]), 

    Transmitir_Cadena@cadena	PTR const unsigned char  size(2) Largest target is 24
		 -> STR_2(CODE[16]), STR_3(CODE[24]), STR_4(CODE[18]), STR_5(CODE[16]), 
		 -> STR_6(CODE[20]), 


Critical Paths under _main in COMRAM

    _main->_mostrar_conteo
    _mostrar_valor->_Lcd_Set_Cursor
    _mostrar_conteo->_color
    _mostrar_completado->_color
    _unidad->___lwmod
    _color->___lwdiv
    _mensaje_reset->_Lcd_Set_Cursor
    _lcd_animacion_bienvenida->_LCD_CrearCaracter
    _LCD_CrearCaracter->_Lcd_Char
    _LCD_CrearCaracter->_Lcd_Cmd
    _emergencia->_Lcd_Set_Cursor
    _Lcd_String->_Lcd_Char
    _Lcd_Set_Cursor->_Lcd_Cmd
    _Lcd_Init->_Lcd_Cmd
    _Lcd_Clear->_Lcd_Cmd

Critical Paths under _ISR in COMRAM

    _ISR->i2_mostrar_conteo
    i2_mostrar_valor->i2_Lcd_Set_Cursor
    i2_mostrar_conteo->i2_color
    i2_mostrar_completado->i2_color
    i2_unidad->i2___lwmod
    i2_color->i2___lwdiv
    i2_emergencia->i2_Lcd_Set_Cursor
    i2_Lcd_String->i2_Lcd_Char
    i2_Lcd_Set_Cursor->i2_Lcd_Cmd
    i2_Lcd_Clear->i2_Lcd_Cmd
    _Transmitir_Numero->___lbmod
    ___lbmod->___lbdiv
    _Transmitir_Cadena->_Transmitir

Critical Paths under _main in BANK0

    _main->_lcd_animacion_bienvenida

Critical Paths under _ISR in BANK0

    None.

Critical Paths under _main in BANK1

    None.

Critical Paths under _ISR in BANK1

    None.

Critical Paths under _main in BANK2

    None.

Critical Paths under _ISR in BANK2

    None.

Critical Paths under _main in BANK3

    None.

Critical Paths under _ISR in BANK3

    None.

Critical Paths under _main in BANK4

    None.

Critical Paths under _ISR in BANK4

    None.

Critical Paths under _main in BANK5

    None.

Critical Paths under _ISR in BANK5

    None.

Critical Paths under _main in BANK6

    None.

Critical Paths under _ISR in BANK6

    None.

Critical Paths under _main in BANK7

    None.

Critical Paths under _ISR in BANK7

    None.

Call Graph Tables:

 ---------------------------------------------------------------------------------
 (Depth) Function   	        Calls       Base Space   Used Autos Params    Refs
 ---------------------------------------------------------------------------------
 (0) _main                                                 4     4      0   16563
                                             31 COMRAM     4     4      0
                           _Lcd_Char
                          _Lcd_Clear
                           _Lcd_Init
                     _Lcd_Set_Cursor
                         _Lcd_String
                            ___lwdiv
                            ___lwmod
                         _beep_corto
                         _beep_largo
                         _emergencia
               _inicializar_hardware
           _lcd_animacion_bienvenida
                      _mensaje_reset
                 _mostrar_completado
                     _mostrar_conteo
                      _mostrar_valor
 ---------------------------------------------------------------------------------
 (1) _mostrar_valor                                        0     0      0    1469
                          _Lcd_Clear
                     _Lcd_Set_Cursor
                         _Lcd_String
 ---------------------------------------------------------------------------------
 (1) _mostrar_conteo                                       2     2      0    3084
                                             29 COMRAM     2     2      0
                           _Lcd_Char
                          _Lcd_Clear
                     _Lcd_Set_Cursor
                         _Lcd_String
                            ___awdiv
                            ___awmod
                            ___lwdiv
                            ___lwmod
                              _color
                             _unidad
 ---------------------------------------------------------------------------------
 (2) ___awdiv                                              8     4      4     302
                                             18 COMRAM     8     4      4
 ---------------------------------------------------------------------------------
 (1) _mostrar_completado                                   0     0      0    1862
                          _Lcd_Clear
                     _Lcd_Set_Cursor
                         _Lcd_String
                            ___lwdiv
                            ___lwmod
                              _color
                             _unidad
 ---------------------------------------------------------------------------------
 (2) _unidad                                               3     1      2      24
                                             23 COMRAM     3     1      2
                            ___lwmod (ARG)
 ---------------------------------------------------------------------------------
 (2) _color                                                4     2      2      24
                                             25 COMRAM     4     2      2
                            ___lwdiv (ARG)
 ---------------------------------------------------------------------------------
 (2) ___lwmod                                              5     1      4     171
                                             18 COMRAM     5     1      4
 ---------------------------------------------------------------------------------
 (2) ___lwdiv                                              7     3      4     174
                                             18 COMRAM     7     3      4
 ---------------------------------------------------------------------------------
 (1) _mensaje_reset                                        2     2      0    1469
                                             26 COMRAM     2     2      0
                          _Lcd_Clear
                     _Lcd_Set_Cursor
                         _Lcd_String
 ---------------------------------------------------------------------------------
 (1) _lcd_animacion_bienvenida                            36    36      0    3890
                                             27 COMRAM     2     2      0
                                              0 BANK0     34    34      0
                  _LCD_CrearCaracter
                           _Lcd_Char
                          _Lcd_Clear
                     _Lcd_Set_Cursor
                         _Lcd_String
                            ___awmod
 ---------------------------------------------------------------------------------
 (2) ___awmod                                              6     2      4     445
                                             18 COMRAM     6     2      4
 ---------------------------------------------------------------------------------
 (2) _LCD_CrearCaracter                                    6     4      2     944
                                             21 COMRAM     6     4      2
                           _Lcd_Char
                            _Lcd_Cmd
 ---------------------------------------------------------------------------------
 (1) _inicializar_hardware                                 2     2      0       0
                                             18 COMRAM     2     2      0
 ---------------------------------------------------------------------------------
 (1) _emergencia                                           0     0      0    1469
                          _Lcd_Clear
                     _Lcd_Set_Cursor
                         _Lcd_String
 ---------------------------------------------------------------------------------
 (2) _Lcd_String                                           2     0      2     474
                                             21 COMRAM     2     0      2
                           _Lcd_Char
 ---------------------------------------------------------------------------------
 (3) _Lcd_Char                                             3     3      0     376
                                             18 COMRAM     3     3      0
 ---------------------------------------------------------------------------------
 (2) _Lcd_Set_Cursor                                       5     4      1     619
                                             21 COMRAM     5     4      1
                            _Lcd_Cmd
 ---------------------------------------------------------------------------------
 (1) _beep_largo                                           1     1      0       0
                                             18 COMRAM     1     1      0
 ---------------------------------------------------------------------------------
 (1) _beep_corto                                           1     1      0       0
                                             18 COMRAM     1     1      0
 ---------------------------------------------------------------------------------
 (1) _Lcd_Init                                             1     1      0     752
                                             21 COMRAM     1     1      0
                          _Lcd_Clear
                            _Lcd_Cmd
 ---------------------------------------------------------------------------------
 (2) _Lcd_Clear                                            0     0      0     376
                            _Lcd_Cmd
 ---------------------------------------------------------------------------------
 (3) _Lcd_Cmd                                              3     3      0     376
                                             18 COMRAM     3     3      0
 ---------------------------------------------------------------------------------
 Estimated maximum stack depth 3
 ---------------------------------------------------------------------------------
 (Depth) Function   	        Calls       Base Space   Used Autos Params    Refs
 ---------------------------------------------------------------------------------
 (4) _ISR                                                  5     5      0    6331
                                             13 COMRAM     5     5      0
                      _ConversionADC
                  _Transmitir_Cadena
                  _Transmitir_Numero
                        i2_Lcd_Clear
                          i2___lwdiv
                          i2___lwmod
                            i2_color
                       i2_emergencia
               i2_mostrar_completado
                   i2_mostrar_conteo
                    i2_mostrar_valor
                           i2_unidad
 ---------------------------------------------------------------------------------
 (5) i2_mostrar_valor                                      0     0      0     875
                        i2_Lcd_Clear
                   i2_Lcd_Set_Cursor
                       i2_Lcd_String
 ---------------------------------------------------------------------------------
 (5) i2_mostrar_conteo                                     2     2      0    2162
                                             11 COMRAM     2     2      0
                         i2_Lcd_Char
                        i2_Lcd_Clear
                   i2_Lcd_Set_Cursor
                       i2_Lcd_String
                          i2___awdiv
                          i2___awmod
                          i2___lwdiv
                          i2___lwmod
                            i2_color
                           i2_unidad
 ---------------------------------------------------------------------------------
 (6) i2___awmod                                            6     2      4     298
                                              0 COMRAM     6     2      4
 ---------------------------------------------------------------------------------
 (6) i2___awdiv                                            8     4      4     302
                                              0 COMRAM     8     4      4
 ---------------------------------------------------------------------------------
 (5) i2_mostrar_completado                                 0     0      0    1262
                        i2_Lcd_Clear
                   i2_Lcd_Set_Cursor
                       i2_Lcd_String
                          i2___lwdiv
                          i2___lwmod
                            i2_color
                           i2_unidad
 ---------------------------------------------------------------------------------
 (5) i2_unidad                                             3     1      2      25
                                              5 COMRAM     3     1      2
                          i2___lwmod (ARG)
 ---------------------------------------------------------------------------------
 (6) i2_color                                              4     2      2      25
                                              7 COMRAM     4     2      2
                          i2___lwdiv (ARG)
 ---------------------------------------------------------------------------------
 (6) i2___lwmod                                            5     1      4     167
                                              0 COMRAM     5     1      4
 ---------------------------------------------------------------------------------
 (6) i2___lwdiv                                            7     3      4     170
                                              0 COMRAM     7     3      4
 ---------------------------------------------------------------------------------
 (5) i2_emergencia                                         0     0      0     875
                        i2_Lcd_Clear
                   i2_Lcd_Set_Cursor
                       i2_Lcd_String
 ---------------------------------------------------------------------------------
 (6) i2_Lcd_String                                         2     0      2     284
                                              3 COMRAM     2     0      2
                         i2_Lcd_Char
 ---------------------------------------------------------------------------------
 (7) i2_Lcd_Char                                           3     3      0     232
                                              0 COMRAM     3     3      0
 ---------------------------------------------------------------------------------
 (6) i2_Lcd_Set_Cursor                                     5     4      1     359
                                              3 COMRAM     5     4      1
                          i2_Lcd_Cmd
 ---------------------------------------------------------------------------------
 (6) i2_Lcd_Clear                                          0     0      0     232
                          i2_Lcd_Cmd
 ---------------------------------------------------------------------------------
 (7) i2_Lcd_Cmd                                            3     3      0     232
                                              0 COMRAM     3     3      0
 ---------------------------------------------------------------------------------
 (5) _Transmitir_Numero                                    1     1      0     443
                                              8 COMRAM     1     1      0
                         _Transmitir
                            ___lbdiv
                            ___lbmod
 ---------------------------------------------------------------------------------
 (6) ___lbmod                                              4     3      1     169
                                              4 COMRAM     4     3      1
                            ___lbdiv (ARG)
 ---------------------------------------------------------------------------------
 (6) ___lbdiv                                              4     3      1     172
                                              0 COMRAM     4     3      1
 ---------------------------------------------------------------------------------
 (5) _Transmitir_Cadena                                    2     0      2      65
                                              1 COMRAM     2     0      2
                         _Transmitir
 ---------------------------------------------------------------------------------
 (6) _Transmitir                                           1     1      0      15
                                              0 COMRAM     1     1      0
 ---------------------------------------------------------------------------------
 (5) _ConversionADC                                        1     1      0      30
                                              0 COMRAM     1     1      0
 ---------------------------------------------------------------------------------
 Estimated maximum stack depth 7
 ---------------------------------------------------------------------------------

 Call Graph Graphs:

 _main (ROOT)
   _Lcd_Char
   _Lcd_Clear
     _Lcd_Cmd
   _Lcd_Init
     _Lcd_Clear
     _Lcd_Cmd
   _Lcd_Set_Cursor
     _Lcd_Cmd
   _Lcd_String
     _Lcd_Char
   ___lwdiv
   ___lwmod
   _beep_corto
   _beep_largo
   _emergencia
     _Lcd_Clear
     _Lcd_Set_Cursor
     _Lcd_String
   _inicializar_hardware
   _lcd_animacion_bienvenida
     _LCD_CrearCaracter
       _Lcd_Char
       _Lcd_Cmd
     _Lcd_Char
     _Lcd_Clear
     _Lcd_Set_Cursor
     _Lcd_String
     ___awmod
   _mensaje_reset
     _Lcd_Clear
     _Lcd_Set_Cursor
     _Lcd_String
   _mostrar_completado
     _Lcd_Clear
     _Lcd_Set_Cursor
     _Lcd_String
     ___lwdiv
     ___lwmod
     _color
       ___lwdiv (ARG)
     _unidad
       ___lwmod (ARG)
   _mostrar_conteo
     _Lcd_Char
     _Lcd_Clear
     _Lcd_Set_Cursor
     _Lcd_String
     ___awdiv
     ___awmod
     ___lwdiv
     ___lwmod
     _color
     _unidad
   _mostrar_valor
     _Lcd_Clear
     _Lcd_Set_Cursor
     _Lcd_String

 _ISR (ROOT)
   _ConversionADC
   _Transmitir_Cadena
     _Transmitir
   _Transmitir_Numero
     _Transmitir
     ___lbdiv
     ___lbmod
       ___lbdiv (ARG)
   i2_Lcd_Clear
     i2_Lcd_Cmd
   i2___lwdiv
   i2___lwmod
   i2_color
     i2___lwdiv (ARG)
   i2_emergencia
     i2_Lcd_Clear
     i2_Lcd_Set_Cursor
       i2_Lcd_Cmd
     i2_Lcd_String
       i2_Lcd_Char
   i2_mostrar_completado
     i2_Lcd_Clear
     i2_Lcd_Set_Cursor
     i2_Lcd_String
     i2___lwdiv
     i2___lwmod
     i2_color
     i2_unidad
       i2___lwmod (ARG)
   i2_mostrar_conteo
     i2_Lcd_Char
     i2_Lcd_Clear
     i2_Lcd_Set_Cursor
     i2_Lcd_String
     i2___awdiv
     i2___awmod
     i2___lwdiv
     i2___lwmod
     i2_color
     i2_unidad
   i2_mostrar_valor
     i2_Lcd_Clear
     i2_Lcd_Set_Cursor
     i2_Lcd_String
   i2_unidad

Address spaces:
Name               Size   Autos  Total    Usage
BIGRAM            2047      0       0      0.0%
BITBANK7           256      0       0      0.0%
BANK7              256      0       0      0.0%
BITBANK6           256      0       0      0.0%
BANK6              256      0       0      0.0%
BITBANK5           256      0       0      0.0%
BANK5              256      0       0      0.0%
BITBANK4           256      0       0      0.0%
BANK4              256      0       0      0.0%
BITBANK3           256      0       0      0.0%
BANK3              256      0       0      0.0%
BITBANK2           256      0       0      0.0%
BANK2              256      0       0      0.0%
BITBANK1           256      0       0      0.0%
BANK1              256      0       0      0.0%
BITBANK0           160      0       0      0.0%
BANK0              160     34      34     21.2%
BITBIGSFRh         115      0       0      0.0%
BITCOMRAM           94      0       0      0.0%
COMRAM              94     35      53     56.4%
BITBIGSFRll         33      0       0      0.0%
BITBIGSFRlh         10      0       0      0.0%
STACK                0      0       0      0.0%
DATA                 0      0      85      0.0%


Microchip Technology PIC18 Macro Assembler V2.50 build 20240725155939 
Symbol Table                                                                                   Mon Jul 21 19:11:40 2025

                    Transmitir@BufferT 0001                                     _GO 7E11  
                         ___awdiv@sign 0018                     i2___lwdiv@dividend 0001  
                                  l345 1082                                    l355 1336  
                                  l368 0680                                    l903 12EC  
                                  l893 11BE                                    _GIE 7F97  
                                  _RC0 7C10                                    _RB4 7C0C  
                                  _RB5 7C0D                                    _RB6 7C0E  
                                  _RB7 7C0F                                    _ISR 0008  
                    ??i2_mostrar_valor 0009                                    _POR 7E81  
                                  _rpg 7EDD                           ___awmod@sign 0018  
                                  wreg 0FE8                      ?i2_mostrar_conteo 0001  
                 mostrar_conteo@faltan 001E                        ??_mostrar_valor 001B  
                                 ?_ISR 0001                     ??i2_mostrar_conteo 000C  
                 i2_Lcd_Set_Cursor$169 0006                                   l2421 1064  
                                 l2423 106A                                   l2425 1070  
                                 l2433 1086                                   l2427 1076  
                                 l2419 105E                                   l3405 1458  
                                 l2429 107C                                   l2461 0D54  
                                 l3415 1508                                   l2463 0D5C  
                                 l2455 0D3E                                   l3409 146C  
                                 l3505 1140                                   l2481 0D94  
                                 l2473 0D7C                                   l2449 0D2E  
                                 l3451 0FAC                                   l3443 0F92  
                                 l3507 115A                                   l2571 118C  
                                 l3429 1404                                   l3453 0FB4  
                                 l3541 0686                                   l3533 065C  
                                 l3525 0648                                   l2573 1194  
                                 l2477 0D86                                   l3701 00E2  
                                 l3463 0FD6                                   l3447 0F9E  
                                 l2583 11B4                                   l2591 12C2  
                                 l3615 0860                                   l3711 0102  
                                 l3703 00E6                                   l2593 12CA  
                                 l3467 0FE4                                   l3459 0FCC  
                                 l3803 030A                                   l3707 00F4  
                                 l3805 032E                                   l3575 0764  
                                 l2599 12E2                                   l3729 0150  
                                 l3681 008E                                   l3771 028C  
                                 l3739 0196                                   l3747 01DE  
                                 l3667 0058                                   l3781 02CC  
                                 l3693 00CA                                   l3759 024A  
                                 l3695 00CE                                   l3793 02F4  
                                 l3777 02BE                                   l3769 0286  
                                 l3787 02E2                                   STR_1 7FC2  
                                 STR_2 7F94                                   STR_3 7EFD  
                                 STR_4 7F3F                                   STR_5 7F84  
                                 STR_6 7F2B                                   STR_7 7FF5  
                                 STR_8 7FEA                                   STR_9 7FB3  
                                 _CREN 7D5C                                   _LATA 0F89  
                                 _LATB 0F8A                                   _LATD 0F8C  
                                 _LATE 0F8D                                   u4020 0AF6  
                                 u4005 0ADC        lcd_animacion_bienvenida@mensaje 0060  
                                 u4110 0B4C                                   u4015 0AE4  
                                 u4105 0B36                                   u4130 0B68  
                                 u4050 0B0A                                   u4210 0A24  
                                 u4035 0AF8                                   u4300 0A7A  
                                 u4125 0B4E                                   u4045 0B00  
                                 u4205 0A12                                   u4070 0B20  
                                 u4150 09EC                                   u4320 0A96  
                                 u4240 0A38                                   u4400 0FB8  
                                 u4145 0B6A                                   u4065 0B0C  
                                 u4225 0A26                                   u4090 0B34  
                                 u4315 0A7C                                   u4235 0A2E  
                                 u4260 0A4E                                   u4180 0A08  
                                 u2820 0D60                                   u4085 0B22  
                                 u4165 09EE                                   u4335 0A98  
                                 u4255 0A3A                                   u4175 09F6  
                                 u4280 0A62                                   u4440 062C  
                                 u4275 0A50                                   u4195 0A0A  
                                 _PEIE 7F96                                   u4460 0676  
                                 u4700 018E                                   u4470 06A2  
                                 u4295 0A64                                   _RBIE 7F93  
                                 u2960 1198                                   u4640 0140  
                                 _RBIF 7F90                                   u4490 07BA  
                                 u4650 0142                                   _RCIE 7CED  
                                 u4660 014C                                   u4580 00E2  
                                 _RCIF 7CF5                                   u2990 12CE  
                                 u4590 00F0                                   u4807 0334  
                                 u3960 0ABE                                   u4817 114A  
                                 u4907 15A4                                   u4827 06DE  
                                 u4917 15BA                                   u4837 0750  
                                 u3990 0ADA                                   u3975 0AC0  
                                 u4927 11DC                                   u4847 077A  
                                 _VADC 0026                                   u3985 0AC8  
                                 u4937 120A                                   u4857 079A  
                                 _OERR 7D59                                   u4947 15F4  
                                 u4867 07C4                                   u4787 0030  
                                 u4957 0B10                                   u4877 0E6E  
                                 u4797 02B0                                   u4967 0B6E  
                                 u4887 0A3E                                   u4897 0A9C  
                                 _RBPU 7F8F                                   _TMR0 0FD6  
                                 _TXIE 7CEC                                   _TXIF 7CF4  
                                 _main 0012                     i2___lwdiv@quotient 0005  
                                 fsr2h 0FDA                                   indf2 0FDF  
                                 fsr2l 0FD9                                   btemp 0036  
                                 prodh 0FF4                                   prodl 0FF3  
                                 start 000E                     _mostrar_completado 0E9C  
                      __end_ofi2_color 1120                        i2Lcd_String@str 0004  
                      __end_of_Lcd_Cmd 0B78                           ___param_bank 0000  
                     ??_mostrar_conteo 001E                                  ??_ISR 000E  
                  ?_mostrar_completado 0001                             _Lcd_String 1456  
                                ?_main 0001                        __end_of___awdiv 0D9E  
                      __end_of___lbdiv 13F4                                  STR_10 7F51  
                                STR_11 7FDE                                  STR_12 7FA4  
                                STR_13 7FD1                                  STR_14 7F15  
                                STR_15 7F62                                  STR_16 7F73  
                      __end_of___awmod 0FEE                        __end_of___lbmod 14FC  
                                _T0CON 0FD5                        ___awdiv@divisor 0015  
                                _LATA1 7C49                                  _LATA2 7C4A  
                                _LATA3 7C4B                                  _LATA4 7C4C  
                                _LATA5 7C4D                                  _LATC2 7C5A  
                                _LATD4 7C64                                  _LATD5 7C65  
                                _LATD6 7C66                                  _LATD7 7C67  
                      __end_of___lwdiv 11C8                        __end_of___lwmod 12F6  
                                i2l300 0420                                  i2l310 0518  
                                i2l303 0504                                  i2l315 05C4  
                                i2l271 0372                                  i2l345 10E4  
                                i2l281 039E                                  i2l273 037A  
                                i2l355 13BA                                  i2l293 03D6  
                                i2l285 03B2                                  i2l277 038E  
                                i2l269 036A                                  i2l294 03EE  
                                i2l295 03DE                                  i2l287 03BA  
                                i2l279 0396                                  i2l297 03E6  
                                i2l289 03C2                                  i2l398 155C  
                                i2l903 1370                        ___awdiv@counter 0017  
                                i2l893 1262                                  _RCREG 0FAE  
                                _RCSTA 0FAB                                  _SPBRG 0FAF  
                                _PORTB 0F81                                  _TRISA 0F92  
                                _TRISB 0F93                                  _TRISD 0F95  
                                _TRISE 0F96                                  _TXREG 0FAD  
                                _TXSTA 0FAC                                  _Tecla 0034  
                          ?i2_Lcd_Char 0001                                  _color 105C  
                 ??_mostrar_completado 001E                                  _input 002A  
              Transmitir_Cadena@cadena 0002                        ??_ConversionADC 0001  
     __end_of_lcd_animacion_bienvenida 07E0                                  tablat 0FF5  
                                ttemp5 0037                                  ttemp6 003A  
                                ttemp7 003E                                  status 0FD8  
                      __end_of_runner0 7EFD                        __end_of_runner1 7EF5  
                      __end_of_runner2 7EED                                  wtemp8 0037  
                      ___lbdiv@divisor 0001                        ___lbdiv@counter 0003  
                     __end_of_Lcd_Char 0AA6                       i2_Lcd_Set_Cursor 1520  
                     __end_ofi2_unidad 15EC                       __end_of_Lcd_Init 121A  
                      __initialization 142A                           __end_of_main 0340  
                               ??_main 0020                          __activetblptr 0002  
                         i2_emergencia 137A                                 _ADCON0 0FC2  
                               _ADCON1 0FC1                                 _ADCON2 0FC0  
                               ?_color 001A                                 _ADRESH 0FC4  
                     ___awdiv@dividend 0013                                 _EMOTOR 0024  
                               _INT2IE 7F84                                 _INT2IF 7F81  
                               i2l1307 160E                                 i2l3201 03A6  
                               i2l3213 03CA                                 i2l3225 03F2  
                               i2l2531 13D2                                 i2l3331 0592  
                               i2l3323 056C                                 i2l3315 0548  
                            ??i2_color 000A                                 i2l2605 1482  
                               i2l2701 1000                                 i2l3237 0428  
                               i2l2527 13CC                                 i2l2543 13F0  
                               i2l2551 14DC                                 i2l2615 152C  
                               i2l2631 10C6                                 i2l2711 1022  
                               i2l2609 1496                                 i2l2633 10CC  
                               i2l2721 1044                                 i2l2705 100C  
                               i2l3257 046A                                 i2l2539 13E8  
                               i2l2635 10D2                                 i2l2643 10E8  
                               i2l3291 04E8                                 i2l2637 10D8  
                               i2l2629 10C0                                 i2l2725 1052  
                               i2l2717 103A                                 i2l2709 101A  
                               i2l3189 0382                                 i2l2559 14F4  
                               i2l2735 1230                                 i2l2639 10DE  
                               i2l2671 0DDE                                 i2l2663 0DC0  
                               i2l3295 04F8                                 i2l1873 1550  
                               i2l2737 1238                                 i2l2681 0DFE  
                               i2l2657 0DB0                                 i2l2747 1258  
                               i2l2763 1366                                 i2l2755 1346  
                               i2l2757 134E                                 i2l2669 0DD6  
                               i2l2685 0E08                                 i2l2945 14AC  
                               i2l2689 0E16                                 i2l2949 14C0  
                               i2l2973 095A                              ??_Lcd_Cmd 0013  
                               _TMR0IE 7F95                                 _TMR0IF 7F92  
                               _TMR0ON 7EAF                                 _TRISC0 7CA0  
                               _TRISA5 7C95                                 _TRISC2 7CA2  
                         ?i2_Lcd_Clear 0001                      __end_ofi2_Lcd_Cmd 0D1C  
                            ??___awdiv 0017                              ??___lbdiv 0002  
                            ??___awmod 0017                              ??___lbmod 0006  
                            ??___lwdiv 0017                              ??___lwmod 0017  
                               _estado 0030                                 clear_0 1442  
                     ___awdiv@quotient 0019                        ___awmod@divisor 0015  
                               isa$std 0001                        ___awmod@counter 0017  
                               _unidad 15C8                            ?_Lcd_String 0016  
                               color@i 001A                         i2___awdiv@sign 0006  
                         __pdataCOMRAM 0035                      __end_ofi2___awdiv 0E20  
                    __end_ofi2___awmod 105C                      __end_ofi2___lwdiv 126C  
                         __mediumconst 7EAC                      __end_ofi2___lwmod 137A  
                               tblptrh 0FF7                                 tblptrl 0FF6  
                               tblptru 0FF8                         i2___awmod@sign 0006  
                           _Transmitir 160C                       ___lbdiv@dividend 0002  
                      ___lbmod@divisor 0005                             __accesstop 0060  
              __end_of__initialization 1448                        ___lbmod@counter 0007  
                    __end_of_Lcd_Clear 15FC                          ___rparam_used 0001  
                      i2_mostrar_valor 1580                     i2___lwmod@dividend 0001  
                       __pcstackCOMRAM 0001                          __end_of_color 10BE  
            ?_lcd_animacion_bienvenida 0001                       ___lbdiv@quotient 0004  
         __end_ofi2_mostrar_completado 0F80                         _Lcd_Set_Cursor 14FC  
                            ?_Lcd_Char 0001                              ?i2_unidad 0006  
                            ?_Lcd_Init 0001                             _beep_corto 15B2  
                           _beep_largo 159C                                ??_color 001C  
                           _btnRC0_ant 0033                                _BAUDCON 0FB8  
               __end_of_Lcd_Set_Cursor 1520                          _mensaje_reset 1120  
                              ?_unidad 0018               __end_ofi2_Lcd_Set_Cursor 1544  
                         ??i2_Lcd_Char 0001                             _emergencia 12F6  
                           ??_Lcd_Char 0013                             ??i2_unidad 0008  
                           ??_Lcd_Init 0016                            ?_Transmitir 0001  
                __end_of_mostrar_valor 1580                                i2_color 10BE  
               i2Lcd_Set_Cursor@column 0004                                _Lcd_Cmd 0AA6  
              __end_ofi2_mostrar_valor 159C                                _BufferR 0032  
                              __Hparam 0000                                __Lparam 0000  
                              ___awdiv 0D1C                                ___lbdiv 13BC  
                              ___awmod 0F80                                ___lbmod 14D4  
                              ___lwdiv 1176                     __end_ofi2_Lcd_Char 0C4A  
                              ___lwmod 12B4                         ?_mensaje_reset 0001  
                              __pcinit 142A                                __ramtop 0800  
                      ?_Lcd_Set_Cursor 0016                                __ptext0 0012  
                              __ptext1 1564                                __ptext2 07E0  
                              __ptext3 0D1C                                __ptext4 0E9C  
                              __ptext5 15C8                                __ptext6 105C  
                              __ptext7 12B4                                __ptext8 1176  
                              __ptext9 1120                          ?i2_Lcd_String 0004  
                     ___awmod@dividend 0013                            ?_beep_corto 0001  
                          ?_beep_largo 0001                                _runner0 7EF5  
                              _runner1 7EED                                _runner2 7EE5  
                    __end_of_explosion 7EDD                         __pintcode_body 0340  
                 end_of_initialization 1448                  __end_of_ConversionADC 1564  
                        __Lmediumconst 7EAC                                int_func 0340  
                   ConversionADC@canal 0001                   i2_mostrar_completado 0F0E  
             LCD_CrearCaracter@pattern 0016                                unidad@i 0018  
         __end_of_inicializar_hardware 0E9C                                postinc0 0FEE  
                              postinc2 0FDE                         ??i2_Lcd_String 0006  
                            i2_Lcd_Cmd 0C4A                           ??_Lcd_String 0018  
                     ___lbmod@dividend 0006                            ?_emergencia 0001  
                            i2___awdiv 0D9E                              i2___awmod 0FEE  
                    i2___lwdiv@divisor 0003                              i2___lwdiv 121A  
                            i2___lwmod 1338                      i2___lwdiv@counter 0007  
            lcd_animacion_bienvenida@c 007D              lcd_animacion_bienvenida@i 007B  
            lcd_animacion_bienvenida@j 007E                            ___lbmod@rem 0008  
                    _LCD_CrearCaracter 13F4                             main@btnRC0 0022  
                     ?i2_mostrar_valor 0001                  ?i2_mostrar_completado 0001  
                   i2___awdiv@dividend 0001                     ?_LCD_CrearCaracter 0016  
                   __end_of_Lcd_String 1480                       i2_mostrar_conteo 08DA  
                            _Lcd_Clear 15EC                        ??_mensaje_reset 001B  
                  ??_LCD_CrearCaracter 0018  __end_oflcd_animacion_bienvenida@F3164 7EC4  
        lcd_animacion_bienvenida@F3164 7EAD                          __pidataCOMRAM 1618  
                           ?i2_Lcd_Cmd 0001                         __end_of_unidad 15DA  
                  start_initialization 142A                     i2___awdiv@quotient 0007  
                          __end_of_ISR 05D8          lcd_animacion_bienvenida@pasos 0079  
                          __end_of_rpg 7EE5                              i2unidad@i 0006  
                           ?i2___awdiv 0001                             ?i2___awmod 0001  
            __end_of_LCD_CrearCaracter 142A                             ?i2___lwdiv 0001  
                           ?i2___lwmod 0001                             ?_Lcd_Clear 0001  
                             ??_unidad 001A                            __pbssCOMRAM 0024  
                        __pcstackBANK0 0060                      ?i2_Lcd_Set_Cursor 0004  
               i2mostrar_conteo@faltan 000C                      i2___lwmod@divisor 0003  
                    i2___lwmod@counter 0005                           ??_Transmitir 0001  
                   ??i2_Lcd_Set_Cursor 0005                     _Lcd_Set_Cursor$169 0019  
                 _inicializar_hardware 0E20                          Lcd_String@str 0016  
                             ?i2_color 0008                 ??i2_mostrar_completado 000C  
                             ?_Lcd_Cmd 0001                   __end_ofi2_Lcd_String 14AA  
                  __end_of_mapa_teclas 7ED5                       ___lwdiv@dividend 0013  
             _lcd_animacion_bienvenida 05D8                       ??_Lcd_Set_Cursor 0017  
                            __pintcode 0008                          __pmediumconst 7EAC  
                  i2Lcd_Set_Cursor@pos 0008                               ?___awdiv 0013  
                             ?___lbdiv 0001                    i2Lcd_Set_Cursor@row 0005  
                             ?___awmod 0013                               ?___lbmod 0005  
                             ?___lwdiv 0013                               ?___lwmod 0013  
                   __end_of_Transmitir 1618                            ??i2_Lcd_Cmd 0001  
                       _mostrar_conteo 07E0                          ?i2_emergencia 0001  
                         ??_beep_corto 0013                           ??_beep_largo 0013  
                         Lcd_Char@data 0015                       ___lwdiv@quotient 0017  
                          ??i2___awdiv 0005                  ?_inicializar_hardware 0001  
                          ??i2___awmod 0005                            ??i2___lwdiv 0005  
                          ??i2___lwmod 0005                     LCD_CrearCaracter@i 001B  
                            _explosion 7ED5                           i2Lcd_Cmd@cmd 0003  
       lcd_animacion_bienvenida@offset 0080                               i2u312_40 1026  
                             i2u240_45 0C6C                               i2u241_40 0C7E  
                             i2u306_40 0DE2                               i2u250_45 0CC6  
                             i2u242_45 0C80                               i2u251_40 0CD8  
                             i2u243_45 0C88                               i2u244_40 0C9A  
                             i2u260_40 0BAC                               i2u316_40 123C  
                             i2u252_45 0CDA                               i2u500_47 1604  
                             i2u253_40 0CF0                               i2u245_45 0C9C  
                             i2u261_45 0BAE                               i2u501_47 0CB4  
                             i2u238_40 0C62                               i2u270_40 0C06  
                             i2u254_45 0CF2                               i2u246_45 0CA4  
                             i2u262_45 0BB6                               i2u502_47 0D12  
                             i2u255_40 0D0C                               i2u247_40 0CAE  
                             i2u263_40 0BC8                               i2u319_40 1352  
                             i2u239_45 0C64                               i2u271_45 0C08  
                             i2u272_40 0C1E                               i2u256_45 0D0E  
                             i2u248_45 0CB0                               i2u264_45 0BCA  
                             i2u249_40 0CC4                               i2u257_40 0B90  
                             i2u273_45 0C20                               i2u265_45 0BD2  
                             i2u274_40 0C3A                               i2u266_40 0BDC  
                             i2u258_45 0B92                               i2u275_45 0C3C  
                             i2u267_45 0BDE                               i2u259_45 0B9A  
                             i2u292_40 13D6                               i2u268_40 0BF2  
                             i2u380_40 0476                               i2u269_45 0BF4  
                             i2u390_40 0558                               i2u392_40 057C  
                             i2u376_40 040E                               i2u394_40 05A2  
                             i2u388_40 0536                               i2u497_47 03F8  
                             i2u498_47 0BE2                               i2u499_47 0C40  
                        ??i2_Lcd_Clear 0004                            ??_Lcd_Clear 0016  
                   __end_of_beep_corto 15C8                     __end_of_beep_largo 15B2  
               __end_of_mostrar_conteo 08DA                              main@tecla 0023  
             __end_ofi2_mostrar_conteo 09D4                      i2___awdiv@divisor 0003  
                       ??i2_emergencia 0009                      i2___awdiv@counter 0005  
                         ??_emergencia 001B             __end_of_mostrar_completado 0F0E  
                             _Lcd_Char 09D4                               i2_unidad 15DA  
                             _Lcd_Init 11C8                               i2color@i 0008  
         _lcd_animacion_bienvenida$240 0077                            _mapa_teclas 7EC4  
                   i2___awmod@dividend 0001                            _inactividad 0028  
                 Lcd_Set_Cursor@column 0016                               __Hrparam 0000  
                             __Lrparam 0000                     __end_of_emergencia 1338  
                      ?_mostrar_conteo 0001                    __end_ofi2_Lcd_Clear 160C  
                      ___lwdiv@divisor 0015                 ??_inicializar_hardware 0013  
                      ___lwdiv@counter 0019                               __ptext10 05D8  
                             __ptext11 0F80                               __ptext20 11C8  
                             __ptext12 13F4                               __ptext21 15EC  
                             __ptext13 0E20                               __ptext30 10BE  
                             __ptext22 0AA6                               __ptext14 12F6  
                             __ptext31 1338                               __ptext15 1456  
                             __ptext40 14D4                               __ptext32 121A  
                             __ptext24 1580                               __ptext16 09D4  
                             __ptext41 13BC                               __ptext33 137A  
                             __ptext25 08DA                               __ptext17 14FC  
                             __ptext42 14AA                               __ptext34 1480  
                             __ptext26 0FEE                               __ptext18 159C  
                             __ptext43 160C                               __ptext35 0B78  
                             __ptext27 0D9E                               __ptext19 15B2  
                             __ptext44 1544                               __ptext36 1520  
                             __ptext28 0F0E                               __ptext37 15FC  
                             __ptext29 15DA                               __ptext38 0C4A  
                             __ptext39 126C                   LCD_CrearCaracter@pos 001A  
                             _contador 002C                          _mostrar_valor 1564  
                             _objetivo 002E                          _lcd_backlight 0035  
                             isa$xinst 0000                 Transmitir_Numero@valor 0009  
                    _Transmitir_Cadena 14AA                               int$flags 0036  
                __end_of_mensaje_reset 1176                     ?_Transmitir_Cadena 0002  
                    _Transmitir_Numero 126C                           i2_Lcd_String 1480  
                    i2___awmod@divisor 0003                     ?_Transmitir_Numero 0001  
                    i2___awmod@counter 0005                    ??_Transmitir_Cadena 0004  
                  ??_Transmitir_Numero 0009                         ?_mostrar_valor 0001  
                             intlevel2 0000                         i2Lcd_Char@data 0003  
           ??_lcd_animacion_bienvenida 001C                       ___lwmod@dividend 0013  
                        _ConversionADC 1544                             Lcd_Cmd@cmd 0015  
            __end_of_Transmitir_Cadena 14D4                   __end_ofi2_emergencia 13BC  
                          i2_Lcd_Clear 15FC              __end_of_Transmitir_Numero 12B4  
                      ___lwmod@divisor 0015                        ___lwmod@counter 0017  
                           i2_Lcd_Char 0B78                      Lcd_Set_Cursor@pos 0018  
                    Lcd_Set_Cursor@row 0017                         ?_ConversionADC 0001  
