Microchip MPLAB XC8 Compiler V2.50

Linker command line:

-W-3 \
  --edf=C:\Program Files\Microchip\xc8\v2.50\pic\dat\20240725155939_en.msgs \
  -cn -h+dist/default/production\Laboratorio_5.X.production.sym \
  --cmf=dist/default/production\Laboratorio_5.X.production.cmf -z -Q18F4550 \
  -oC:\Users\USER\AppData\Local\Temp\xcAshf0.\driver_tmp_3.obj \
  -Mdist/default/production/Laboratorio_5.X.production.map \
  --md=C:\Users\USER\AppData\Local\Temp\xcAshf0.\driver_tmp_0.dat -E1 \
  -ver=XC8 Compiler -ACODE=00h-07FFFh -ACONST=00h-07FFFh \
  -ASMALLCONST=0800h-08FFhx120 -AMEDIUMCONST=0800h-07FFFh -ACOMRAM=01h-05Fh \
  -AABS1=00h-07FFh -ABIGRAM=01h-07FFh -ARAM=060h-0FFh,0100h-01FFhx7 \
  -ABANK0=060h-0FFh -ABANK1=0100h-01FFh -ABANK2=0200h-02FFh \
  -ABANK3=0300h-03FFh -ABANK4=0400h-04FFh -ABANK5=0500h-05FFh \
  -ABANK6=0600h-06FFh -ABANK7=0700h-07FFh -ASFR=0F60h-0FFFh \
  -ABIGSFR=0F60h-0FFFh -ACONFIG=0300000h-030000Dh -AIDLOC=0200000h-0200007h \
  -AEEDATA=0F00000h-0F000FFh -peeprom_data=EEDATA \
  -preset_vec=00h,intcode=8h,intcodelo,powerup,init -pramtop=0800h \
  -psmallconst=SMALLCONST -pmediumconst=MEDIUMCONST -pconst=CONST \
  -AFARRAM=00h-00h \
  -prdata=COMRAM,nvrram=COMRAM,nvbit=COMRAM,rbss=COMRAM,rbit=COMRAM \
  -pfarbss=FARRAM,fardata=FARRAM,nvFARRAM=FARRAM \
  -pintsave_regs=BIGRAM,bigbss=BIGRAM,bigdata=BIGRAM -pbss=RAM \
  -pidata=CODE,irdata=CODE,ibigdata=CODE,ifardata=CODE -prparam=COMRAM \
  C:\Users\USER\AppData\Local\Temp\xcAshf0.\driver_tmp_9.obj \
  dist/default/production\Laboratorio_5.X.production.obj 

Object code version is 3.11

Machine type is 18F4550



                Name                               Link     Load   Length Selector   Space Scale
C:\Users\USER\AppData\Local\Temp\xcAshf0.\driver_tmp_9.obj
                idloc                            200000   200000        8        0       5
                config                           300000   300000        E        0       4
                init                                  E        E        4        4       0
                reset_vec                             0        0        4        0       0
dist/default/production\Laboratorio_5.X.production.obj
                intcode                               8        8        6        4       0
                idloc                            200000   200000        8        0       5
                config                           300000   300000        E        0       4
                temp                                 36       36        1        1       1
                mediumconst                        7EAC     7EAC      154     3F56       0
                text44                             14B4     14B4       20        4       0
                text43                             157C     157C        C        4       0
                text42                             141A     141A       2A        4       0
                text41                             12C8     12C8       38        4       0
                text40                             1444     1444       28        4       0
                text39                             1178     1178       48        4       0
                text38                              C3A      C3A       D2        4       0
                text37                             156C     156C       10        4       0
                text36                             1490     1490       24        4       0
                text35                              B68      B68       D2        4       0
                text34                             13F0     13F0       2A        4       0
                text33                             1286     1286       42        4       0
                text32                             1368     1368       32        4       0
                text31                              D8E      D8E       82        4       0
                text30                              EFA      EFA       6E        4       0
                text29                             1126     1126       52        4       0
                text28                             1244     1244       42        4       0
                text27                              FCA      FCA       62        4       0
                text26                             154A     154A       12        4       0
                text25                              8CA      8CA       FA        4       0
                text24                             14F0     14F0       1C        4       0
                intcode_body                        330      330      298        4       0
                text22                              A96      A96       D2        4       0
                text21                             155C     155C       10        4       0
                text20                             10D4     10D4       52        4       0
                text19                             1522     1522       16        4       0
                text18                             150C     150C       16        4       0
                text17                             146C     146C       24        4       0
                text16                              9C4      9C4       D2        4       0
                text15                             13C6     13C6       2A        4       0
                text14                             1202     1202       42        4       0
                text13                              E10      E10       7C        4       0
                text12                             1300     1300       36        4       0
                text11                              E8C      E8C       6E        4       0
                text10                              5C8      5C8      208        4       0
                text9                              102C     102C       56        4       0
                text8                              1336     1336       32        4       0
                text7                               D0C      D0C       82        4       0
                text6                              1082     1082       52        4       0
                text5                              11C0     11C0       42        4       0
                text4                               F68      F68       62        4       0
                text3                              1538     1538       12        4       0
                text2                               7D0      7D0       FA        4       0
                text1                              14D4     14D4       1C        4       0
                text0                                12       12      31E        4       0
                cstackCOMRAM                          1        1       23        1       1
                cstackBANK0                          60       60       22       60       1
                dataCOMRAM                           35       35        1        1       1
                bssCOMRAM                            24       24       11        1       1
                cinit                              139A     139A       2C        4       0
                idataCOMRAM                        1588     1588        1        4       0

TOTAL           Name                               Link     Load   Length     Space
        CLASS   CODE           
                intcode                               8        8        6         0
                init                                  E        E        4         0
                reset_vec                             0        0        4         0
                text44                             14B4     14B4       20         0
                text43                             157C     157C        C         0
                text42                             141A     141A       2A         0
                text41                             12C8     12C8       38         0
                text40                             1444     1444       28         0
                text39                             1178     1178       48         0
                text38                              C3A      C3A       D2         0
                text37                             156C     156C       10         0
                text36                             1490     1490       24         0
                text35                              B68      B68       D2         0
                text34                             13F0     13F0       2A         0
                text33                             1286     1286       42         0
                text32                             1368     1368       32         0
                text31                              D8E      D8E       82         0
                text30                              EFA      EFA       6E         0
                text29                             1126     1126       52         0
                text28                             1244     1244       42         0
                text27                              FCA      FCA       62         0
                text26                             154A     154A       12         0
                text25                              8CA      8CA       FA         0
                text24                             14F0     14F0       1C         0
                intcode_body                        330      330      298         0
                text22                              A96      A96       D2         0
                text21                             155C     155C       10         0
                text20                             10D4     10D4       52         0
                text19                             1522     1522       16         0
                text18                             150C     150C       16         0
                text17                             146C     146C       24         0
                text16                              9C4      9C4       D2         0
                text15                             13C6     13C6       2A         0
                text14                             1202     1202       42         0
                text13                              E10      E10       7C         0
                text12                             1300     1300       36         0
                text11                              E8C      E8C       6E         0
                text10                              5C8      5C8      208         0
                text9                              102C     102C       56         0
                text8                              1336     1336       32         0
                text7                               D0C      D0C       82         0
                text6                              1082     1082       52         0
                text5                              11C0     11C0       42         0
                text4                               F68      F68       62         0
                text3                              1538     1538       12         0
                text2                               7D0      7D0       FA         0
                text1                              14D4     14D4       1C         0
                text0                                12       12      31E         0
                cinit                              139A     139A       2C         0
                idataCOMRAM                        1588     1588        1         0

        CLASS   CONST          

        CLASS   SMALLCONST     

        CLASS   MEDIUMCONST    
                mediumconst                        7EAC     7EAC      154         0

        CLASS   COMRAM         
                temp                                 36       36        1         1
                cstackCOMRAM                          1        1       23         1
                dataCOMRAM                           35       35        1         1
                bssCOMRAM                            24       24       11         1

        CLASS   ABS1           

        CLASS   BIGRAM         

        CLASS   RAM            

        CLASS   BANK0          
                cstackBANK0                          60       60       22         1

        CLASS   BANK1          

        CLASS   BANK2          

        CLASS   BANK3          

        CLASS   BANK4          

        CLASS   BANK5          

        CLASS   BANK6          

        CLASS   BANK7          

        CLASS   SFR            

        CLASS   BIGSFR         

        CLASS   CONFIG         
                config                           300000   300000        E         4

        CLASS   IDLOC          
                idloc                            200000   200000        8         5

        CLASS   EEDATA         

        CLASS   FARRAM         

        CLASS   HEAP           

        CLASS   STACK          



SEGMENTS        Name                           Load    Length   Top    Selector   Space  Class

                reset_vec                      000000  000004  000004         0       0  CODE    
                cstackCOMRAM                   000001  000036  000037         1       1  COMRAM  
                intcode                        000008  001581  001589         4       0  CODE    
                cstackBANK0                    000060  000022  000082        60       1  BANK0   
                mediumconst                    007EAC  000154  008000      3F56       0  MEDIUMCO


UNUSED ADDRESS RANGES

        Name                Unused          Largest block    Delta
        BANK0            000082-0000FF               7E
        BANK1            000100-0001FF              100
        BANK2            000200-0002FF              100
        BANK3            000300-0003FF              100
        BANK4            000400-0004FF              100
        BANK5            000500-0005FF              100
        BANK6            000600-0006FF              100
        BANK7            000700-0007FF              100
        BIGRAM           000037-00005F               29
                         000082-0007FF              77E
        BIGSFR           000F60-000FFF               A0
        CODE             000004-000007                4
                         001589-007EAB             6923
        COMRAM           000037-00005F               29
        CONST            000004-000007                4
                         001589-007EAB             6923
        EEDATA           F00000-F000FF              100
        MEDIUMCONST      001589-007EAB             6923
        RAM              000082-0007FF              100
        SFR              000F60-000FFF               A0
        SMALLCONST       001589-007EAB              100

                                  Symbol Table

?___awdiv                              cstackCOMRAM 000013
?___awmod                              cstackCOMRAM 000013
?___lwdiv                              cstackCOMRAM 000013
?___lwmod                              cstackCOMRAM 000013
?i2___awdiv                            cstackCOMRAM 000001
?i2___awmod                            cstackCOMRAM 000001
?i2___lwdiv                            cstackCOMRAM 000001
?i2___lwmod                            cstackCOMRAM 000001
ConversionADC@canal                    cstackCOMRAM 000001
LCD_CrearCaracter@i                    cstackCOMRAM 00001B
LCD_CrearCaracter@pattern              cstackCOMRAM 000016
LCD_CrearCaracter@pos                  cstackCOMRAM 00001A
Lcd_Char@data                          cstackCOMRAM 000015
Lcd_Cmd@cmd                            cstackCOMRAM 000015
Lcd_Set_Cursor@column                  cstackCOMRAM 000016
Lcd_Set_Cursor@pos                     cstackCOMRAM 000018
Lcd_Set_Cursor@row                     cstackCOMRAM 000017
Lcd_String@str                         cstackCOMRAM 000016
Transmitir@BufferT                     cstackCOMRAM 000001
Transmitir_Cadena@cadena               cstackCOMRAM 000002
Transmitir_Numero@valor                cstackCOMRAM 000009
_ADCON0                                (abs)        000FC2
_ADCON1                                (abs)        000FC1
_ADCON2                                (abs)        000FC0
_ADRESH                                (abs)        000FC4
_BAUDCON                               (abs)        000FB8
_BufferR                               bssCOMRAM    000032
_CREN                                  (abs)        007D5C
_ConversionADC                         text44       0014B4
_EMOTOR                                bssCOMRAM    000024
_GIE                                   (abs)        007F97
_GO                                    (abs)        007E11
_INT2IE                                (abs)        007F84
_INT2IF                                (abs)        007F81
_ISR                                   intcode      000008
_LATA                                  (abs)        000F89
_LATA1                                 (abs)        007C49
_LATA2                                 (abs)        007C4A
_LATA3                                 (abs)        007C4B
_LATA4                                 (abs)        007C4C
_LATA5                                 (abs)        007C4D
_LATB                                  (abs)        000F8A
_LATC2                                 (abs)        007C5A
_LATD                                  (abs)        000F8C
_LATD4                                 (abs)        007C64
_LATD5                                 (abs)        007C65
_LATD6                                 (abs)        007C66
_LATD7                                 (abs)        007C67
_LATE                                  (abs)        000F8D
_LCD_CrearCaracter                     text12       001300
_Lcd_Char                              text16       0009C4
_Lcd_Clear                             text21       00155C
_Lcd_Cmd                               text22       000A96
_Lcd_Init                              text20       0010D4
_Lcd_Set_Cursor                        text17       00146C
_Lcd_Set_Cursor$169                    cstackCOMRAM 000019
_Lcd_String                            text15       0013C6
_OERR                                  (abs)        007D59
_PEIE                                  (abs)        007F96
_POR                                   (abs)        007E81
_PORTB                                 (abs)        000F81
_RB4                                   (abs)        007C0C
_RB5                                   (abs)        007C0D
_RB6                                   (abs)        007C0E
_RB7                                   (abs)        007C0F
_RBIE                                  (abs)        007F93
_RBIF                                  (abs)        007F90
_RBPU                                  (abs)        007F8F
_RC0                                   (abs)        007C10
_RCIE                                  (abs)        007CED
_RCIF                                  (abs)        007CF5
_RCREG                                 (abs)        000FAE
_RCSTA                                 (abs)        000FAB
_SPBRG                                 (abs)        000FAF
_T0CON                                 (abs)        000FD5
_TMR0                                  (abs)        000FD6
_TMR0IE                                (abs)        007F95
_TMR0IF                                (abs)        007F92
_TMR0ON                                (abs)        007EAF
_TRISA                                 (abs)        000F92
_TRISA5                                (abs)        007C95
_TRISB                                 (abs)        000F93
_TRISC0                                (abs)        007CA0
_TRISC2                                (abs)        007CA2
_TRISD                                 (abs)        000F95
_TRISE                                 (abs)        000F96
_TXIE                                  (abs)        007CEC
_TXIF                                  (abs)        007CF4
_TXREG                                 (abs)        000FAD
_TXSTA                                 (abs)        000FAC
_Tecla                                 bssCOMRAM    000034
_Transmitir                            text43       00157C
_Transmitir_Cadena                     text42       00141A
_Transmitir_Numero                     text39       001178
_VADC                                  bssCOMRAM    000026
__HRAM                                 (abs)        000000
__H__absolute__                        __absolute__ 000000
__Habs1                                abs1         000000
__Hbank0                               bank0        000000
__Hbank1                               bank1        000000
__Hbank2                               bank2        000000
__Hbank3                               bank3        000000
__Hbank4                               bank4        000000
__Hbank5                               bank5        000000
__Hbank6                               bank6        000000
__Hbank7                               bank7        000000
__Hbigbss                              bigbss       000000
__Hbigdata                             bigdata      000000
__Hbigram                              bigram       000000
__Hbigsfr                              bigsfr       000000
__Hbss                                 bss          000000
__HbssCOMRAM                           bssCOMRAM    000000
__Hcinit                               cinit        000000
__Hclrtext                             clrtext      000000
__Hcomram                              comram       000000
__Hconfig                              config       30000E
__Hconst                               const        000000
__HcstackBANK0                         cstackBANK0  000000
__HcstackCOMRAM                        cstackCOMRAM 000000
__Hdata                                data         000000
__HdataCOMRAM                          dataCOMRAM   000000
__Heeprom_data                         eeprom_data  000000
__Hfarbss                              farbss       000000
__Hfardata                             fardata      000000
__Hheap                                heap         000000
__Hibigdata                            ibigdata     000000
__Hidata                               idata        000000
__HidataCOMRAM                         idataCOMRAM  000000
__Hidloc                               idloc        200008
__Hifardata                            ifardata     000000
__Hinit                                init         000012
__Hintcode                             intcode      00000E
__Hintcode_body                        intcode_body 000000
__Hintcodelo                           intcodelo    00000E
__Hintentry                            intentry     000000
__Hintret                              intret       000000
__Hintsave_regs                        intsave_regs 000000
__Hirdata                              irdata       000000
__Hmediumconst                         mediumconst  008000
__HnvFARRAM                            nvFARRAM     000000
__Hnvbit                               nvbit        000000
__Hnvrram                              nvrram       000000
__Hparam                               rparam       000000
__Hpowerup                             powerup      00000E
__Hram                                 ram          000000
__Hramtop                              ramtop       000800
__Hrbit                                rbit         000000
__Hrbss                                rbss         000000
__Hrdata                               rdata        000000
__Hreset_vec                           reset_vec    000004
__Hrparam                              rparam       000000
__Hsfr                                 sfr          000000
__Hsivt_hi                             sivt_hi      000000
__Hsivt_lo                             sivt_lo      000000
__Hsmallconst                          smallconst   000000
__Hspace_0                             (abs)        008000
__Hspace_1                             (abs)        000082
__Hspace_2                             (abs)        000000
__Hspace_4                             (abs)        60000E
__Hstack                               stack        000000
__Hstruct                              struct       000000
__Htemp                                temp         000037
__Htext                                text         000000
__Htext0                               text0        000000
__Htext1                               text1        000000
__Htext10                              text10       000000
__Htext11                              text11       000000
__Htext12                              text12       000000
__Htext13                              text13       000000
__Htext14                              text14       000000
__Htext15                              text15       000000
__Htext16                              text16       000000
__Htext17                              text17       000000
__Htext18                              text18       000000
__Htext19                              text19       000000
__Htext2                               text2        000000
__Htext20                              text20       000000
__Htext21                              text21       000000
__Htext22                              text22       000000
__Htext24                              text24       000000
__Htext25                              text25       000000
__Htext26                              text26       000000
__Htext27                              text27       000000
__Htext28                              text28       000000
__Htext29                              text29       000000
__Htext3                               text3        000000
__Htext30                              text30       000000
__Htext31                              text31       000000
__Htext32                              text32       000000
__Htext33                              text33       000000
__Htext34                              text34       000000
__Htext35                              text35       000000
__Htext36                              text36       000000
__Htext37                              text37       000000
__Htext38                              text38       000000
__Htext39                              text39       000000
__Htext4                               text4        000000
__Htext40                              text40       000000
__Htext41                              text41       000000
__Htext42                              text42       000000
__Htext43                              text43       000000
__Htext44                              text44       000000
__Htext5                               text5        000000
__Htext6                               text6        000000
__Htext7                               text7        000000
__Htext8                               text8        000000
__Htext9                               text9        000000
__LRAM                                 (abs)        000001
__L__absolute__                        __absolute__ 000000
__Labs1                                abs1         000000
__Lbank0                               bank0        000000
__Lbank1                               bank1        000000
__Lbank2                               bank2        000000
__Lbank3                               bank3        000000
__Lbank4                               bank4        000000
__Lbank5                               bank5        000000
__Lbank6                               bank6        000000
__Lbank7                               bank7        000000
__Lbigbss                              bigbss       000000
__Lbigdata                             bigdata      000000
__Lbigram                              bigram       000000
__Lbigsfr                              bigsfr       000000
__Lbss                                 bss          000000
__LbssCOMRAM                           bssCOMRAM    000000
__Lcinit                               cinit        000000
__Lclrtext                             clrtext      000000
__Lcomram                              comram       000000
__Lconfig                              config       000000
__Lconst                               const        000000
__LcstackBANK0                         cstackBANK0  000000
__LcstackCOMRAM                        cstackCOMRAM 000000
__Ldata                                data         000000
__LdataCOMRAM                          dataCOMRAM   000000
__Leeprom_data                         eeprom_data  000000
__Lfarbss                              farbss       000000
__Lfardata                             fardata      000000
__Lheap                                heap         000000
__Libigdata                            ibigdata     000000
__Lidata                               idata        000000
__LidataCOMRAM                         idataCOMRAM  000000
__Lidloc                               idloc        000000
__Lifardata                            ifardata     000000
__Linit                                init         00000E
__Lintcode                             intcode      000008
__Lintcode_body                        intcode_body 000000
__Lintcodelo                           intcodelo    00000E
__Lintentry                            intentry     000000
__Lintret                              intret       000000
__Lintsave_regs                        intsave_regs 000000
__Lirdata                              irdata       000000
__Lmediumconst                         mediumconst  007EAC
__LnvFARRAM                            nvFARRAM     000000
__Lnvbit                               nvbit        000000
__Lnvrram                              nvrram       000000
__Lparam                               rparam       000000
__Lpowerup                             powerup      00000E
__Lram                                 ram          000000
__Lramtop                              ramtop       000800
__Lrbit                                rbit         000000
__Lrbss                                rbss         000000
__Lrdata                               rdata        000000
__Lreset_vec                           reset_vec    000000
__Lrparam                              rparam       000000
__Lsfr                                 sfr          000000
__Lsivt_hi                             sivt_hi      000000
__Lsivt_lo                             sivt_lo      000000
__Lsmallconst                          smallconst   000000
__Lspace_0                             (abs)        000000
__Lspace_1                             (abs)        000000
__Lspace_2                             (abs)        000000
__Lspace_4                             (abs)        000000
__Lstack                               stack        000000
__Lstruct                              struct       000000
__Ltemp                                temp         000036
__Ltext                                text         000000
__Ltext0                               text0        000000
__Ltext1                               text1        000000
__Ltext10                              text10       000000
__Ltext11                              text11       000000
__Ltext12                              text12       000000
__Ltext13                              text13       000000
__Ltext14                              text14       000000
__Ltext15                              text15       000000
__Ltext16                              text16       000000
__Ltext17                              text17       000000
__Ltext18                              text18       000000
__Ltext19                              text19       000000
__Ltext2                               text2        000000
__Ltext20                              text20       000000
__Ltext21                              text21       000000
__Ltext22                              text22       000000
__Ltext24                              text24       000000
__Ltext25                              text25       000000
__Ltext26                              text26       000000
__Ltext27                              text27       000000
__Ltext28                              text28       000000
__Ltext29                              text29       000000
__Ltext3                               text3        000000
__Ltext30                              text30       000000
__Ltext31                              text31       000000
__Ltext32                              text32       000000
__Ltext33                              text33       000000
__Ltext34                              text34       000000
__Ltext35                              text35       000000
__Ltext36                              text36       000000
__Ltext37                              text37       000000
__Ltext38                              text38       000000
__Ltext39                              text39       000000
__Ltext4                               text4        000000
__Ltext40                              text40       000000
__Ltext41                              text41       000000
__Ltext42                              text42       000000
__Ltext43                              text43       000000
__Ltext44                              text44       000000
__Ltext5                               text5        000000
__Ltext6                               text6        000000
__Ltext7                               text7        000000
__Ltext8                               text8        000000
__Ltext9                               text9        000000
__S0                                   (abs)        008000
__S1                                   (abs)        000082
__S4                                   (abs)        000000
__S5                                   (abs)        000000
___awdiv                               text7        000D0C
___awdiv@counter                       cstackCOMRAM 000017
___awdiv@dividend                      cstackCOMRAM 000013
___awdiv@divisor                       cstackCOMRAM 000015
___awdiv@quotient                      cstackCOMRAM 000019
___awdiv@sign                          cstackCOMRAM 000018
___awmod                               text11       000E8C
___awmod@counter                       cstackCOMRAM 000017
___awmod@dividend                      cstackCOMRAM 000013
___awmod@divisor                       cstackCOMRAM 000015
___awmod@sign                          cstackCOMRAM 000018
___heap_hi                             (abs)        000000
___heap_lo                             (abs)        000000
___inthi_sp                            stack        000000
___inthi_stack_hi                      stack        000000
___inthi_stack_lo                      stack        000000
___intlo_sp                            stack        000000
___intlo_stack_hi                      stack        000000
___intlo_stack_lo                      stack        000000
___lbdiv                               text41       0012C8
___lbdiv@counter                       cstackCOMRAM 000003
___lbdiv@dividend                      cstackCOMRAM 000002
___lbdiv@divisor                       cstackCOMRAM 000001
___lbdiv@quotient                      cstackCOMRAM 000004
___lbmod                               text40       001444
___lbmod@counter                       cstackCOMRAM 000007
___lbmod@dividend                      cstackCOMRAM 000006
___lbmod@divisor                       cstackCOMRAM 000005
___lbmod@rem                           cstackCOMRAM 000008
___lwdiv                               text6        001082
___lwdiv@counter                       cstackCOMRAM 000019
___lwdiv@dividend                      cstackCOMRAM 000013
___lwdiv@divisor                       cstackCOMRAM 000015
___lwdiv@quotient                      cstackCOMRAM 000017
___lwmod                               text5        0011C0
___lwmod@counter                       cstackCOMRAM 000017
___lwmod@dividend                      cstackCOMRAM 000013
___lwmod@divisor                       cstackCOMRAM 000015
___param_bank                          (abs)        000000
___rparam_used                         (abs)        000001
___sp                                  stack        000000
___stack_hi                            stack        000000
___stack_lo                            stack        000000
__accesstop                            (abs)        000060
__activetblptr                         (abs)        000002
__end_of_ConversionADC                 text44       0014D4
__end_of_ISR                           intcode_body 0005C8
__end_of_LCD_CrearCaracter             text12       001336
__end_of_Lcd_Char                      text16       000A96
__end_of_Lcd_Clear                     text21       00156C
__end_of_Lcd_Cmd                       text22       000B68
__end_of_Lcd_Init                      text20       001126
__end_of_Lcd_Set_Cursor                text17       001490
__end_of_Lcd_String                    text15       0013F0
__end_of_Transmitir                    text43       001588
__end_of_Transmitir_Cadena             text42       001444
__end_of_Transmitir_Numero             text39       0011C0
__end_of___awdiv                       text7        000D8E
__end_of___awmod                       text11       000EFA
__end_of___lbdiv                       text41       001300
__end_of___lbmod                       text40       00146C
__end_of___lwdiv                       text6        0010D4
__end_of___lwmod                       text5        001202
__end_of__initialization               cinit        0013B8
__end_of_beep_corto                    text19       001538
__end_of_beep_largo                    text18       001522
__end_of_color                         text4        000FCA
__end_of_emergencia                    text14       001244
__end_of_explosion                     mediumconst  007EDD
__end_of_inicializar_hardware          text13       000E8C
__end_of_lcd_animacion_bienvenida      text10       0007D0
__end_of_main                          text0        000330
__end_of_mapa_teclas                   mediumconst  007ED5
__end_of_mensaje_reset                 text9        001082
__end_of_mostrar_completado            text8        001368
__end_of_mostrar_conteo                text2        0008CA
__end_of_mostrar_valor                 text1        0014F0
__end_of_rpg                           mediumconst  007EE5
__end_of_runner0                       mediumconst  007EFD
__end_of_runner1                       mediumconst  007EF5
__end_of_runner2                       mediumconst  007EED
__end_of_unidad                        text3        00154A
__end_ofi2_Lcd_Char                    text35       000C3A
__end_ofi2_Lcd_Clear                   text37       00157C
__end_ofi2_Lcd_Cmd                     text38       000D0C
__end_ofi2_Lcd_Set_Cursor              text36       0014B4
__end_ofi2_Lcd_String                  text34       00141A
__end_ofi2___awdiv                     text31       000E10
__end_ofi2___awmod                     text30       000F68
__end_ofi2___lwdiv                     text29       001178
__end_ofi2___lwmod                     text28       001286
__end_ofi2_color                       text27       00102C
__end_ofi2_emergencia                  text33       0012C8
__end_ofi2_mostrar_completado          text32       00139A
__end_ofi2_mostrar_conteo              text25       0009C4
__end_ofi2_mostrar_valor               text24       00150C
__end_ofi2_unidad                      text26       00155C
__end_oflcd_animacion_bienvenida@F3164 mediumconst  007EC4
__initialization                       cinit        00139A
__mediumconst                          mediumconst  007EAC
__pbssCOMRAM                           bssCOMRAM    000024
__pcinit                               cinit        00139A
__pcstackBANK0                         cstackBANK0  000060
__pcstackCOMRAM                        cstackCOMRAM 000001
__pdataCOMRAM                          dataCOMRAM   000035
__pidataCOMRAM                         idataCOMRAM  001588
__pintcode                             intcode      000008
__pintcode_body                        intcode_body 000330
__pmediumconst                         mediumconst  007EAC
__ptext0                               text0        000012
__ptext1                               text1        0014D4
__ptext10                              text10       0005C8
__ptext11                              text11       000E8C
__ptext12                              text12       001300
__ptext13                              text13       000E10
__ptext14                              text14       001202
__ptext15                              text15       0013C6
__ptext16                              text16       0009C4
__ptext17                              text17       00146C
__ptext18                              text18       00150C
__ptext19                              text19       001522
__ptext2                               text2        0007D0
__ptext20                              text20       0010D4
__ptext21                              text21       00155C
__ptext22                              text22       000A96
__ptext24                              text24       0014F0
__ptext25                              text25       0008CA
__ptext26                              text26       00154A
__ptext27                              text27       000FCA
__ptext28                              text28       001244
__ptext29                              text29       001126
__ptext3                               text3        001538
__ptext30                              text30       000EFA
__ptext31                              text31       000D8E
__ptext32                              text32       001368
__ptext33                              text33       001286
__ptext34                              text34       0013F0
__ptext35                              text35       000B68
__ptext36                              text36       001490
__ptext37                              text37       00156C
__ptext38                              text38       000C3A
__ptext39                              text39       001178
__ptext4                               text4        000F68
__ptext40                              text40       001444
__ptext41                              text41       0012C8
__ptext42                              text42       00141A
__ptext43                              text43       00157C
__ptext44                              text44       0014B4
__ptext5                               text5        0011C0
__ptext6                               text6        001082
__ptext7                               text7        000D0C
__ptext8                               text8        001336
__ptext9                               text9        00102C
__ramtop                               ramtop       000800
__smallconst                           smallconst   000000
_beep_corto                            text19       001522
_beep_largo                            text18       00150C
_btnRC0_ant                            bssCOMRAM    000033
_color                                 text4        000F68
_contador                              bssCOMRAM    00002C
_emergencia                            text14       001202
_estado                                bssCOMRAM    000030
_explosion                             mediumconst  007ED5
_inactividad                           bssCOMRAM    000028
_inicializar_hardware                  text13       000E10
_input                                 bssCOMRAM    00002A
_lcd_animacion_bienvenida              text10       0005C8
_lcd_animacion_bienvenida$240          cstackBANK0  000077
_lcd_backlight                         dataCOMRAM   000035
_main                                  text0        000012
_mapa_teclas                           mediumconst  007EC4
_mensaje_reset                         text9        00102C
_mostrar_completado                    text8        001336
_mostrar_conteo                        text2        0007D0
_mostrar_valor                         text1        0014D4
_objetivo                              bssCOMRAM    00002E
_rpg                                   mediumconst  007EDD
_runner0                               mediumconst  007EF5
_runner1                               mediumconst  007EED
_runner2                               mediumconst  007EE5
_unidad                                text3        001538
btemp                                  temp         000036
color@i                                cstackCOMRAM 00001A
end_of_initialization                  cinit        0013B8
i2Lcd_Char@data                        cstackCOMRAM 000003
i2Lcd_Cmd@cmd                          cstackCOMRAM 000003
i2Lcd_Set_Cursor@column                cstackCOMRAM 000004
i2Lcd_Set_Cursor@pos                   cstackCOMRAM 000008
i2Lcd_Set_Cursor@row                   cstackCOMRAM 000005
i2Lcd_String@str                       cstackCOMRAM 000004
i2_Lcd_Char                            text35       000B68
i2_Lcd_Clear                           text37       00156C
i2_Lcd_Cmd                             text38       000C3A
i2_Lcd_Set_Cursor                      text36       001490
i2_Lcd_Set_Cursor$169                  cstackCOMRAM 000006
i2_Lcd_String                          text34       0013F0
i2___awdiv                             text31       000D8E
i2___awdiv@counter                     cstackCOMRAM 000005
i2___awdiv@dividend                    cstackCOMRAM 000001
i2___awdiv@divisor                     cstackCOMRAM 000003
i2___awdiv@quotient                    cstackCOMRAM 000007
i2___awdiv@sign                        cstackCOMRAM 000006
i2___awmod                             text30       000EFA
i2___awmod@counter                     cstackCOMRAM 000005
i2___awmod@dividend                    cstackCOMRAM 000001
i2___awmod@divisor                     cstackCOMRAM 000003
i2___awmod@sign                        cstackCOMRAM 000006
i2___lwdiv                             text29       001126
i2___lwdiv@counter                     cstackCOMRAM 000007
i2___lwdiv@dividend                    cstackCOMRAM 000001
i2___lwdiv@divisor                     cstackCOMRAM 000003
i2___lwdiv@quotient                    cstackCOMRAM 000005
i2___lwmod                             text28       001244
i2___lwmod@counter                     cstackCOMRAM 000005
i2___lwmod@dividend                    cstackCOMRAM 000001
i2___lwmod@divisor                     cstackCOMRAM 000003
i2_color                               text27       000FCA
i2_emergencia                          text33       001286
i2_mostrar_completado                  text32       001368
i2_mostrar_conteo                      text25       0008CA
i2_mostrar_valor                       text24       0014F0
i2_unidad                              text26       00154A
i2color@i                              cstackCOMRAM 000008
i2mostrar_conteo@faltan                cstackCOMRAM 00000C
i2unidad@i                             cstackCOMRAM 000006
int$flags                              temp         000036
int_func                               intcode_body 000330
intlevel0                              text         000000
intlevel1                              text         000000
intlevel2                              text         000000
intlevel3                              text         000000
isa$std                                (abs)        000001
isa$xinst                              (abs)        000000
lcd_animacion_bienvenida@F3164         mediumconst  007EAD
lcd_animacion_bienvenida@c             cstackBANK0  00007D
lcd_animacion_bienvenida@i             cstackBANK0  00007B
lcd_animacion_bienvenida@j             cstackBANK0  00007E
lcd_animacion_bienvenida@mensaje       cstackBANK0  000060
lcd_animacion_bienvenida@offset        cstackBANK0  000080
lcd_animacion_bienvenida@pasos         cstackBANK0  000079
main@btnRC0                            cstackCOMRAM 000022
main@tecla                             cstackCOMRAM 000023
mostrar_conteo@faltan                  cstackCOMRAM 00001E
stackhi                                (abs)        000000
stacklo                                (abs)        000000
start                                  init         00000E
start_initialization                   cinit        00139A
ttemp5                                 temp         000037
ttemp6                                 temp         00003A
ttemp7                                 temp         00003E
unidad@i                               cstackCOMRAM 000018
wtemp8                                 temp         000037


MODULE INFORMATION

Module		Function		Class		Link	Load	Size
C:\Program Files\Microchip\xc8\v2.50\pic\sources\c90\common\lbdiv.c
		___lbdiv       		CODE           	12C8	0000	56

C:\Program Files\Microchip\xc8\v2.50\pic\sources\c90\common\lbdiv.c estimated size: 56

Laboratorio_5.c
		_beep_corto    		CODE           	1522	0000	22
		_mostrar_valor 		CODE           	14D4	0000	28
		_ISR           		CODE           	0008	0000	670
		_mostrar_conteo		CODE           	07D0	0000	250
		_main          		CODE           	0012	0000	798
		_color         		CODE           	0F68	0000	98
		_inicializar_hardware		CODE           	0E10	0000	124
		_beep_largo    		CODE           	150C	0000	22
		_mostrar_completado		CODE           	1336	0000	50
		_Transmitir    		CODE           	157C	0000	12
		_Transmitir_Cadena		CODE           	141A	0000	42
		_lcd_animacion_bienvenida		CODE           	05C8	0000	520
		_emergencia    		CODE           	1202	0000	66
		_mensaje_reset 		CODE           	102C	0000	86
		_ConversionADC 		CODE           	14B4	0000	32
		_unidad        		CODE           	1538	0000	18
		_Transmitir_Numero		CODE           	1178	0000	72

Laboratorio_5.c estimated size: 2910

C:\Program Files\Microchip\xc8\v2.50\pic\sources\c90\common\lwmod.c
		___lwmod       		CODE           	11C0	0000	66

C:\Program Files\Microchip\xc8\v2.50\pic\sources\c90\common\lwmod.c estimated size: 66

C:\Program Files\Microchip\xc8\v2.50\pic\sources\c90\common\awmod.c
		___awmod       		CODE           	0E8C	0000	110

C:\Program Files\Microchip\xc8\v2.50\pic\sources\c90\common\awmod.c estimated size: 110

C:\Program Files\Microchip\xc8\v2.50\pic\sources\c90\common\lwdiv.c
		___lwdiv       		CODE           	1082	0000	82

C:\Program Files\Microchip\xc8\v2.50\pic\sources\c90\common\lwdiv.c estimated size: 82

shared
		_rpg           		MEDIUMCONST    	7EDD	0000	8
		i2_mostrar_conteo		CODE           	08CA	0000	250
		_mapa_teclas   		MEDIUMCONST    	7EC4	0000	17
		i2___lwdiv     		CODE           	1126	0000	82
		_runner1       		MEDIUMCONST    	7EED	0000	8
		i2_mostrar_completado		CODE           	1368	0000	50
		i2___awdiv     		CODE           	0D8E	0000	130
		i2_unidad      		CODE           	154A	0000	18
		i2_Lcd_Cmd     		CODE           	0C3A	0000	210
		i2___lwmod     		CODE           	1244	0000	66
		i2_Lcd_Char    		CODE           	0B68	0000	210
		i2_Lcd_Clear   		CODE           	156C	0000	16
		__initialization		CODE           	139A	0000	30
		i2_Lcd_String  		CODE           	13F0	0000	42
		i2___awmod     		CODE           	0EFA	0000	110
		_runner0       		MEDIUMCONST    	7EF5	0000	8
		i2_mostrar_valor		CODE           	14F0	0000	28
		i2_Lcd_Set_Cursor		CODE           	1490	0000	36
		lcd_animacion_bienvenida@F3164		MEDIUMCONST    	7EAD	0000	23
		i2_color       		CODE           	0FCA	0000	98
		_explosion     		MEDIUMCONST    	7ED5	0000	8
		i2_emergencia  		CODE           	1286	0000	66
		_runner2       		MEDIUMCONST    	7EE5	0000	8

shared estimated size: 1522

C:\Program Files\Microchip\xc8\v2.50\pic\sources\c90\common\lbmod.c
		___lbmod       		CODE           	1444	0000	40

C:\Program Files\Microchip\xc8\v2.50\pic\sources\c90\common\lbmod.c estimated size: 40

lcd.c
		_Lcd_String    		CODE           	13C6	0000	42
		_Lcd_Init      		CODE           	10D4	0000	82
		_Lcd_Cmd       		CODE           	0A96	0000	210
		_Lcd_Char      		CODE           	09C4	0000	210
		_Lcd_Set_Cursor		CODE           	146C	0000	36
		_Lcd_Clear     		CODE           	155C	0000	16
		_LCD_CrearCaracter		CODE           	1300	0000	54

lcd.c estimated size: 650

C:\Program Files\Microchip\xc8\v2.50\pic\sources\c90\common\awdiv.c
		___awdiv       		CODE           	0D0C	0000	130

C:\Program Files\Microchip\xc8\v2.50\pic\sources\c90\common\awdiv.c estimated size: 130

