

Microchip MPLAB XC8 Assembler V2.50 build 20240725155939 
                                                                                               Thu Jul 03 13:05:28 2025

Microchip MPLAB XC8 C Compiler v2.50 (Free license) build 20240725155939 Og9 
     1                           	processor	18F4550
     2                           	fnconf	rparam,??,?,0
     3                           	pagewidth 120
     4                           	opt	flic
     5                           	psect	idataCOMRAM,global,class=CODE,space=0,delta=1,noexec
     6                           	psect	smallconst,global,reloc=2,class=SMALLCONST,space=0,delta=1,noexec
     7                           	psect	cinit,global,reloc=2,class=CODE,space=0,delta=1
     8                           	psect	bssCOMRAM,global,class=COMRAM,space=1,delta=1,lowdata,noexec
     9                           	psect	dataCOMRAM,global,class=COMRAM,space=1,delta=1,lowdata,noexec
    10                           	psect	cstackBANK0,global,class=BANK0,space=1,delta=1,lowdata,noexec
    11                           	psect	cstackCOMRAM,global,class=COMRAM,space=1,delta=1,lowdata,noexec
    12                           	psect	text0,global,reloc=2,class=CODE,space=0,delta=1
    13                           	psect	text1,global,reloc=2,class=CODE,space=0,delta=1
    14                           	psect	text2,global,reloc=2,class=CODE,space=0,delta=1
    15                           	psect	text3,global,reloc=2,class=CODE,space=0,delta=1
    16                           	psect	text4,global,reloc=2,class=CODE,space=0,delta=1
    17                           	psect	text5,global,reloc=2,class=CODE,space=0,delta=1,group=1
    18                           	psect	text6,global,reloc=2,class=CODE,space=0,delta=1,group=1
    19                           	psect	text7,global,reloc=2,class=CODE,space=0,delta=1,group=1
    20                           	psect	text8,global,reloc=2,class=CODE,space=0,delta=1
    21                           	psect	text9,global,reloc=2,class=CODE,space=0,delta=1
    22                           	psect	text10,global,reloc=2,class=CODE,space=0,delta=1,group=1
    23                           	psect	text11,global,reloc=2,class=CODE,space=0,delta=1
    24                           	psect	text12,global,reloc=2,class=CODE,space=0,delta=1
    25                           	psect	text13,global,reloc=2,class=CODE,space=0,delta=1
    26                           	psect	text14,global,reloc=2,class=CODE,space=0,delta=1
    27                           	psect	text15,global,reloc=2,class=CODE,space=0,delta=1
    28                           	psect	text16,global,reloc=2,class=CODE,space=0,delta=1
    29                           	psect	text17,global,reloc=2,class=CODE,space=0,delta=1
    30                           	psect	text18,global,reloc=2,class=CODE,space=0,delta=1
    31                           	psect	text19,global,reloc=2,class=CODE,space=0,delta=1
    32                           	psect	intcode,global,reloc=2,class=CODE,space=0,delta=1
    33                           	psect	intcode_body,global,reloc=2,class=CODE,space=0,delta=1
    34                           	psect	text21,global,reloc=2,class=CODE,space=0,delta=1
    35                           	psect	text22,global,reloc=2,class=CODE,space=0,delta=1
    36                           	psect	text23,global,reloc=2,class=CODE,space=0,delta=1
    37                           	psect	text24,global,reloc=2,class=CODE,space=0,delta=1
    38                           	psect	text25,global,reloc=2,class=CODE,space=0,delta=1
    39                           	psect	text26,global,reloc=2,class=CODE,space=0,delta=1
    40                           	psect	text27,global,reloc=2,class=CODE,space=0,delta=1
    41                           	psect	text28,global,reloc=2,class=CODE,space=0,delta=1
    42                           	psect	text29,global,reloc=2,class=CODE,space=0,delta=1
    43                           	psect	text30,global,reloc=2,class=CODE,space=0,delta=1
    44                           	psect	text31,global,reloc=2,class=CODE,space=0,delta=1
    45                           	psect	text32,global,reloc=2,class=CODE,space=0,delta=1
    46                           	psect	text33,global,reloc=2,class=CODE,space=0,delta=1
    47                           	psect	text34,global,reloc=2,class=CODE,space=0,delta=1
    48                           	psect	intsave_regs,global,class=BIGRAM,space=1,delta=1,noexec
    49                           	psect	rparam,global,class=COMRAM,space=1,delta=1,noexec
    50                           	psect	temp,global,ovrld,common,class=COMRAM,space=1,delta=1,lowdata
    51                           	psect	idloc,global,abs,ovrld,class=IDLOC,space=5,delta=1,noexec
    52                           	psect	config,global,abs,ovrld,class=CONFIG,space=4,delta=1,noexec
    53   000000                     
    54                           ; Generated 25/07/2024 GMT
    55                           ; 
    56                           ; Copyright Â© 2024, Microchip Technology Inc. and its subsidiaries ("Microchip")
    57                           ; All rights reserved.
    58                           ; 
    59                           ; This software is developed by Microchip Technology Inc. and its subsidiaries ("Microch
      +                          ip").
    60                           ; 
    61                           ; Redistribution and use in source and binary forms, with or without modification, are
    62                           ; permitted provided that the following conditions are met:
    63                           ; 
    64                           ;     1. Redistributions of source code must retain the above copyright notice, this lis
      +                          t of
    65                           ;        conditions and the following disclaimer.
    66                           ; 
    67                           ;     2. Redistributions in binary form must reproduce the above copyright notice, this 
      +                          list
    68                           ;        of conditions and the following disclaimer in the documentation and/or other
    69                           ;        materials provided with the distribution. Publication is not required when
    70                           ;        this file is used in an embedded application.
    71                           ; 
    72                           ;     3. Microchip's name may not be used to endorse or promote products derived from th
      +                          is
    73                           ;        software without specific prior written permission.
    74                           ; 
    75                           ; THIS SOFTWARE IS PROVIDED BY MICROCHIP "AS IS" AND ANY EXPRESS OR IMPLIED WARRANTIES,
    76                           ; INCLUDING, BUT NOT LIMITED TO, THE IMPLIED WARRANTIES OF MERCHANTABILITY AND FITNESS F
      +                          OR
    77                           ; PURPOSE ARE DISCLAIMED.  IN NO EVENT SHALL MICROCHIP BE LIABLE FOR ANY DIRECT, INDIREC
      +                          T,
    78                           ; INCIDENTAL, SPECIAL, EXEMPLARY, OR CONSEQUENTIAL DAMAGES (INCLUDING BUT NOT LIMITED TO
    79                           ; PROCUREMENT OF SUBSTITUTE GOODS OR SERVICES; LOSS OF USE, DATA OR PROFITS; OR BUSINESS
    80                           ; INTERRUPTION) HOWSOEVER CAUSED AND ON ANY THEORY OF LIABILITY, WHETHER IN CONTRACT, ST
      +                          RICT
    81                           ; LIABILITY, OR TORT (INCLUDING NEGLIGENCE OR OTHERWISE) ARISING IN ANY WAY OUT OF THE U
      +                          SE OF
    82                           ; THIS SOFTWARE, EVEN IF ADVISED OF THE POSSIBILITY OF SUCH DAMAGE.
    83                           ; 
    84                           ; 
    85                           ; Code-generator required, PIC18F4550 Definitions
    86                           ; 
    87                           ; SFR Addresses
    88   000FE0                     bsr             equ	4064
    89   000FE9                     fsr0            equ	4073
    90   000FEA                     fsr0h           equ	4074
    91   000FE9                     fsr0l           equ	4073
    92   000FE1                     fsr1            equ	4065
    93   000FE2                     fsr1h           equ	4066
    94   000FE1                     fsr1l           equ	4065
    95   000FD9                     fsr2            equ	4057
    96   000FDA                     fsr2h           equ	4058
    97   000FD9                     fsr2l           equ	4057
    98   000FEF                     indf0           equ	4079
    99   000FE7                     indf1           equ	4071
   100   000FDF                     indf2           equ	4063
   101   000FF2                     intcon          equ	4082
   102   000000                     nvmcon          equ	0
   103   000FF9                     pcl             equ	4089
   104   000FFA                     pclath          equ	4090
   105   000FFB                     pclatu          equ	4091
   106   000FEB                     plusw0          equ	4075
   107   000FE3                     plusw1          equ	4067
   108   000FDB                     plusw2          equ	4059
   109   000FED                     postdec0        equ	4077
   110   000FE5                     postdec1        equ	4069
   111   000FDD                     postdec2        equ	4061
   112   000FEE                     postinc0        equ	4078
   113   000FE6                     postinc1        equ	4070
   114   000FDE                     postinc2        equ	4062
   115   000FEC                     preinc0         equ	4076
   116   000FE4                     preinc1         equ	4068
   117   000FDC                     preinc2         equ	4060
   118   000FF3                     prod            equ	4083
   119   000FF4                     prodh           equ	4084
   120   000FF3                     prodl           equ	4083
   121   000FD8                     status          equ	4056
   122   000FF5                     tablat          equ	4085
   123   000FF6                     tblptr          equ	4086
   124   000FF7                     tblptrh         equ	4087
   125   000FF6                     tblptrl         equ	4086
   126   000FF8                     tblptru         equ	4088
   127   000FFD                     tosl            equ	4093
   128   000FE8                     wreg            equ	4072
   129   000F62                     SPPDATA         equ	3938	;# 
   130   000F63                     SPPCFG          equ	3939	;# 
   131   000F64                     SPPEPS          equ	3940	;# 
   132   000F65                     SPPCON          equ	3941	;# 
   133   000F66                     UFRM            equ	3942	;# 
   134   000F66                     UFRML           equ	3942	;# 
   135   000F67                     UFRMH           equ	3943	;# 
   136   000F68                     UIR             equ	3944	;# 
   137   000F69                     UIE             equ	3945	;# 
   138   000F6A                     UEIR            equ	3946	;# 
   139   000F6B                     UEIE            equ	3947	;# 
   140   000F6C                     USTAT           equ	3948	;# 
   141   000F6D                     UCON            equ	3949	;# 
   142   000F6E                     UADDR           equ	3950	;# 
   143   000F6F                     UCFG            equ	3951	;# 
   144   000F70                     UEP0            equ	3952	;# 
   145   000F71                     UEP1            equ	3953	;# 
   146   000F72                     UEP2            equ	3954	;# 
   147   000F73                     UEP3            equ	3955	;# 
   148   000F74                     UEP4            equ	3956	;# 
   149   000F75                     UEP5            equ	3957	;# 
   150   000F76                     UEP6            equ	3958	;# 
   151   000F77                     UEP7            equ	3959	;# 
   152   000F78                     UEP8            equ	3960	;# 
   153   000F79                     UEP9            equ	3961	;# 
   154   000F7A                     UEP10           equ	3962	;# 
   155   000F7B                     UEP11           equ	3963	;# 
   156   000F7C                     UEP12           equ	3964	;# 
   157   000F7D                     UEP13           equ	3965	;# 
   158   000F7E                     UEP14           equ	3966	;# 
   159   000F7F                     UEP15           equ	3967	;# 
   160   000F80                     PORTA           equ	3968	;# 
   161   000F81                     PORTB           equ	3969	;# 
   162   000F82                     PORTC           equ	3970	;# 
   163   000F83                     PORTD           equ	3971	;# 
   164   000F84                     PORTE           equ	3972	;# 
   165   000F89                     LATA            equ	3977	;# 
   166   000F8A                     LATB            equ	3978	;# 
   167   000F8B                     LATC            equ	3979	;# 
   168   000F8C                     LATD            equ	3980	;# 
   169   000F8D                     LATE            equ	3981	;# 
   170   000F92                     TRISA           equ	3986	;# 
   171   000F92                     DDRA            equ	3986	;# 
   172   000F93                     TRISB           equ	3987	;# 
   173   000F93                     DDRB            equ	3987	;# 
   174   000F94                     TRISC           equ	3988	;# 
   175   000F94                     DDRC            equ	3988	;# 
   176   000F95                     TRISD           equ	3989	;# 
   177   000F95                     DDRD            equ	3989	;# 
   178   000F96                     TRISE           equ	3990	;# 
   179   000F96                     DDRE            equ	3990	;# 
   180   000F9B                     OSCTUNE         equ	3995	;# 
   181   000F9D                     PIE1            equ	3997	;# 
   182   000F9E                     PIR1            equ	3998	;# 
   183   000F9F                     IPR1            equ	3999	;# 
   184   000FA0                     PIE2            equ	4000	;# 
   185   000FA1                     PIR2            equ	4001	;# 
   186   000FA2                     IPR2            equ	4002	;# 
   187   000FA6                     EECON1          equ	4006	;# 
   188   000FA7                     EECON2          equ	4007	;# 
   189   000FA8                     EEDATA          equ	4008	;# 
   190   000FA9                     EEADR           equ	4009	;# 
   191   000FAB                     RCSTA           equ	4011	;# 
   192   000FAB                     RCSTA1          equ	4011	;# 
   193   000FAC                     TXSTA           equ	4012	;# 
   194   000FAC                     TXSTA1          equ	4012	;# 
   195   000FAD                     TXREG           equ	4013	;# 
   196   000FAD                     TXREG1          equ	4013	;# 
   197   000FAE                     RCREG           equ	4014	;# 
   198   000FAE                     RCREG1          equ	4014	;# 
   199   000FAF                     SPBRG           equ	4015	;# 
   200   000FAF                     SPBRG1          equ	4015	;# 
   201   000FB0                     SPBRGH          equ	4016	;# 
   202   000FB1                     T3CON           equ	4017	;# 
   203   000FB2                     TMR3            equ	4018	;# 
   204   000FB2                     TMR3L           equ	4018	;# 
   205   000FB3                     TMR3H           equ	4019	;# 
   206   000FB4                     CMCON           equ	4020	;# 
   207   000FB5                     CVRCON          equ	4021	;# 
   208   000FB6                     ECCP1AS         equ	4022	;# 
   209   000FB6                     CCP1AS          equ	4022	;# 
   210   000FB7                     ECCP1DEL        equ	4023	;# 
   211   000FB7                     CCP1DEL         equ	4023	;# 
   212   000FB8                     BAUDCON         equ	4024	;# 
   213   000FB8                     BAUDCTL         equ	4024	;# 
   214   000FBA                     CCP2CON         equ	4026	;# 
   215   000FBB                     CCPR2           equ	4027	;# 
   216   000FBB                     CCPR2L          equ	4027	;# 
   217   000FBC                     CCPR2H          equ	4028	;# 
   218   000FBD                     CCP1CON         equ	4029	;# 
   219   000FBD                     ECCP1CON        equ	4029	;# 
   220   000FBE                     CCPR1           equ	4030	;# 
   221   000FBE                     CCPR1L          equ	4030	;# 
   222   000FBF                     CCPR1H          equ	4031	;# 
   223   000FC0                     ADCON2          equ	4032	;# 
   224   000FC1                     ADCON1          equ	4033	;# 
   225   000FC2                     ADCON0          equ	4034	;# 
   226   000FC3                     ADRES           equ	4035	;# 
   227   000FC3                     ADRESL          equ	4035	;# 
   228   000FC4                     ADRESH          equ	4036	;# 
   229   000FC5                     SSPCON2         equ	4037	;# 
   230   000FC6                     SSPCON1         equ	4038	;# 
   231   000FC7                     SSPSTAT         equ	4039	;# 
   232   000FC8                     SSPADD          equ	4040	;# 
   233   000FC9                     SSPBUF          equ	4041	;# 
   234   000FCA                     T2CON           equ	4042	;# 
   235   000FCB                     PR2             equ	4043	;# 
   236   000FCB                     MEMCON          equ	4043	;# 
   237   000FCC                     TMR2            equ	4044	;# 
   238   000FCD                     T1CON           equ	4045	;# 
   239   000FCE                     TMR1            equ	4046	;# 
   240   000FCE                     TMR1L           equ	4046	;# 
   241   000FCF                     TMR1H           equ	4047	;# 
   242   000FD0                     RCON            equ	4048	;# 
   243   000FD1                     WDTCON          equ	4049	;# 
   244   000FD2                     HLVDCON         equ	4050	;# 
   245   000FD2                     LVDCON          equ	4050	;# 
   246   000FD3                     OSCCON          equ	4051	;# 
   247   000FD5                     T0CON           equ	4053	;# 
   248   000FD6                     TMR0            equ	4054	;# 
   249   000FD6                     TMR0L           equ	4054	;# 
   250   000FD7                     TMR0H           equ	4055	;# 
   251   000FD8                     STATUS          equ	4056	;# 
   252   000FD9                     FSR2            equ	4057	;# 
   253   000FD9                     FSR2L           equ	4057	;# 
   254   000FDA                     FSR2H           equ	4058	;# 
   255   000FDB                     PLUSW2          equ	4059	;# 
   256   000FDC                     PREINC2         equ	4060	;# 
   257   000FDD                     POSTDEC2        equ	4061	;# 
   258   000FDE                     POSTINC2        equ	4062	;# 
   259   000FDF                     INDF2           equ	4063	;# 
   260   000FE0                     BSR             equ	4064	;# 
   261   000FE1                     FSR1            equ	4065	;# 
   262   000FE1                     FSR1L           equ	4065	;# 
   263   000FE2                     FSR1H           equ	4066	;# 
   264   000FE3                     PLUSW1          equ	4067	;# 
   265   000FE4                     PREINC1         equ	4068	;# 
   266   000FE5                     POSTDEC1        equ	4069	;# 
   267   000FE6                     POSTINC1        equ	4070	;# 
   268   000FE7                     INDF1           equ	4071	;# 
   269   000FE8                     WREG            equ	4072	;# 
   270   000FE9                     FSR0            equ	4073	;# 
   271   000FE9                     FSR0L           equ	4073	;# 
   272   000FEA                     FSR0H           equ	4074	;# 
   273   000FEB                     PLUSW0          equ	4075	;# 
   274   000FEC                     PREINC0         equ	4076	;# 
   275   000FED                     POSTDEC0        equ	4077	;# 
   276   000FEE                     POSTINC0        equ	4078	;# 
   277   000FEF                     INDF0           equ	4079	;# 
   278   000FF0                     INTCON3         equ	4080	;# 
   279   000FF1                     INTCON2         equ	4081	;# 
   280   000FF2                     INTCON          equ	4082	;# 
   281   000FF3                     PROD            equ	4083	;# 
   282   000FF3                     PRODL           equ	4083	;# 
   283   000FF4                     PRODH           equ	4084	;# 
   284   000FF5                     TABLAT          equ	4085	;# 
   285   000FF6                     TBLPTR          equ	4086	;# 
   286   000FF6                     TBLPTRL         equ	4086	;# 
   287   000FF7                     TBLPTRH         equ	4087	;# 
   288   000FF8                     TBLPTRU         equ	4088	;# 
   289   000FF9                     PCLAT           equ	4089	;# 
   290   000FF9                     PC              equ	4089	;# 
   291   000FF9                     PCL             equ	4089	;# 
   292   000FFA                     PCLATH          equ	4090	;# 
   293   000FFB                     PCLATU          equ	4091	;# 
   294   000FFC                     STKPTR          equ	4092	;# 
   295   000FFD                     TOS             equ	4093	;# 
   296   000FFD                     TOSL            equ	4093	;# 
   297   000FFE                     TOSH            equ	4094	;# 
   298   000FFF                     TOSU            equ	4095	;# 
   299                           
   300                           	psect	idataCOMRAM
   301   001AB8                     __pidataCOMRAM:
   302                           	callstack 0
   303                           
   304                           ;initializer for _lcd_backlight
   305   001AB8  01                 	db	1
   306                           
   307                           	psect	smallconst
   308   000800                     __psmallconst:
   309                           	callstack 0
   310   000800  00                 	db	0
   311   000801                     lcd_animacion_bienvenida@F3145:
   312                           	callstack 0
   313   000801  20                 	db	32
   314   000802  20                 	db	32
   315   000803  43                 	db	67
   316   000804  6F                 	db	111
   317   000805  6E                 	db	110
   318   000806  74                 	db	116
   319   000807  61                 	db	97
   320   000808  64                 	db	100
   321   000809  6F                 	db	111
   322   00080A  72                 	db	114
   323   00080B  20                 	db	32
   324   00080C  44                 	db	68
   325   00080D  65                 	db	101
   326   00080E  20                 	db	32
   327   00080F  4F                 	db	79
   328   000810  62                 	db	98
   329   000811  6A                 	db	106
   330   000812  65                 	db	101
   331   000813  74                 	db	116
   332   000814  6F                 	db	111
   333   000815  73                 	db	115
   334   000816  20                 	db	32
   335   000817  20                 	db	32
   336   000818  00                 	db	0
   337   000819                     __end_oflcd_animacion_bienvenida@F3145:
   338                           	callstack 0
   339   000819                     _mapa_teclas:
   340                           	callstack 0
   341   000819  00                 	db	0
   342   00081A  31                 	db	49
   343   00081B  32                 	db	50
   344   00081C  33                 	db	51
   345   00081D  41                 	db	65
   346   00081E  34                 	db	52
   347   00081F  35                 	db	53
   348   000820  36                 	db	54
   349   000821  42                 	db	66
   350   000822  37                 	db	55
   351   000823  38                 	db	56
   352   000824  39                 	db	57
   353   000825  43                 	db	67
   354   000826  2A                 	db	42
   355   000827  30                 	db	48
   356   000828  23                 	db	35
   357   000829  44                 	db	68
   358   00082A                     __end_of_mapa_teclas:
   359                           	callstack 0
   360   00082A                     _explosion:
   361                           	callstack 0
   362   00082A  04                 	db	4
   363   00082B  15                 	db	21
   364   00082C  0E                 	db	14
   365   00082D  1F                 	db	31
   366   00082E  0E                 	db	14
   367   00082F  15                 	db	21
   368   000830  04                 	db	4
   369   000831  00                 	db	0
   370   000832                     __end_of_explosion:
   371                           	callstack 0
   372   000832                     _rpg:
   373                           	callstack 0
   374   000832  00                 	db	0
   375   000833  00                 	db	0
   376   000834  06                 	db	6
   377   000835  1F                 	db	31
   378   000836  06                 	db	6
   379   000837  00                 	db	0
   380   000838  00                 	db	0
   381   000839  00                 	db	0
   382   00083A                     __end_of_rpg:
   383                           	callstack 0
   384   00083A                     _runner2:
   385                           	callstack 0
   386   00083A  04                 	db	4
   387   00083B  04                 	db	4
   388   00083C  0E                 	db	14
   389   00083D  04                 	db	4
   390   00083E  04                 	db	4
   391   00083F  0C                 	db	12
   392   000840  08                 	db	8
   393   000841  04                 	db	4
   394   000842                     __end_of_runner2:
   395                           	callstack 0
   396   000842                     _runner1:
   397                           	callstack 0
   398   000842  04                 	db	4
   399   000843  04                 	db	4
   400   000844  0E                 	db	14
   401   000845  04                 	db	4
   402   000846  04                 	db	4
   403   000847  06                 	db	6
   404   000848  09                 	db	9
   405   000849  10                 	db	16
   406   00084A                     __end_of_runner1:
   407                           	callstack 0
   408   00084A                     _runner0:
   409                           	callstack 0
   410   00084A  04                 	db	4
   411   00084B  04                 	db	4
   412   00084C  0E                 	db	14
   413   00084D  04                 	db	4
   414   00084E  04                 	db	4
   415   00084F  04                 	db	4
   416   000850  04                 	db	4
   417   000851  0A                 	db	10
   418   000852                     __end_of_runner0:
   419                           	callstack 0
   420   007C49                     _LATA1          set	31817
   421   007C0F                     _RB7            set	31759
   422   007C0E                     _RB6            set	31758
   423   007C0D                     _RB5            set	31757
   424   007C0C                     _RB4            set	31756
   425   007EAF                     _TMR0ON         set	32431
   426   007F93                     _RBIE           set	32659
   427   007F90                     _RBIF           set	32656
   428   007F96                     _PEIE           set	32662
   429   007F97                     _GIE            set	32663
   430   007F95                     _TMR0IE         set	32661
   431   007F92                     _TMR0IF         set	32658
   432   007CA0                     _TRISC0         set	31904
   433   007F8F                     _RBPU           set	32655
   434   007C10                     _RC0            set	31760
   435   007C4C                     _LATA4          set	31820
   436   007C67                     _LATD7          set	31847
   437   007C66                     _LATD6          set	31846
   438   007C65                     _LATD5          set	31845
   439   007C64                     _LATD4          set	31844
   440   007C4B                     _LATA3          set	31819
   441   007C4D                     _LATA5          set	31821
   442   007C95                     _TRISA5         set	31893
   443   000FD6                     _TMR0           set	4054
   444   000F81                     _PORTB          set	3969
   445   000FD5                     _T0CON          set	4053
   446   000F8A                     _LATB           set	3978
   447   000F93                     _TRISB          set	3987
   448   000FC1                     _ADCON1         set	4033
   449   000F8D                     _LATE           set	3981
   450   000F96                     _TRISE          set	3990
   451   000F89                     _LATA           set	3977
   452   000F92                     _TRISA          set	3986
   453   000F8C                     _LATD           set	3980
   454   000F95                     _TRISD          set	3989
   455   000852                     STR_9:
   456   000852  20                 	db	32
   457   000853  20                 	db	32
   458   000854  20                 	db	32
   459   000855  20                 	db	32
   460   000856  20                 	db	32
   461   000857  20                 	db	32
   462   000858  A1                 	db	-95
   463   000859  42                 	db	66	;'B'
   464   00085A  4F                 	db	79	;'O'
   465   00085B  4F                 	db	79	;'O'
   466   00085C  4D                 	db	77	;'M'
   467   00085D  21                 	db	33
   468   00085E  20                 	db	32
   469   00085F  20                 	db	32
   470   000860  20                 	db	32
   471   000861  20                 	db	32
   472   000862  20                 	db	32
   473   000863  20                 	db	32
   474   000864  20                 	db	32
   475   000865  20                 	db	32
   476   000866  20                 	db	32
   477   000867  00                 	db	0
   478   000868                     STR_5:
   479   000868  43                 	db	67	;'C'
   480   000869  6F                 	db	111	;'o'
   481   00086A  6E                 	db	110	;'n'
   482   00086B  74                 	db	116	;'t'
   483   00086C  65                 	db	101	;'e'
   484   00086D  6F                 	db	111	;'o'
   485   00086E  20                 	db	32
   486   00086F  43                 	db	67	;'C'
   487   000870  6F                 	db	111	;'o'
   488   000871  6D                 	db	109	;'m'
   489   000872  70                 	db	112	;'p'
   490   000873  6C                 	db	108	;'l'
   491   000874  65                 	db	101	;'e'
   492   000875  74                 	db	116	;'t'
   493   000876  6F                 	db	111	;'o'
   494   000877  21                 	db	33
   495   000878  00                 	db	0
   496   000879                     STR_7:
   497   000879  21                 	db	33
   498   00087A  20                 	db	32
   499   00087B  45                 	db	69	;'E'
   500   00087C  4D                 	db	77	;'M'
   501   00087D  45                 	db	69	;'E'
   502   00087E  52                 	db	82	;'R'
   503   00087F  47                 	db	71	;'G'
   504   000880  45                 	db	69	;'E'
   505   000881  4E                 	db	78	;'N'
   506   000882  43                 	db	67	;'C'
   507   000883  49                 	db	73	;'I'
   508   000884  41                 	db	65	;'A'
   509   000885  20                 	db	32
   510   000886  21                 	db	33
   511   000887  00                 	db	0
   512   000888                     STR_4:
   513   000888  49                 	db	73	;'I'
   514   000889  6E                 	db	110	;'n'
   515   00088A  67                 	db	103	;'g'
   516   00088B  72                 	db	114	;'r'
   517   00088C  65                 	db	101	;'e'
   518   00088D  73                 	db	115	;'s'
   519   00088E  65                 	db	101	;'e'
   520   00088F  20                 	db	32
   521   000890  76                 	db	118	;'v'
   522   000891  61                 	db	97	;'a'
   523   000892  6C                 	db	108	;'l'
   524   000893  6F                 	db	111	;'o'
   525   000894  72                 	db	114	;'r'
   526   000895  3A                 	db	58	;':'
   527   000896  00                 	db	0
   528   000897                     STR_1:
   529   000897  52                 	db	82	;'R'
   530   000898  61                 	db	97	;'a'
   531   000899  6E                 	db	110	;'n'
   532   00089A  67                 	db	103	;'g'
   533   00089B  6F                 	db	111	;'o'
   534   00089C  20                 	db	32
   535   00089D  69                 	db	105	;'i'
   536   00089E  6E                 	db	110	;'n'
   537   00089F  76                 	db	118	;'v'
   538   0008A0  61                 	db	97	;'a'
   539   0008A1  6C                 	db	108	;'l'
   540   0008A2  69                 	db	105	;'i'
   541   0008A3  64                 	db	100	;'d'
   542   0008A4  6F                 	db	111	;'o'
   543   0008A5  00                 	db	0
   544   0008A6                     STR_8:
   545   0008A6  52                 	db	82	;'R'
   546   0008A7  65                 	db	101	;'e'
   547   0008A8  73                 	db	115	;'s'
   548   0008A9  65                 	db	101	;'e'
   549   0008AA  74                 	db	116	;'t'
   550   0008AB  20                 	db	32
   551   0008AC  6D                 	db	109	;'m'
   552   0008AD  61                 	db	97	;'a'
   553   0008AE  6E                 	db	110	;'n'
   554   0008AF  75                 	db	117	;'u'
   555   0008B0  61                 	db	97	;'a'
   556   0008B1  6C                 	db	108	;'l'
   557   0008B2  00                 	db	0
   558   0008B3                     STR_6:
   559   0008B3  50                 	db	80	;'P'
   560   0008B4  72                 	db	114	;'r'
   561   0008B5  65                 	db	101	;'e'
   562   0008B6  73                 	db	115	;'s'
   563   0008B7  69                 	db	105	;'i'
   564   0008B8  6F                 	db	111	;'o'
   565   0008B9  6E                 	db	110	;'n'
   566   0008BA  65                 	db	101	;'e'
   567   0008BB  20                 	db	32
   568   0008BC  4F                 	db	79	;'O'
   569   0008BD  4B                 	db	75	;'K'
   570   0008BE  00                 	db	0
   571   0008BF                     STR_3:
   572   0008BF  46                 	db	70	;'F'
   573   0008C0  61                 	db	97	;'a'
   574   0008C1  6C                 	db	108	;'l'
   575   0008C2  74                 	db	116	;'t'
   576   0008C3  61                 	db	97	;'a'
   577   0008C4  6E                 	db	110	;'n'
   578   0008C5  74                 	db	116	;'t'
   579   0008C6  65                 	db	101	;'e'
   580   0008C7  73                 	db	115	;'s'
   581   0008C8  3A                 	db	58	;':'
   582   0008C9  00                 	db	0
   583   0008CA                     STR_2:
   584   0008CA  4F                 	db	79	;'O'
   585   0008CB  62                 	db	98	;'b'
   586   0008CC  6A                 	db	106	;'j'
   587   0008CD  65                 	db	101	;'e'
   588   0008CE  74                 	db	116	;'t'
   589   0008CF  69                 	db	105	;'i'
   590   0008D0  76                 	db	118	;'v'
   591   0008D1  6F                 	db	111	;'o'
   592   0008D2  3A                 	db	58	;':'
   593   0008D3  00                 	db	0
   594   0008D4  00                 	db	0	; dummy byte at the end
   595   000002                     __activetblptr  equ	2
   596                           
   597                           ; #config settings
   598                           
   599                           	psect	cinit
   600   00192C                     __pcinit:
   601                           	callstack 0
   602   00192C                     start_initialization:
   603                           	callstack 0
   604   00192C                     __initialization:
   605                           	callstack 0
   606                           
   607                           ; Initialize objects allocated to COMRAM (1 bytes)
   608                           ; load TBLPTR registers with __pidataCOMRAM
   609   00192C  0EB8               	movlw	low __pidataCOMRAM
   610   00192E  6EF6               	movwf	tblptrl,c
   611   001930  0E1A               	movlw	high __pidataCOMRAM
   612   001932  6EF7               	movwf	tblptrh,c
   613   001934  0E00               	movlw	low (__pidataCOMRAM shr (0+16))
   614   001936  6EF8               	movwf	tblptru,c
   615   001938  0009               	tblrd		*+	;fetch initializer
   616   00193A  CFF5 F04C          	movff	tablat,__pdataCOMRAM
   617                           
   618                           ; Clear objects allocated to COMRAM (12 bytes)
   619   00193E  EE00  F040         	lfsr	0,__pbssCOMRAM
   620   001942  0E0C               	movlw	12
   621   001944                     clear_0:
   622   001944  6AEE               	clrf	postinc0,c
   623   001946  06E8               	decf	wreg,f,c
   624   001948  E1FD               	bnz	clear_0
   625   00194A                     end_of_initialization:
   626                           	callstack 0
   627   00194A                     __end_of__initialization:
   628                           	callstack 0
   629   00194A  904D               	bcf	int$flags,0,c	;clear compiler interrupt flag (level 1)
   630   00194C  924D               	bcf	int$flags,1,c	;clear compiler interrupt flag (level 2)
   631   00194E  0E00               	movlw	low (__Lmediumconst shr (0+16))
   632   001950  6EF8               	movwf	tblptru,c
   633   001952  0100               	movlb	0
   634   001954  EF6B  F004         	goto	_main	;jump to C main() function
   635                           
   636                           	psect	bssCOMRAM
   637   000040                     __pbssCOMRAM:
   638                           	callstack 0
   639   000040                     _inactividad:
   640                           	callstack 0
   641   000040                     	ds	2
   642   000042                     _input:
   643                           	callstack 0
   644   000042                     	ds	2
   645   000044                     _contador:
   646                           	callstack 0
   647   000044                     	ds	2
   648   000046                     _objetivo:
   649                           	callstack 0
   650   000046                     	ds	2
   651   000048                     _estado:
   652                           	callstack 0
   653   000048                     	ds	2
   654   00004A                     _btnRC0_ant:
   655                           	callstack 0
   656   00004A                     	ds	1
   657   00004B                     _Tecla:
   658                           	callstack 0
   659   00004B                     	ds	1
   660                           
   661                           	psect	dataCOMRAM
   662   00004C                     __pdataCOMRAM:
   663                           	callstack 0
   664   00004C                     _lcd_backlight:
   665                           	callstack 0
   666   00004C                     	ds	1
   667                           
   668                           	psect	cstackBANK0
   669   000060                     __pcstackBANK0:
   670                           	callstack 0
   671   000060                     ??_main:
   672                           
   673                           ; 1 bytes @ 0x0
   674   000060                     	ds	2
   675   000062                     main@btnRC0:
   676                           	callstack 0
   677                           
   678                           ; 1 bytes @ 0x2
   679   000062                     	ds	1
   680   000063                     main@tecla:
   681                           	callstack 0
   682                           
   683                           ; 1 bytes @ 0x3
   684   000063                     	ds	1
   685                           
   686                           	psect	cstackCOMRAM
   687   000001                     __pcstackCOMRAM:
   688                           	callstack 0
   689   000001                     ?i2___awdiv:
   690                           	callstack 0
   691   000001                     ?i2___awmod:
   692                           	callstack 0
   693   000001                     ?i2___lwdiv:
   694                           	callstack 0
   695   000001                     ?i2___lwmod:
   696                           	callstack 0
   697   000001                     i2___awdiv@dividend:
   698                           	callstack 0
   699   000001                     i2___awmod@dividend:
   700                           	callstack 0
   701   000001                     i2___lwdiv@dividend:
   702                           	callstack 0
   703   000001                     i2___lwmod@dividend:
   704                           	callstack 0
   705   000001                     ??i2_Lcd_Cmd:
   706   000001                     ??i2_Lcd_Char:
   707                           
   708                           ; 1 bytes @ 0x0
   709   000001                     	ds	2
   710   000003                     i2Lcd_Cmd@cmd:
   711                           	callstack 0
   712   000003                     i2Lcd_Char@data:
   713                           	callstack 0
   714   000003                     i2___awdiv@divisor:
   715                           	callstack 0
   716   000003                     i2___awmod@divisor:
   717                           	callstack 0
   718   000003                     i2___lwdiv@divisor:
   719                           	callstack 0
   720   000003                     i2___lwmod@divisor:
   721                           	callstack 0
   722                           
   723                           ; 2 bytes @ 0x2
   724   000003                     	ds	1
   725   000004                     i2Lcd_String@str:
   726                           	callstack 0
   727   000004                     i2Lcd_Set_Cursor@column:
   728                           	callstack 0
   729   000004                     
   730                           ; 1 bytes @ 0x3
   731   000004                     	ds	1
   732   000005                     i2Lcd_Set_Cursor@row:
   733                           	callstack 0
   734   000005                     i2___awdiv@counter:
   735                           	callstack 0
   736   000005                     i2___awmod@counter:
   737                           	callstack 0
   738   000005                     i2___lwmod@counter:
   739                           	callstack 0
   740   000005                     i2___lwdiv@quotient:
   741                           	callstack 0
   742   000005                     
   743                           ; 1 bytes @ 0x4
   744   000005                     	ds	1
   745   000006                     i2___awdiv@sign:
   746                           	callstack 0
   747   000006                     i2___awmod@sign:
   748                           	callstack 0
   749   000006                     i2_Lcd_Set_Cursor$120:
   750                           	callstack 0
   751   000006                     i2unidad@i:
   752                           	callstack 0
   753                           
   754                           ; 2 bytes @ 0x5
   755   000006                     	ds	1
   756   000007                     i2___lwdiv@counter:
   757                           	callstack 0
   758   000007                     i2___awdiv@quotient:
   759                           	callstack 0
   760                           
   761                           ; 2 bytes @ 0x6
   762   000007                     	ds	1
   763   000008                     i2Lcd_Set_Cursor@pos:
   764                           	callstack 0
   765   000008                     i2color@i:
   766                           	callstack 0
   767   000008                     ??i2_unidad:
   768                           
   769                           ; 1 bytes @ 0x7
   770   000008                     	ds	1
   771   000009                     
   772                           ; 1 bytes @ 0x8
   773   000009                     	ds	1
   774   00000A                     ??i2_color:
   775                           
   776                           ; 1 bytes @ 0x9
   777   00000A                     	ds	2
   778   00000C                     i2mostrar_conteo@faltan:
   779                           	callstack 0
   780   00000C                     
   781                           ; 1 bytes @ 0xB
   782   00000C                     	ds	2
   783   00000E                     ??_ISR:
   784                           
   785                           ; 1 bytes @ 0xD
   786   00000E                     	ds	5
   787   000013                     ?___awdiv:
   788                           	callstack 0
   789   000013                     ?___awmod:
   790                           	callstack 0
   791   000013                     ?___lwdiv:
   792                           	callstack 0
   793   000013                     ?___lwmod:
   794                           	callstack 0
   795   000013                     ___awdiv@dividend:
   796                           	callstack 0
   797   000013                     ___awmod@dividend:
   798                           	callstack 0
   799   000013                     ___lwdiv@dividend:
   800                           	callstack 0
   801   000013                     ___lwmod@dividend:
   802                           	callstack 0
   803   000013                     ??_Lcd_Cmd:
   804   000013                     ??_inicializar_hardware:
   805   000013                     ??_Lcd_Char:
   806                           
   807                           ; 1 bytes @ 0x12
   808   000013                     	ds	2
   809   000015                     Lcd_Cmd@cmd:
   810                           	callstack 0
   811   000015                     Lcd_Char@data:
   812                           	callstack 0
   813   000015                     ___awdiv@divisor:
   814                           	callstack 0
   815   000015                     ___awmod@divisor:
   816                           	callstack 0
   817   000015                     ___lwdiv@divisor:
   818                           	callstack 0
   819   000015                     ___lwmod@divisor:
   820                           	callstack 0
   821                           
   822                           ; 2 bytes @ 0x14
   823   000015                     	ds	1
   824   000016                     Lcd_String@str:
   825                           	callstack 0
   826   000016                     Lcd_Set_Cursor@column:
   827                           	callstack 0
   828   000016                     LCD_CrearCaracter@pattern:
   829                           	callstack 0
   830   000016                     ??_Lcd_Init:
   831                           
   832                           ; 1 bytes @ 0x15
   833   000016                     	ds	1
   834   000017                     Lcd_Set_Cursor@row:
   835                           	callstack 0
   836   000017                     ___awdiv@counter:
   837                           	callstack 0
   838   000017                     ___awmod@counter:
   839                           	callstack 0
   840   000017                     ___lwdiv@counter:
   841                           	callstack 0
   842   000017                     ___lwmod@counter:
   843                           	callstack 0
   844   000017                     ??_LCD_CrearCaracter:
   845   000017                     
   846                           ; 1 bytes @ 0x16
   847   000017                     	ds	1
   848   000018                     Lcd_Set_Cursor@pos:
   849                           	callstack 0
   850   000018                     LCD_CrearCaracter@pos:
   851                           	callstack 0
   852   000018                     ___awdiv@sign:
   853                           	callstack 0
   854   000018                     ___awmod@sign:
   855                           	callstack 0
   856   000018                     unidad@i:
   857                           	callstack 0
   858   000018                     ___lwdiv@quotient:
   859                           	callstack 0
   860                           
   861                           ; 2 bytes @ 0x17
   862   000018                     	ds	1
   863   000019                     LCD_CrearCaracter@i:
   864                           	callstack 0
   865   000019                     _Lcd_Set_Cursor$120:
   866                           	callstack 0
   867   000019                     ___awdiv@quotient:
   868                           	callstack 0
   869                           
   870                           ; 2 bytes @ 0x18
   871   000019                     	ds	1
   872   00001A                     color@i:
   873                           	callstack 0
   874   00001A                     ??_unidad:
   875                           
   876                           ; 1 bytes @ 0x19
   877   00001A                     	ds	1
   878   00001B                     ??_lcd_animacion_bienvenida:
   879   00001B                     
   880                           ; 1 bytes @ 0x1A
   881   00001B                     	ds	1
   882   00001C                     ??_color:
   883                           
   884                           ; 1 bytes @ 0x1B
   885   00001C                     	ds	1
   886   00001D                     lcd_animacion_bienvenida@mensaje:
   887                           	callstack 0
   888                           
   889                           ; 24 bytes @ 0x1C
   890   00001D                     	ds	1
   891   00001E                     mostrar_conteo@faltan:
   892                           	callstack 0
   893   00001E                     
   894                           ; 1 bytes @ 0x1D
   895   00001E                     	ds	23
   896   000035                     _lcd_animacion_bienvenida$183:
   897                           	callstack 0
   898                           
   899                           ; 2 bytes @ 0x34
   900   000035                     	ds	2
   901   000037                     lcd_animacion_bienvenida@pasos:
   902                           	callstack 0
   903                           
   904                           ; 2 bytes @ 0x36
   905   000037                     	ds	2
   906   000039                     lcd_animacion_bienvenida@i:
   907                           	callstack 0
   908                           
   909                           ; 2 bytes @ 0x38
   910   000039                     	ds	2
   911   00003B                     lcd_animacion_bienvenida@c:
   912                           	callstack 0
   913                           
   914                           ; 1 bytes @ 0x3A
   915   00003B                     	ds	1
   916   00003C                     lcd_animacion_bienvenida@j:
   917                           	callstack 0
   918                           
   919                           ; 2 bytes @ 0x3B
   920   00003C                     	ds	2
   921   00003E                     lcd_animacion_bienvenida@offset:
   922                           	callstack 0
   923                           
   924                           ; 2 bytes @ 0x3D
   925   00003E                     	ds	2
   926                           
   927 ;;
   928 ;;Main: autosize = 0, tempsize = 2, incstack = 0, save=0
   929 ;;
   930 ;; *************** function _main *****************
   931 ;; Defined at:
   932 ;;		line 94 in file "laboratorio_4.c"
   933 ;; Parameters:    Size  Location     Type
   934 ;;		None
   935 ;; Auto vars:     Size  Location     Type
   936 ;;  tecla           1    3[BANK0 ] unsigned char 
   937 ;;  btnRC0          1    2[BANK0 ] unsigned char 
   938 ;; Return value:  Size  Location     Type
   939 ;;                  1    wreg      void 
   940 ;; Registers used:
   941 ;;		wreg, fsr2l, fsr2h, status,2, status,0, tblptrl, tblptrh, tblptru, prodl, prodh, cstack
   942 ;; Tracked objects:
   943 ;;		On entry : 0/0
   944 ;;		On exit  : 0/0
   945 ;;		Unchanged: 0/0
   946 ;; Data sizes:     COMRAM   BANK0   BANK1   BANK2   BANK3   BANK4   BANK5   BANK6   BANK7
   947 ;;      Params:         0       0       0       0       0       0       0       0       0
   948 ;;      Locals:         0       2       0       0       0       0       0       0       0
   949 ;;      Temps:          0       2       0       0       0       0       0       0       0
   950 ;;      Totals:         0       4       0       0       0       0       0       0       0
   951 ;;Total ram usage:        4 bytes
   952 ;; Hardware stack levels required when called: 7
   953 ;; This function calls:
   954 ;;		_Lcd_Char
   955 ;;		_Lcd_Clear
   956 ;;		_Lcd_Init
   957 ;;		_Lcd_Set_Cursor
   958 ;;		_Lcd_String
   959 ;;		___lwdiv
   960 ;;		___lwmod
   961 ;;		_emergencia
   962 ;;		_inicializar_hardware
   963 ;;		_lcd_animacion_bienvenida
   964 ;;		_mostrar_completado
   965 ;;		_mostrar_conteo
   966 ;;		_mostrar_valor
   967 ;; This function is called by:
   968 ;;		Startup code after reset
   969 ;; This function uses a non-reentrant model
   970 ;;
   971                           
   972                           	psect	text0
   973   0008D6                     __ptext0:
   974                           	callstack 0
   975   0008D6                     _main:
   976                           	callstack 24
   977                           
   978                           ;laboratorio_4.c: 95: inicializar_hardware();
   979                           
   980                           ;incstack = 0
   981   0008D6  EC7A  F00B         	call	_inicializar_hardware	;wreg free
   982                           
   983                           ;laboratorio_4.c: 96: Lcd_Init();
   984   0008DA  ECCE  F00B         	call	_Lcd_Init	;wreg free
   985                           
   986                           ;laboratorio_4.c: 97: _delay((unsigned long)((1000)*(1000000/4000.0)));
   987   0008DE  0E02               	movlw	2
   988   0008E0  0100               	movlb	0	; () banked
   989   0008E2  6F61               	movwf	(??_main+1)& (0+255),b
   990   0008E4  0E45               	movlw	69
   991   0008E6  6F60               	movwf	??_main& (0+255),b
   992   0008E8  0EA9               	movlw	169
   993   0008EA                     u4317:
   994   0008EA  2EE8               	decfsz	wreg,f,c
   995   0008EC  D7FE               	bra	u4317
   996   0008EE  2F60               	decfsz	??_main& (0+255),f,b
   997   0008F0  D7FC               	bra	u4317
   998   0008F2  2F61               	decfsz	(??_main+1)& (0+255),f,b
   999   0008F4  D7FA               	bra	u4317
  1000   0008F6  D000               	nop2	
  1001                           
  1002                           ;laboratorio_4.c: 98: lcd_animacion_bienvenida();
  1003   0008F8  ECD8  F005         	call	_lcd_animacion_bienvenida	;wreg free
  1004                           
  1005                           ;laboratorio_4.c: 102: estado = 1;
  1006   0008FC  0E00               	movlw	0
  1007   0008FE  6E49               	movwf	(_estado+1)^0,c
  1008   000900  0E01               	movlw	1
  1009   000902  6E48               	movwf	_estado^0,c
  1010                           
  1011                           ;laboratorio_4.c: 103: mostrar_valor();
  1012   000904  EC22  F00D         	call	_mostrar_valor	;wreg free
  1013   000908                     l3260:
  1014                           
  1015                           ;laboratorio_4.c: 106: unsigned char btnRC0 = RC0;
  1016   000908  0E00               	movlw	0
  1017   00090A  B082               	btfsc	3970,0,c	;volatile
  1018   00090C  0E01               	movlw	1
  1019   00090E  0100               	movlb	0	; () banked
  1020   000910  6F62               	movwf	main@btnRC0& (0+255),b
  1021                           
  1022                           ; BSR set to: 0
  1023                           ;laboratorio_4.c: 107: if (btnRC0 == 1 && btnRC0_ant == 0) {
  1024   000912  0562               	decf	main@btnRC0& (0+255),w,b
  1025   000914  A4D8               	btfss	status,2,c
  1026   000916  D025               	goto	l3284
  1027                           
  1028                           ; BSR set to: 0
  1029   000918  504A               	movf	_btnRC0_ant^0,w,c
  1030   00091A  A4D8               	btfss	status,2,c
  1031   00091C  D022               	goto	l3284
  1032                           
  1033                           ; BSR set to: 0
  1034                           ;laboratorio_4.c: 108: inactividad = 0;
  1035   00091E  0E00               	movlw	0
  1036   000920  6E41               	movwf	(_inactividad+1)^0,c
  1037   000922  0E00               	movlw	0
  1038   000924  6E40               	movwf	_inactividad^0,c
  1039                           
  1040                           ; BSR set to: 0
  1041                           ;laboratorio_4.c: 109: if (estado == 2) {
  1042   000926  0E02               	movlw	2
  1043   000928  1848               	xorwf	_estado^0,w,c
  1044   00092A  1049               	iorwf	(_estado+1)^0,w,c
  1045   00092C  A4D8               	btfss	status,2,c
  1046   00092E  D019               	goto	l3284
  1047                           
  1048                           ; BSR set to: 0
  1049                           ;laboratorio_4.c: 110: if (contador < 59) contador++;
  1050   000930  5045               	movf	(_contador+1)^0,w,c
  1051   000932  E106               	bnz	l3274
  1052   000934  0E3B               	movlw	59
  1053   000936  5C44               	subwf	_contador^0,w,c
  1054   000938  B0D8               	btfsc	status,0,c
  1055   00093A  D002               	goto	l3274
  1056                           
  1057                           ; BSR set to: 0
  1058   00093C  4A44               	infsnz	_contador^0,f,c
  1059   00093E  2A45               	incf	(_contador+1)^0,f,c
  1060   000940                     l3274:
  1061                           
  1062                           ; BSR set to: 0
  1063                           ;laboratorio_4.c: 111: if (contador >= objetivo) {
  1064   000940  5046               	movf	_objetivo^0,w,c
  1065   000942  5C44               	subwf	_contador^0,w,c
  1066   000944  5047               	movf	(_objetivo+1)^0,w,c
  1067   000946  5845               	subwfb	(_contador+1)^0,w,c
  1068   000948  A0D8               	btfss	status,0,c
  1069   00094A  D009               	goto	l3282
  1070                           
  1071                           ; BSR set to: 0
  1072                           ;laboratorio_4.c: 112: mostrar_conteo();
  1073   00094C  EC92  F007         	call	_mostrar_conteo	;wreg free
  1074                           
  1075                           ;laboratorio_4.c: 113: estado = 3;
  1076   000950  0E00               	movlw	0
  1077   000952  6E49               	movwf	(_estado+1)^0,c
  1078   000954  0E03               	movlw	3
  1079   000956  6E48               	movwf	_estado^0,c
  1080                           
  1081                           ;laboratorio_4.c: 114: mostrar_completado();
  1082   000958  ECAC  F00C         	call	_mostrar_completado	;wreg free
  1083                           
  1084                           ;laboratorio_4.c: 115: } else {
  1085   00095C  D002               	goto	l3284
  1086   00095E                     l3282:
  1087                           
  1088                           ; BSR set to: 0
  1089                           ;laboratorio_4.c: 116: mostrar_conteo();
  1090   00095E  EC92  F007         	call	_mostrar_conteo	;wreg free
  1091   000962                     l3284:
  1092                           
  1093                           ;laboratorio_4.c: 117: };laboratorio_4.c: 118: };laboratorio_4.c: 119: };laboratorio_4.c
      +                          : 120: btnRC0_ant = btnRC0;
  1094   000962  C062  F04A         	movff	main@btnRC0,_btnRC0_ant
  1095                           
  1096                           ;laboratorio_4.c: 122: if (Tecla != 0) {
  1097   000966  504B               	movf	_Tecla^0,w,c	;volatile
  1098   000968  B4D8               	btfsc	status,2,c
  1099   00096A  D7CE               	goto	l3260
  1100                           
  1101                           ;laboratorio_4.c: 123: inactividad = 0;
  1102   00096C  0E00               	movlw	0
  1103   00096E  6E41               	movwf	(_inactividad+1)^0,c
  1104   000970  0E00               	movlw	0
  1105   000972  6E40               	movwf	_inactividad^0,c
  1106                           
  1107                           ;laboratorio_4.c: 124: char tecla = mapa_teclas[Tecla];
  1108   000974  504B               	movf	_Tecla^0,w,c
  1109   000976  0F19               	addlw	low _mapa_teclas
  1110   000978  0100               	movlb	0	; () banked
  1111   00097A  6F60               	movwf	??_main& (0+255),b
  1112   00097C  C060  FFF6         	movff	??_main,tblptrl
  1113   000980                     	if	1	;There is more than 1 active tblptr byte
  1114   000980  0E08               	movlw	high __smallconst
  1115   000982  6EF7               	movwf	tblptrh,c
  1116   000984                     	endif
  1117   000984                     	if	0	;tblptru may be non-zero
  1118   000984                     	endif
  1119   000984                     	if	0	;tblptru may be non-zero
  1120   000984                     	endif
  1121   000984  0008               	tblrd		*
  1122   000986  CFF5 F063          	movff	tablat,main@tecla
  1123                           
  1124                           ; BSR set to: 0
  1125                           ;laboratorio_4.c: 125: Tecla = 0;
  1126   00098A  6A4B               	clrf	_Tecla^0,c	;volatile
  1127                           
  1128                           ; BSR set to: 0
  1129                           ;laboratorio_4.c: 127: if (tecla == 'D') {
  1130   00098C  0E44               	movlw	68
  1131   00098E  1963               	xorwf	main@tecla& (0+255),w,b
  1132   000990  B4D8               	btfsc	status,2,c
  1133                           
  1134                           ; BSR set to: 0
  1135                           ;laboratorio_4.c: 128: emergencia();
  1136   000992  EC62  F00C         	call	_emergencia	;wreg free
  1137                           
  1138                           ;laboratorio_4.c: 129: };laboratorio_4.c: 131: if (tecla == 'C') {
  1139   000996  0E43               	movlw	67
  1140   000998  0100               	movlb	0	; () banked
  1141   00099A  1963               	xorwf	main@tecla& (0+255),w,b
  1142   00099C  A4D8               	btfss	status,2,c
  1143   00099E  D0EB               	goto	l3376
  1144                           
  1145                           ; BSR set to: 0
  1146                           ;laboratorio_4.c: 132: inactividad = 0;
  1147   0009A0  0E00               	movlw	0
  1148   0009A2  6E41               	movwf	(_inactividad+1)^0,c
  1149   0009A4  0E00               	movlw	0
  1150   0009A6  6E40               	movwf	_inactividad^0,c
  1151                           
  1152                           ;laboratorio_4.c: 133: lcd_backlight = !lcd_backlight;
  1153   0009A8  504C               	movf	_lcd_backlight^0,w,c
  1154   0009AA  A4D8               	btfss	status,2,c
  1155   0009AC  D002               	goto	u4170
  1156   0009AE  0E01               	movlw	1
  1157   0009B0  D001               	goto	u4180
  1158   0009B2                     u4170:
  1159   0009B2  0E00               	movlw	0
  1160   0009B4                     u4180:
  1161   0009B4  6E4C               	movwf	_lcd_backlight^0,c
  1162                           
  1163                           ; BSR set to: 0
  1164                           ;laboratorio_4.c: 134: LATA5 = lcd_backlight;
  1165   0009B6  A04C               	btfss	_lcd_backlight^0,0,c
  1166   0009B8  D002               	goto	u4190
  1167   0009BA  8A89               	bsf	3977,5,c	;volatile
  1168   0009BC  D0DC               	goto	l3376
  1169   0009BE                     u4190:
  1170   0009BE  9A89               	bcf	3977,5,c	;volatile
  1171   0009C0  D0DA               	goto	l3376
  1172   0009C2                     l3304:
  1173                           
  1174                           ; BSR set to: 0
  1175                           ;laboratorio_4.c: 139: if (tecla >= '0' && tecla <= '9') {
  1176   0009C2  0E2F               	movlw	47
  1177   0009C4  6563               	cpfsgt	main@tecla& (0+255),b
  1178   0009C6  D044               	goto	l3322
  1179                           
  1180                           ; BSR set to: 0
  1181   0009C8  0E3A               	movlw	58
  1182   0009CA  6163               	cpfslt	main@tecla& (0+255),b
  1183   0009CC  D041               	goto	l3322
  1184                           
  1185                           ; BSR set to: 0
  1186                           ;laboratorio_4.c: 140: input = input * 10 + (tecla - '0');
  1187   0009CE  0E0A               	movlw	10
  1188   0009D0  0242               	mulwf	_input^0,c
  1189   0009D2  CFF3 F060          	movff	prodl,??_main
  1190   0009D6  CFF4 F061          	movff	prodh,??_main+1
  1191   0009DA  0243               	mulwf	(_input+1)^0,c
  1192   0009DC  50F3               	movf	prodl,w,c
  1193   0009DE  2761               	addwf	(??_main+1)& (0+255),f,b
  1194   0009E0  5163               	movf	main@tecla& (0+255),w,b
  1195   0009E2  2760               	addwf	??_main& (0+255),f,b
  1196   0009E4  0E00               	movlw	0
  1197   0009E6  2361               	addwfc	(??_main+1)& (0+255),f,b
  1198   0009E8  0ED0               	movlw	208
  1199   0009EA  2560               	addwf	??_main& (0+255),w,b
  1200   0009EC  6E42               	movwf	_input^0,c
  1201   0009EE  0EFF               	movlw	255
  1202   0009F0  2161               	addwfc	(??_main+1)& (0+255),w,b
  1203   0009F2  6E43               	movwf	(_input+1)^0,c
  1204                           
  1205                           ; BSR set to: 0
  1206                           ;laboratorio_4.c: 141: if (input > 99) input = 0;
  1207   0009F4  5043               	movf	(_input+1)^0,w,c
  1208   0009F6  E104               	bnz	u4230
  1209   0009F8  0E64               	movlw	100
  1210   0009FA  5C42               	subwf	_input^0,w,c
  1211   0009FC  A0D8               	btfss	status,0,c
  1212   0009FE  D004               	goto	l3314
  1213   000A00                     u4230:
  1214                           
  1215                           ; BSR set to: 0
  1216   000A00  0E00               	movlw	0
  1217   000A02  6E43               	movwf	(_input+1)^0,c
  1218   000A04  0E00               	movlw	0
  1219   000A06  6E42               	movwf	_input^0,c
  1220   000A08                     l3314:
  1221                           
  1222                           ; BSR set to: 0
  1223                           ;laboratorio_4.c: 142: mostrar_valor();
  1224   000A08  EC22  F00D         	call	_mostrar_valor	;wreg free
  1225                           
  1226                           ;laboratorio_4.c: 143: Lcd_Set_Cursor(2, 7);
  1227   000A0C  0E07               	movlw	7
  1228   000A0E  6E16               	movwf	Lcd_Set_Cursor@column^0,c
  1229   000A10  0E02               	movlw	2
  1230   000A12  ECFE  F00C         	call	_Lcd_Set_Cursor
  1231                           
  1232                           ;laboratorio_4.c: 144: Lcd_Char((input / 10) + '0');
  1233   000A16  C042  F013         	movff	_input,___lwdiv@dividend
  1234   000A1A  C043  F014         	movff	_input+1,___lwdiv@dividend+1
  1235   000A1E  0E00               	movlw	0
  1236   000A20  6E16               	movwf	(___lwdiv@divisor+1)^0,c
  1237   000A22  0E0A               	movlw	10
  1238   000A24  6E15               	movwf	___lwdiv@divisor^0,c
  1239   000A26  ECA5  F00B         	call	___lwdiv	;wreg free
  1240   000A2A  5013               	movf	?___lwdiv^0,w,c
  1241   000A2C  0F30               	addlw	48
  1242   000A2E  EC84  F008         	call	_Lcd_Char
  1243                           
  1244                           ;laboratorio_4.c: 145: Lcd_Char((input % 10) + '0');
  1245   000A32  C042  F013         	movff	_input,___lwmod@dividend
  1246   000A36  C043  F014         	movff	_input+1,___lwmod@dividend+1
  1247   000A3A  0E00               	movlw	0
  1248   000A3C  6E16               	movwf	(___lwmod@divisor+1)^0,c
  1249   000A3E  0E0A               	movlw	10
  1250   000A40  6E15               	movwf	___lwmod@divisor^0,c
  1251   000A42  EC20  F00C         	call	___lwmod	;wreg free
  1252   000A46  5013               	movf	?___lwmod^0,w,c
  1253   000A48  0F30               	addlw	48
  1254   000A4A  EC84  F008         	call	_Lcd_Char
  1255                           
  1256                           ;laboratorio_4.c: 146: } else if (tecla == '*') {
  1257   000A4E  D0A6               	goto	l3378
  1258   000A50                     l3322:
  1259                           
  1260                           ; BSR set to: 0
  1261   000A50  0E2A               	movlw	42
  1262   000A52  1963               	xorwf	main@tecla& (0+255),w,b
  1263   000A54  A4D8               	btfss	status,2,c
  1264   000A56  D032               	goto	l3334
  1265                           
  1266                           ; BSR set to: 0
  1267                           ;laboratorio_4.c: 147: input = input / 10;
  1268   000A58  C042  F013         	movff	_input,___lwdiv@dividend
  1269   000A5C  C043  F014         	movff	_input+1,___lwdiv@dividend+1
  1270   000A60  0E00               	movlw	0
  1271   000A62  6E16               	movwf	(___lwdiv@divisor+1)^0,c
  1272   000A64  0E0A               	movlw	10
  1273   000A66  6E15               	movwf	___lwdiv@divisor^0,c
  1274   000A68  ECA5  F00B         	call	___lwdiv	;wreg free
  1275   000A6C  C013  F042         	movff	?___lwdiv,_input
  1276   000A70  C014  F043         	movff	?___lwdiv+1,_input+1
  1277                           
  1278                           ;laboratorio_4.c: 148: mostrar_valor();
  1279   000A74  EC22  F00D         	call	_mostrar_valor	;wreg free
  1280                           
  1281                           ;laboratorio_4.c: 149: Lcd_Set_Cursor(2, 7);
  1282   000A78  0E07               	movlw	7
  1283   000A7A  6E16               	movwf	Lcd_Set_Cursor@column^0,c
  1284   000A7C  0E02               	movlw	2
  1285   000A7E  ECFE  F00C         	call	_Lcd_Set_Cursor
  1286                           
  1287                           ;laboratorio_4.c: 150: Lcd_Char((input / 10) + '0');
  1288   000A82  C042  F013         	movff	_input,___lwdiv@dividend
  1289   000A86  C043  F014         	movff	_input+1,___lwdiv@dividend+1
  1290   000A8A  0E00               	movlw	0
  1291   000A8C  6E16               	movwf	(___lwdiv@divisor+1)^0,c
  1292   000A8E  0E0A               	movlw	10
  1293   000A90  6E15               	movwf	___lwdiv@divisor^0,c
  1294   000A92  ECA5  F00B         	call	___lwdiv	;wreg free
  1295   000A96  5013               	movf	?___lwdiv^0,w,c
  1296   000A98  0F30               	addlw	48
  1297   000A9A  EC84  F008         	call	_Lcd_Char
  1298                           
  1299                           ;laboratorio_4.c: 151: Lcd_Char((input % 10) + '0');
  1300   000A9E  C042  F013         	movff	_input,___lwmod@dividend
  1301   000AA2  C043  F014         	movff	_input+1,___lwmod@dividend+1
  1302   000AA6  0E00               	movlw	0
  1303   000AA8  6E16               	movwf	(___lwmod@divisor+1)^0,c
  1304   000AAA  0E0A               	movlw	10
  1305   000AAC  6E15               	movwf	___lwmod@divisor^0,c
  1306   000AAE  EC20  F00C         	call	___lwmod	;wreg free
  1307   000AB2  5013               	movf	?___lwmod^0,w,c
  1308   000AB4  0F30               	addlw	48
  1309   000AB6  EC84  F008         	call	_Lcd_Char
  1310                           
  1311                           ;laboratorio_4.c: 152: } else if (tecla == '#') {
  1312   000ABA  D070               	goto	l3378
  1313   000ABC                     l3334:
  1314                           
  1315                           ; BSR set to: 0
  1316   000ABC  0E23               	movlw	35
  1317   000ABE  1963               	xorwf	main@tecla& (0+255),w,b
  1318   000AC0  A4D8               	btfss	status,2,c
  1319   000AC2  D06C               	goto	l3378
  1320                           
  1321                           ; BSR set to: 0
  1322                           ;laboratorio_4.c: 153: if (input >= 1 && input <= 59) {
  1323   000AC4  5042               	movf	_input^0,w,c
  1324   000AC6  1043               	iorwf	(_input+1)^0,w,c
  1325   000AC8  B4D8               	btfsc	status,2,c
  1326   000ACA  D019               	goto	l3346
  1327                           
  1328                           ; BSR set to: 0
  1329   000ACC  5043               	movf	(_input+1)^0,w,c
  1330   000ACE  E117               	bnz	l3346
  1331   000AD0  0E3C               	movlw	60
  1332   000AD2  5C42               	subwf	_input^0,w,c
  1333   000AD4  B0D8               	btfsc	status,0,c
  1334   000AD6  D013               	goto	l3346
  1335                           
  1336                           ; BSR set to: 0
  1337                           ;laboratorio_4.c: 154: objetivo = input;
  1338   000AD8  C042  F046         	movff	_input,_objetivo
  1339   000ADC  C043  F047         	movff	_input+1,_objetivo+1
  1340                           
  1341                           ; BSR set to: 0
  1342                           ;laboratorio_4.c: 155: contador = 0;
  1343   000AE0  0E00               	movlw	0
  1344   000AE2  6E45               	movwf	(_contador+1)^0,c
  1345   000AE4  0E00               	movlw	0
  1346   000AE6  6E44               	movwf	_contador^0,c
  1347                           
  1348                           ;laboratorio_4.c: 156: input = 0;
  1349   000AE8  0E00               	movlw	0
  1350   000AEA  6E43               	movwf	(_input+1)^0,c
  1351   000AEC  0E00               	movlw	0
  1352   000AEE  6E42               	movwf	_input^0,c
  1353                           
  1354                           ;laboratorio_4.c: 157: estado = 2;
  1355   000AF0  0E00               	movlw	0
  1356   000AF2  6E49               	movwf	(_estado+1)^0,c
  1357   000AF4  0E02               	movlw	2
  1358   000AF6  6E48               	movwf	_estado^0,c
  1359   000AF8                     l3344:
  1360                           
  1361                           ; BSR set to: 0
  1362                           ;laboratorio_4.c: 158: mostrar_conteo();
  1363   000AF8  EC92  F007         	call	_mostrar_conteo	;wreg free
  1364                           
  1365                           ;laboratorio_4.c: 159: } else {
  1366   000AFC  D04F               	goto	l3378
  1367   000AFE                     l3346:
  1368                           
  1369                           ; BSR set to: 0
  1370                           ;laboratorio_4.c: 160: Lcd_Clear();
  1371   000AFE  EC4C  F00D         	call	_Lcd_Clear	;wreg free
  1372                           
  1373                           ;laboratorio_4.c: 161: Lcd_Set_Cursor(1, 1);
  1374   000B02  0E01               	movlw	1
  1375   000B04  6E16               	movwf	Lcd_Set_Cursor@column^0,c
  1376   000B06  0E01               	movlw	1
  1377   000B08  ECFE  F00C         	call	_Lcd_Set_Cursor
  1378                           
  1379                           ;laboratorio_4.c: 162: Lcd_String("Rango invalido");
  1380   000B0C  0E97               	movlw	low STR_1
  1381   000B0E  6E16               	movwf	Lcd_String@str^0,c
  1382   000B10  ECD6  F00C         	call	_Lcd_String	;wreg free
  1383                           
  1384                           ;laboratorio_4.c: 163: _delay((unsigned long)((1500)*(1000000/4000.0)));
  1385   000B14  0E02               	movlw	2
  1386   000B16  0100               	movlb	0	; () banked
  1387   000B18  6F61               	movwf	(??_main+1)& (0+255),b
  1388   000B1A  0EE7               	movlw	231
  1389   000B1C  6F60               	movwf	??_main& (0+255),b
  1390   000B1E  0E00               	movlw	0
  1391   000B20                     u4327:
  1392   000B20  2EE8               	decfsz	wreg,f,c
  1393   000B22  D7FE               	bra	u4327
  1394   000B24  2F60               	decfsz	??_main& (0+255),f,b
  1395   000B26  D7FC               	bra	u4327
  1396   000B28  2F61               	decfsz	(??_main+1)& (0+255),f,b
  1397   000B2A  D7FA               	bra	u4327
  1398   000B2C  0000               	nop	
  1399   000B2E                     l3352:
  1400                           
  1401                           ;laboratorio_4.c: 164: input = 0;
  1402   000B2E  0E00               	movlw	0
  1403   000B30  6E43               	movwf	(_input+1)^0,c
  1404   000B32  0E00               	movlw	0
  1405   000B34  6E42               	movwf	_input^0,c
  1406                           
  1407                           ;laboratorio_4.c: 165: mostrar_valor();
  1408   000B36  EC22  F00D         	call	_mostrar_valor	;wreg free
  1409   000B3A  D030               	goto	l3378
  1410   000B3C                     l3356:
  1411                           
  1412                           ; BSR set to: 0
  1413                           ;laboratorio_4.c: 171: if (tecla == 'B') {
  1414   000B3C  0E42               	movlw	66
  1415   000B3E  1963               	xorwf	main@tecla& (0+255),w,b
  1416   000B40  A4D8               	btfss	status,2,c
  1417   000B42  D007               	goto	l3362
  1418                           
  1419                           ; BSR set to: 0
  1420                           ;laboratorio_4.c: 172: estado = 3;
  1421   000B44  0E00               	movlw	0
  1422   000B46  6E49               	movwf	(_estado+1)^0,c
  1423   000B48  0E03               	movlw	3
  1424   000B4A  6E48               	movwf	_estado^0,c
  1425                           
  1426                           ; BSR set to: 0
  1427                           ;laboratorio_4.c: 173: mostrar_completado();
  1428   000B4C  ECAC  F00C         	call	_mostrar_completado	;wreg free
  1429                           
  1430                           ;laboratorio_4.c: 174: } else if (tecla == 'A') {
  1431   000B50  D025               	goto	l3378
  1432   000B52                     l3362:
  1433                           
  1434                           ; BSR set to: 0
  1435   000B52  0E41               	movlw	65
  1436   000B54  1963               	xorwf	main@tecla& (0+255),w,b
  1437   000B56  A4D8               	btfss	status,2,c
  1438   000B58  D021               	goto	l3378
  1439                           
  1440                           ; BSR set to: 0
  1441                           ;laboratorio_4.c: 175: contador = 0;
  1442   000B5A  0E00               	movlw	0
  1443   000B5C  6E45               	movwf	(_contador+1)^0,c
  1444   000B5E  0E00               	movlw	0
  1445   000B60  6E44               	movwf	_contador^0,c
  1446   000B62  D7CA               	goto	l3344
  1447   000B64                     l3368:
  1448                           
  1449                           ; BSR set to: 0
  1450                           ;laboratorio_4.c: 181: if (tecla == '#') {
  1451   000B64  0E23               	movlw	35
  1452   000B66  1963               	xorwf	main@tecla& (0+255),w,b
  1453   000B68  A4D8               	btfss	status,2,c
  1454   000B6A  D018               	goto	l3378
  1455                           
  1456                           ; BSR set to: 0
  1457                           ;laboratorio_4.c: 182: estado = 1;
  1458   000B6C  0E00               	movlw	0
  1459   000B6E  6E49               	movwf	(_estado+1)^0,c
  1460   000B70  0E01               	movlw	1
  1461   000B72  6E48               	movwf	_estado^0,c
  1462   000B74  D7DC               	goto	l3352
  1463   000B76                     l3376:
  1464   000B76  C048  F060         	movff	_estado,??_main
  1465   000B7A  C049  F061         	movff	_estado+1,??_main+1
  1466                           
  1467                           ; Switch on 2 bytes has been partitioned into a top level switch of size 1, and 1 sub-sw
      +                          itches
  1468                           ; Switch size 1, requested type "simple"
  1469                           ; Number of cases is 1, Range of values is 0 to 0
  1470                           ; switch strategies available:
  1471                           ; Name         Instructions Cycles
  1472                           ; simple_byte            4     3 (average)
  1473                           ;	Chosen strategy is simple_byte
  1474   000B7E  0100               	movlb	0	; () banked
  1475   000B80  5161               	movf	(??_main+1)& (0+255),w,b
  1476   000B82  0A00               	xorlw	0	; case 0
  1477   000B84  A4D8               	btfss	status,2,c
  1478   000B86  D00A               	goto	l3378
  1479                           
  1480                           ; BSR set to: 0
  1481                           ; Switch size 1, requested type "simple"
  1482                           ; Number of cases is 3, Range of values is 1 to 3
  1483                           ; switch strategies available:
  1484                           ; Name         Instructions Cycles
  1485                           ; simple_byte           10     6 (average)
  1486                           ;	Chosen strategy is simple_byte
  1487   000B88  5160               	movf	??_main& (0+255),w,b
  1488   000B8A  0A01               	xorlw	1	; case 1
  1489   000B8C  B4D8               	btfsc	status,2,c
  1490   000B8E  D719               	goto	l3304
  1491   000B90  0A03               	xorlw	3	; case 2
  1492   000B92  B4D8               	btfsc	status,2,c
  1493   000B94  D7D3               	goto	l3356
  1494   000B96  0A01               	xorlw	1	; case 3
  1495   000B98  B4D8               	btfsc	status,2,c
  1496   000B9A  D7E4               	goto	l3368
  1497   000B9C                     l3378:
  1498                           
  1499                           ;laboratorio_4.c: 189: _delay((unsigned long)((200)*(1000000/4000.0)));
  1500   000B9C  0E41               	movlw	65
  1501   000B9E  0100               	movlb	0	; () banked
  1502   000BA0  6F60               	movwf	??_main& (0+255),b
  1503   000BA2  0EEE               	movlw	238
  1504   000BA4                     u4337:
  1505   000BA4  2EE8               	decfsz	wreg,f,c
  1506   000BA6  D7FE               	bra	u4337
  1507   000BA8  2F60               	decfsz	??_main& (0+255),f,b
  1508   000BAA  D7FC               	bra	u4337
  1509   000BAC  0000               	nop	
  1510   000BAE  D6AC               	goto	l3260
  1511   000BB0                     __end_of_main:
  1512                           	callstack 0
  1513                           
  1514 ;; *************** function _mostrar_valor *****************
  1515 ;; Defined at:
  1516 ;;		line 337 in file "laboratorio_4.c"
  1517 ;; Parameters:    Size  Location     Type
  1518 ;;		None
  1519 ;; Auto vars:     Size  Location     Type
  1520 ;;		None
  1521 ;; Return value:  Size  Location     Type
  1522 ;;                  1    wreg      void 
  1523 ;; Registers used:
  1524 ;;		wreg, status,2, status,0, tblptrl, tblptrh, tblptru, cstack
  1525 ;; Tracked objects:
  1526 ;;		On entry : 0/0
  1527 ;;		On exit  : 0/0
  1528 ;;		Unchanged: 0/0
  1529 ;; Data sizes:     COMRAM   BANK0   BANK1   BANK2   BANK3   BANK4   BANK5   BANK6   BANK7
  1530 ;;      Params:         0       0       0       0       0       0       0       0       0
  1531 ;;      Locals:         0       0       0       0       0       0       0       0       0
  1532 ;;      Temps:          0       0       0       0       0       0       0       0       0
  1533 ;;      Totals:         0       0       0       0       0       0       0       0       0
  1534 ;;Total ram usage:        0 bytes
  1535 ;; Hardware stack levels used: 1
  1536 ;; Hardware stack levels required when called: 6
  1537 ;; This function calls:
  1538 ;;		_Lcd_Clear
  1539 ;;		_Lcd_Set_Cursor
  1540 ;;		_Lcd_String
  1541 ;; This function is called by:
  1542 ;;		_main
  1543 ;; This function uses a non-reentrant model
  1544 ;;
  1545                           
  1546                           	psect	text1
  1547   001A44                     __ptext1:
  1548                           	callstack 0
  1549   001A44                     _mostrar_valor:
  1550                           	callstack 24
  1551                           
  1552                           ;laboratorio_4.c: 338: Lcd_Clear();
  1553                           
  1554                           ;incstack = 0
  1555   001A44  EC4C  F00D         	call	_Lcd_Clear	;wreg free
  1556                           
  1557                           ;laboratorio_4.c: 339: Lcd_Set_Cursor(1, 1);
  1558   001A48  0E01               	movlw	1
  1559   001A4A  6E16               	movwf	Lcd_Set_Cursor@column^0,c
  1560   001A4C  0E01               	movlw	1
  1561   001A4E  ECFE  F00C         	call	_Lcd_Set_Cursor
  1562                           
  1563                           ;laboratorio_4.c: 340: Lcd_String("Ingrese valor:");
  1564   001A52  0E88               	movlw	low STR_4
  1565   001A54  6E16               	movwf	Lcd_String@str^0,c
  1566   001A56  ECD6  F00C         	call	_Lcd_String	;wreg free
  1567   001A5A  0012               	return		;funcret
  1568   001A5C                     __end_of_mostrar_valor:
  1569                           	callstack 0
  1570                           
  1571 ;; *************** function _mostrar_conteo *****************
  1572 ;; Defined at:
  1573 ;;		line 303 in file "laboratorio_4.c"
  1574 ;; Parameters:    Size  Location     Type
  1575 ;;		None
  1576 ;; Auto vars:     Size  Location     Type
  1577 ;;  faltan          2   29[COMRAM] int 
  1578 ;; Return value:  Size  Location     Type
  1579 ;;                  1    wreg      void 
  1580 ;; Registers used:
  1581 ;;		wreg, status,2, status,0, tblptrl, tblptrh, tblptru, cstack
  1582 ;; Tracked objects:
  1583 ;;		On entry : 0/0
  1584 ;;		On exit  : 0/0
  1585 ;;		Unchanged: 0/0
  1586 ;; Data sizes:     COMRAM   BANK0   BANK1   BANK2   BANK3   BANK4   BANK5   BANK6   BANK7
  1587 ;;      Params:         0       0       0       0       0       0       0       0       0
  1588 ;;      Locals:         2       0       0       0       0       0       0       0       0
  1589 ;;      Temps:          0       0       0       0       0       0       0       0       0
  1590 ;;      Totals:         2       0       0       0       0       0       0       0       0
  1591 ;;Total ram usage:        2 bytes
  1592 ;; Hardware stack levels used: 1
  1593 ;; Hardware stack levels required when called: 6
  1594 ;; This function calls:
  1595 ;;		_Lcd_Char
  1596 ;;		_Lcd_Clear
  1597 ;;		_Lcd_Set_Cursor
  1598 ;;		_Lcd_String
  1599 ;;		___awdiv
  1600 ;;		___awmod
  1601 ;;		___lwdiv
  1602 ;;		___lwmod
  1603 ;;		_color
  1604 ;;		_unidad
  1605 ;; This function is called by:
  1606 ;;		_main
  1607 ;; This function uses a non-reentrant model
  1608 ;;
  1609                           
  1610                           	psect	text2
  1611   000F24                     __ptext2:
  1612                           	callstack 0
  1613   000F24                     _mostrar_conteo:
  1614                           	callstack 24
  1615                           
  1616                           ;laboratorio_4.c: 304: Lcd_Clear();
  1617                           
  1618                           ;incstack = 0
  1619   000F24  EC4C  F00D         	call	_Lcd_Clear	;wreg free
  1620                           
  1621                           ;laboratorio_4.c: 305: Lcd_Set_Cursor(1, 1);
  1622   000F28  0E01               	movlw	1
  1623   000F2A  6E16               	movwf	Lcd_Set_Cursor@column^0,c
  1624   000F2C  0E01               	movlw	1
  1625   000F2E  ECFE  F00C         	call	_Lcd_Set_Cursor
  1626                           
  1627                           ;laboratorio_4.c: 306: Lcd_String("Objetivo:");
  1628   000F32  0ECA               	movlw	low STR_2
  1629   000F34  6E16               	movwf	Lcd_String@str^0,c
  1630   000F36  ECD6  F00C         	call	_Lcd_String	;wreg free
  1631                           
  1632                           ;laboratorio_4.c: 307: Lcd_Char((objetivo / 10) + '0');
  1633   000F3A  C046  F013         	movff	_objetivo,___lwdiv@dividend
  1634   000F3E  C047  F014         	movff	_objetivo+1,___lwdiv@dividend+1
  1635   000F42  0E00               	movlw	0
  1636   000F44  6E16               	movwf	(___lwdiv@divisor+1)^0,c
  1637   000F46  0E0A               	movlw	10
  1638   000F48  6E15               	movwf	___lwdiv@divisor^0,c
  1639   000F4A  ECA5  F00B         	call	___lwdiv	;wreg free
  1640   000F4E  5013               	movf	?___lwdiv^0,w,c
  1641   000F50  0F30               	addlw	48
  1642   000F52  EC84  F008         	call	_Lcd_Char
  1643                           
  1644                           ;laboratorio_4.c: 308: Lcd_Char((objetivo % 10) + '0');
  1645   000F56  C046  F013         	movff	_objetivo,___lwmod@dividend
  1646   000F5A  C047  F014         	movff	_objetivo+1,___lwmod@dividend+1
  1647   000F5E  0E00               	movlw	0
  1648   000F60  6E16               	movwf	(___lwmod@divisor+1)^0,c
  1649   000F62  0E0A               	movlw	10
  1650   000F64  6E15               	movwf	___lwmod@divisor^0,c
  1651   000F66  EC20  F00C         	call	___lwmod	;wreg free
  1652   000F6A  5013               	movf	?___lwmod^0,w,c
  1653   000F6C  0F30               	addlw	48
  1654   000F6E  EC84  F008         	call	_Lcd_Char
  1655                           
  1656                           ;laboratorio_4.c: 310: Lcd_Set_Cursor(2, 1);
  1657   000F72  0E01               	movlw	1
  1658   000F74  6E16               	movwf	Lcd_Set_Cursor@column^0,c
  1659   000F76  0E02               	movlw	2
  1660   000F78  ECFE  F00C         	call	_Lcd_Set_Cursor
  1661                           
  1662                           ;laboratorio_4.c: 311: Lcd_String("Faltantes:");
  1663   000F7C  0EBF               	movlw	low STR_3
  1664   000F7E  6E16               	movwf	Lcd_String@str^0,c
  1665   000F80  ECD6  F00C         	call	_Lcd_String	;wreg free
  1666                           
  1667                           ;laboratorio_4.c: 312: int faltan = objetivo - contador;
  1668   000F84  5044               	movf	_contador^0,w,c
  1669   000F86  5C46               	subwf	_objetivo^0,w,c
  1670   000F88  6E1E               	movwf	mostrar_conteo@faltan^0,c
  1671   000F8A  5045               	movf	(_contador+1)^0,w,c
  1672   000F8C  5847               	subwfb	(_objetivo+1)^0,w,c
  1673   000F8E  6E1F               	movwf	(mostrar_conteo@faltan+1)^0,c
  1674                           
  1675                           ;laboratorio_4.c: 313: if (faltan < 0) faltan = 0;
  1676   000F90  AE1F               	btfss	(mostrar_conteo@faltan+1)^0,7,c
  1677   000F92  D004               	goto	l3218
  1678   000F94  0E00               	movlw	0
  1679   000F96  6E1F               	movwf	(mostrar_conteo@faltan+1)^0,c
  1680   000F98  0E00               	movlw	0
  1681   000F9A  6E1E               	movwf	mostrar_conteo@faltan^0,c
  1682   000F9C                     l3218:
  1683                           
  1684                           ;laboratorio_4.c: 314: Lcd_Char((faltan / 10) + '0');
  1685   000F9C  C01E  F013         	movff	mostrar_conteo@faltan,___awdiv@dividend
  1686   000FA0  C01F  F014         	movff	mostrar_conteo@faltan+1,___awdiv@dividend+1
  1687   000FA4  0E00               	movlw	0
  1688   000FA6  6E16               	movwf	(___awdiv@divisor+1)^0,c
  1689   000FA8  0E0A               	movlw	10
  1690   000FAA  6E15               	movwf	___awdiv@divisor^0,c
  1691   000FAC  EC28  F00A         	call	___awdiv	;wreg free
  1692   000FB0  5013               	movf	?___awdiv^0,w,c
  1693   000FB2  0F30               	addlw	48
  1694   000FB4  EC84  F008         	call	_Lcd_Char
  1695                           
  1696                           ;laboratorio_4.c: 315: Lcd_Char((faltan % 10) + '0');
  1697   000FB8  C01E  F013         	movff	mostrar_conteo@faltan,___awmod@dividend
  1698   000FBC  C01F  F014         	movff	mostrar_conteo@faltan+1,___awmod@dividend+1
  1699   000FC0  0E00               	movlw	0
  1700   000FC2  6E16               	movwf	(___awmod@divisor+1)^0,c
  1701   000FC4  0E0A               	movlw	10
  1702   000FC6  6E15               	movwf	___awmod@divisor^0,c
  1703   000FC8  ECAA  F00A         	call	___awmod	;wreg free
  1704   000FCC  5013               	movf	?___awmod^0,w,c
  1705   000FCE  0F30               	addlw	48
  1706   000FD0  EC84  F008         	call	_Lcd_Char
  1707                           
  1708                           ;laboratorio_4.c: 317: unidad(contador % 10);
  1709   000FD4  C044  F013         	movff	_contador,___lwmod@dividend
  1710   000FD8  C045  F014         	movff	_contador+1,___lwmod@dividend+1
  1711   000FDC  0E00               	movlw	0
  1712   000FDE  6E16               	movwf	(___lwmod@divisor+1)^0,c
  1713   000FE0  0E0A               	movlw	10
  1714   000FE2  6E15               	movwf	___lwmod@divisor^0,c
  1715   000FE4  EC20  F00C         	call	___lwmod	;wreg free
  1716   000FE8  C013  F018         	movff	?___lwmod,unidad@i
  1717   000FEC  C014  F019         	movff	?___lwmod+1,unidad@i+1
  1718   000FF0  EC3A  F00D         	call	_unidad	;wreg free
  1719                           
  1720                           ;laboratorio_4.c: 318: color(contador / 10);
  1721   000FF4  C044  F013         	movff	_contador,___lwdiv@dividend
  1722   000FF8  C045  F014         	movff	_contador+1,___lwdiv@dividend+1
  1723   000FFC  0E00               	movlw	0
  1724   000FFE  6E16               	movwf	(___lwdiv@divisor+1)^0,c
  1725   001000  0E0A               	movlw	10
  1726   001002  6E15               	movwf	___lwdiv@divisor^0,c
  1727   001004  ECA5  F00B         	call	___lwdiv	;wreg free
  1728   001008  C013  F01A         	movff	?___lwdiv,color@i
  1729   00100C  C014  F01B         	movff	?___lwdiv+1,color@i+1
  1730   001010  EC18  F00B         	call	_color	;wreg free
  1731   001014  0012               	return		;funcret
  1732   001016                     __end_of_mostrar_conteo:
  1733                           	callstack 0
  1734                           
  1735 ;; *************** function _unidad *****************
  1736 ;; Defined at:
  1737 ;;		line 321 in file "laboratorio_4.c"
  1738 ;; Parameters:    Size  Location     Type
  1739 ;;  i               2   23[COMRAM] int 
  1740 ;; Auto vars:     Size  Location     Type
  1741 ;;		None
  1742 ;; Return value:  Size  Location     Type
  1743 ;;                  1    wreg      void 
  1744 ;; Registers used:
  1745 ;;		wreg, status,2, status,0
  1746 ;; Tracked objects:
  1747 ;;		On entry : 0/0
  1748 ;;		On exit  : 0/0
  1749 ;;		Unchanged: 0/0
  1750 ;; Data sizes:     COMRAM   BANK0   BANK1   BANK2   BANK3   BANK4   BANK5   BANK6   BANK7
  1751 ;;      Params:         2       0       0       0       0       0       0       0       0
  1752 ;;      Locals:         0       0       0       0       0       0       0       0       0
  1753 ;;      Temps:          1       0       0       0       0       0       0       0       0
  1754 ;;      Totals:         3       0       0       0       0       0       0       0       0
  1755 ;;Total ram usage:        3 bytes
  1756 ;; Hardware stack levels used: 1
  1757 ;; Hardware stack levels required when called: 4
  1758 ;; This function calls:
  1759 ;;		Nothing
  1760 ;; This function is called by:
  1761 ;;		_mostrar_conteo
  1762 ;; This function uses a non-reentrant model
  1763 ;;
  1764                           
  1765                           	psect	text3
  1766   001A74                     __ptext3:
  1767                           	callstack 0
  1768   001A74                     _unidad:
  1769                           	callstack 25
  1770                           
  1771                           ;laboratorio_4.c: 322: LATD = (LATD & 0xF0) | (i & 0x0F);
  1772                           
  1773                           ;incstack = 0
  1774   001A74  C018  F01A         	movff	unidad@i,??_unidad
  1775   001A78  0E0F               	movlw	15
  1776   001A7A  161A               	andwf	??_unidad^0,f,c
  1777   001A7C  508C               	movf	140,w,c	;volatile
  1778   001A7E  0BF0               	andlw	240
  1779   001A80  101A               	iorwf	??_unidad^0,w,c
  1780   001A82  6E8C               	movwf	140,c	;volatile
  1781   001A84  0012               	return		;funcret
  1782   001A86                     __end_of_unidad:
  1783                           	callstack 0
  1784                           
  1785 ;; *************** function _color *****************
  1786 ;; Defined at:
  1787 ;;		line 325 in file "laboratorio_4.c"
  1788 ;; Parameters:    Size  Location     Type
  1789 ;;  i               2   25[COMRAM] int 
  1790 ;; Auto vars:     Size  Location     Type
  1791 ;;		None
  1792 ;; Return value:  Size  Location     Type
  1793 ;;                  1    wreg      void 
  1794 ;; Registers used:
  1795 ;;		wreg, status,2, status,0
  1796 ;; Tracked objects:
  1797 ;;		On entry : 0/0
  1798 ;;		On exit  : 0/0
  1799 ;;		Unchanged: 0/0
  1800 ;; Data sizes:     COMRAM   BANK0   BANK1   BANK2   BANK3   BANK4   BANK5   BANK6   BANK7
  1801 ;;      Params:         2       0       0       0       0       0       0       0       0
  1802 ;;      Locals:         0       0       0       0       0       0       0       0       0
  1803 ;;      Temps:          2       0       0       0       0       0       0       0       0
  1804 ;;      Totals:         4       0       0       0       0       0       0       0       0
  1805 ;;Total ram usage:        4 bytes
  1806 ;; Hardware stack levels used: 1
  1807 ;; Hardware stack levels required when called: 4
  1808 ;; This function calls:
  1809 ;;		Nothing
  1810 ;; This function is called by:
  1811 ;;		_mostrar_conteo
  1812 ;; This function uses a non-reentrant model
  1813 ;;
  1814                           
  1815                           	psect	text4
  1816   001630                     __ptext4:
  1817                           	callstack 0
  1818   001630                     _color:
  1819                           	callstack 25
  1820                           
  1821                           ;laboratorio_4.c: 326: switch (i) {
  1822                           
  1823                           ;incstack = 0
  1824   001630  D014               	goto	l2930
  1825   001632                     l2916:
  1826   001632  0E05               	movlw	5
  1827   001634  6E8D               	movwf	141,c	;volatile
  1828   001636  0012               	return	
  1829   001638                     l2918:
  1830   001638  0E04               	movlw	4
  1831   00163A  6E8D               	movwf	141,c	;volatile
  1832   00163C  0012               	return	
  1833   00163E                     l2920:
  1834   00163E  0E06               	movlw	6
  1835   001640  6E8D               	movwf	141,c	;volatile
  1836   001642  0012               	return	
  1837   001644                     l2922:
  1838   001644  0E02               	movlw	2
  1839   001646  6E8D               	movwf	141,c	;volatile
  1840   001648  0012               	return	
  1841   00164A                     l2924:
  1842   00164A  0E03               	movlw	3
  1843   00164C  6E8D               	movwf	141,c	;volatile
  1844   00164E  0012               	return	
  1845   001650                     l2926:
  1846   001650  0E07               	movlw	7
  1847   001652  6E8D               	movwf	141,c	;volatile
  1848   001654  0012               	return	
  1849   001656                     l256:
  1850   001656  6A8D               	clrf	141,c	;volatile
  1851   001658  0012               	return	
  1852   00165A                     l2930:
  1853   00165A  C01A  F01C         	movff	color@i,??_color
  1854   00165E  C01B  F01D         	movff	color@i+1,??_color+1
  1855                           
  1856                           ; Switch on 2 bytes has been partitioned into a top level switch of size 1, and 1 sub-sw
      +                          itches
  1857                           ; Switch size 1, requested type "simple"
  1858                           ; Number of cases is 1, Range of values is 0 to 0
  1859                           ; switch strategies available:
  1860                           ; Name         Instructions Cycles
  1861                           ; simple_byte            4     3 (average)
  1862                           ;	Chosen strategy is simple_byte
  1863   001662  501D               	movf	(??_color+1)^0,w,c
  1864   001664  0A00               	xorlw	0	; case 0
  1865   001666  A4D8               	btfss	status,2,c
  1866   001668  D7F6               	goto	l256
  1867                           
  1868                           ; Switch size 1, requested type "simple"
  1869                           ; Number of cases is 6, Range of values is 0 to 5
  1870                           ; switch strategies available:
  1871                           ; Name         Instructions Cycles
  1872                           ; simple_byte           19    10 (average)
  1873                           ;	Chosen strategy is simple_byte
  1874   00166A  501C               	movf	??_color^0,w,c
  1875   00166C  0A00               	xorlw	0	; case 0
  1876   00166E  B4D8               	btfsc	status,2,c
  1877   001670  D7E0               	goto	l2916
  1878   001672  0A01               	xorlw	1	; case 1
  1879   001674  B4D8               	btfsc	status,2,c
  1880   001676  D7E0               	goto	l2918
  1881   001678  0A03               	xorlw	3	; case 2
  1882   00167A  B4D8               	btfsc	status,2,c
  1883   00167C  D7E0               	goto	l2920
  1884   00167E  0A01               	xorlw	1	; case 3
  1885   001680  B4D8               	btfsc	status,2,c
  1886   001682  D7E0               	goto	l2922
  1887   001684  0A07               	xorlw	7	; case 4
  1888   001686  B4D8               	btfsc	status,2,c
  1889   001688  D7E0               	goto	l2924
  1890   00168A  0A01               	xorlw	1	; case 5
  1891   00168C  B4D8               	btfsc	status,2,c
  1892   00168E  D7E0               	goto	l2926
  1893   001690  D7E2               	goto	l256
  1894   001692                     __end_of_color:
  1895                           	callstack 0
  1896                           
  1897 ;; *************** function ___lwmod *****************
  1898 ;; Defined at:
  1899 ;;		line 7 in file "C:\Program Files\Microchip\xc8\v2.50\pic\sources\c90\common\lwmod.c"
  1900 ;; Parameters:    Size  Location     Type
  1901 ;;  dividend        2   18[COMRAM] unsigned int 
  1902 ;;  divisor         2   20[COMRAM] unsigned int 
  1903 ;; Auto vars:     Size  Location     Type
  1904 ;;  counter         1   22[COMRAM] unsigned char 
  1905 ;; Return value:  Size  Location     Type
  1906 ;;                  2   18[COMRAM] unsigned int 
  1907 ;; Registers used:
  1908 ;;		wreg, status,2, status,0
  1909 ;; Tracked objects:
  1910 ;;		On entry : 0/0
  1911 ;;		On exit  : 0/0
  1912 ;;		Unchanged: 0/0
  1913 ;; Data sizes:     COMRAM   BANK0   BANK1   BANK2   BANK3   BANK4   BANK5   BANK6   BANK7
  1914 ;;      Params:         4       0       0       0       0       0       0       0       0
  1915 ;;      Locals:         1       0       0       0       0       0       0       0       0
  1916 ;;      Temps:          0       0       0       0       0       0       0       0       0
  1917 ;;      Totals:         5       0       0       0       0       0       0       0       0
  1918 ;;Total ram usage:        5 bytes
  1919 ;; Hardware stack levels used: 1
  1920 ;; Hardware stack levels required when called: 4
  1921 ;; This function calls:
  1922 ;;		Nothing
  1923 ;; This function is called by:
  1924 ;;		_main
  1925 ;;		_mostrar_conteo
  1926 ;; This function uses a non-reentrant model
  1927 ;;
  1928                           
  1929                           	psect	text5
  1930   001840                     __ptext5:
  1931                           	callstack 0
  1932   001840                     ___lwmod:
  1933                           	callstack 25
  1934                           
  1935                           ;incstack = 0
  1936   001840  5015               	movf	___lwmod@divisor^0,w,c
  1937   001842  1016               	iorwf	(___lwmod@divisor+1)^0,w,c
  1938   001844  B4D8               	btfsc	status,2,c
  1939   001846  D018               	goto	l778
  1940   001848  0E01               	movlw	1
  1941   00184A  6E17               	movwf	___lwmod@counter^0,c
  1942   00184C  D004               	goto	l3046
  1943   00184E                     l3044:
  1944   00184E  90D8               	bcf	status,0,c
  1945   001850  3615               	rlcf	___lwmod@divisor^0,f,c
  1946   001852  3616               	rlcf	(___lwmod@divisor+1)^0,f,c
  1947   001854  2A17               	incf	___lwmod@counter^0,f,c
  1948   001856                     l3046:
  1949   001856  AE16               	btfss	(___lwmod@divisor+1)^0,7,c
  1950   001858  D7FA               	goto	l3044
  1951   00185A                     u4000:
  1952   00185A  5015               	movf	___lwmod@divisor^0,w,c
  1953   00185C  5C13               	subwf	___lwmod@dividend^0,w,c
  1954   00185E  5016               	movf	(___lwmod@divisor+1)^0,w,c
  1955   001860  5814               	subwfb	(___lwmod@dividend+1)^0,w,c
  1956   001862  A0D8               	btfss	status,0,c
  1957   001864  D004               	goto	l3052
  1958   001866  5015               	movf	___lwmod@divisor^0,w,c
  1959   001868  5E13               	subwf	___lwmod@dividend^0,f,c
  1960   00186A  5016               	movf	(___lwmod@divisor+1)^0,w,c
  1961   00186C  5A14               	subwfb	(___lwmod@dividend+1)^0,f,c
  1962   00186E                     l3052:
  1963   00186E  90D8               	bcf	status,0,c
  1964   001870  3216               	rrcf	(___lwmod@divisor+1)^0,f,c
  1965   001872  3215               	rrcf	___lwmod@divisor^0,f,c
  1966   001874  2E17               	decfsz	___lwmod@counter^0,f,c
  1967   001876  D7F1               	goto	u4000
  1968   001878                     l778:
  1969   001878  C013  F013         	movff	___lwmod@dividend,?___lwmod
  1970   00187C  C014  F014         	movff	___lwmod@dividend+1,?___lwmod+1
  1971   001880  0012               	return		;funcret
  1972   001882                     __end_of___lwmod:
  1973                           	callstack 0
  1974                           
  1975 ;; *************** function ___lwdiv *****************
  1976 ;; Defined at:
  1977 ;;		line 7 in file "C:\Program Files\Microchip\xc8\v2.50\pic\sources\c90\common\lwdiv.c"
  1978 ;; Parameters:    Size  Location     Type
  1979 ;;  dividend        2   18[COMRAM] unsigned int 
  1980 ;;  divisor         2   20[COMRAM] unsigned int 
  1981 ;; Auto vars:     Size  Location     Type
  1982 ;;  quotient        2   23[COMRAM] unsigned int 
  1983 ;;  counter         1   22[COMRAM] unsigned char 
  1984 ;; Return value:  Size  Location     Type
  1985 ;;                  2   18[COMRAM] unsigned int 
  1986 ;; Registers used:
  1987 ;;		wreg, status,2, status,0
  1988 ;; Tracked objects:
  1989 ;;		On entry : 0/0
  1990 ;;		On exit  : 0/0
  1991 ;;		Unchanged: 0/0
  1992 ;; Data sizes:     COMRAM   BANK0   BANK1   BANK2   BANK3   BANK4   BANK5   BANK6   BANK7
  1993 ;;      Params:         4       0       0       0       0       0       0       0       0
  1994 ;;      Locals:         3       0       0       0       0       0       0       0       0
  1995 ;;      Temps:          0       0       0       0       0       0       0       0       0
  1996 ;;      Totals:         7       0       0       0       0       0       0       0       0
  1997 ;;Total ram usage:        7 bytes
  1998 ;; Hardware stack levels used: 1
  1999 ;; Hardware stack levels required when called: 4
  2000 ;; This function calls:
  2001 ;;		Nothing
  2002 ;; This function is called by:
  2003 ;;		_main
  2004 ;;		_mostrar_conteo
  2005 ;; This function uses a non-reentrant model
  2006 ;;
  2007                           
  2008                           	psect	text6
  2009   00174A                     __ptext6:
  2010                           	callstack 0
  2011   00174A                     ___lwdiv:
  2012                           	callstack 25
  2013                           
  2014                           ;incstack = 0
  2015   00174A  0E00               	movlw	0
  2016   00174C  6E19               	movwf	(___lwdiv@quotient+1)^0,c
  2017   00174E  0E00               	movlw	0
  2018   001750  6E18               	movwf	___lwdiv@quotient^0,c
  2019   001752  5015               	movf	___lwdiv@divisor^0,w,c
  2020   001754  1016               	iorwf	(___lwdiv@divisor+1)^0,w,c
  2021   001756  B4D8               	btfsc	status,2,c
  2022   001758  D01C               	goto	l768
  2023   00175A  0E01               	movlw	1
  2024   00175C  6E17               	movwf	___lwdiv@counter^0,c
  2025   00175E  D004               	goto	l3026
  2026   001760                     l3024:
  2027   001760  90D8               	bcf	status,0,c
  2028   001762  3615               	rlcf	___lwdiv@divisor^0,f,c
  2029   001764  3616               	rlcf	(___lwdiv@divisor+1)^0,f,c
  2030   001766  2A17               	incf	___lwdiv@counter^0,f,c
  2031   001768                     l3026:
  2032   001768  AE16               	btfss	(___lwdiv@divisor+1)^0,7,c
  2033   00176A  D7FA               	goto	l3024
  2034   00176C                     u3970:
  2035   00176C  90D8               	bcf	status,0,c
  2036   00176E  3618               	rlcf	___lwdiv@quotient^0,f,c
  2037   001770  3619               	rlcf	(___lwdiv@quotient+1)^0,f,c
  2038   001772  5015               	movf	___lwdiv@divisor^0,w,c
  2039   001774  5C13               	subwf	___lwdiv@dividend^0,w,c
  2040   001776  5016               	movf	(___lwdiv@divisor+1)^0,w,c
  2041   001778  5814               	subwfb	(___lwdiv@dividend+1)^0,w,c
  2042   00177A  A0D8               	btfss	status,0,c
  2043   00177C  D005               	goto	l3036
  2044   00177E  5015               	movf	___lwdiv@divisor^0,w,c
  2045   001780  5E13               	subwf	___lwdiv@dividend^0,f,c
  2046   001782  5016               	movf	(___lwdiv@divisor+1)^0,w,c
  2047   001784  5A14               	subwfb	(___lwdiv@dividend+1)^0,f,c
  2048   001786  8018               	bsf	___lwdiv@quotient^0,0,c
  2049   001788                     l3036:
  2050   001788  90D8               	bcf	status,0,c
  2051   00178A  3216               	rrcf	(___lwdiv@divisor+1)^0,f,c
  2052   00178C  3215               	rrcf	___lwdiv@divisor^0,f,c
  2053   00178E  2E17               	decfsz	___lwdiv@counter^0,f,c
  2054   001790  D7ED               	goto	u3970
  2055   001792                     l768:
  2056   001792  C018  F013         	movff	___lwdiv@quotient,?___lwdiv
  2057   001796  C019  F014         	movff	___lwdiv@quotient+1,?___lwdiv+1
  2058   00179A  0012               	return		;funcret
  2059   00179C                     __end_of___lwdiv:
  2060                           	callstack 0
  2061                           
  2062 ;; *************** function ___awdiv *****************
  2063 ;; Defined at:
  2064 ;;		line 7 in file "C:\Program Files\Microchip\xc8\v2.50\pic\sources\c90\common\awdiv.c"
  2065 ;; Parameters:    Size  Location     Type
  2066 ;;  dividend        2   18[COMRAM] int 
  2067 ;;  divisor         2   20[COMRAM] int 
  2068 ;; Auto vars:     Size  Location     Type
  2069 ;;  quotient        2   24[COMRAM] int 
  2070 ;;  sign            1   23[COMRAM] unsigned char 
  2071 ;;  counter         1   22[COMRAM] unsigned char 
  2072 ;; Return value:  Size  Location     Type
  2073 ;;                  2   18[COMRAM] int 
  2074 ;; Registers used:
  2075 ;;		wreg, status,2, status,0
  2076 ;; Tracked objects:
  2077 ;;		On entry : 0/0
  2078 ;;		On exit  : 0/0
  2079 ;;		Unchanged: 0/0
  2080 ;; Data sizes:     COMRAM   BANK0   BANK1   BANK2   BANK3   BANK4   BANK5   BANK6   BANK7
  2081 ;;      Params:         4       0       0       0       0       0       0       0       0
  2082 ;;      Locals:         4       0       0       0       0       0       0       0       0
  2083 ;;      Temps:          0       0       0       0       0       0       0       0       0
  2084 ;;      Totals:         8       0       0       0       0       0       0       0       0
  2085 ;;Total ram usage:        8 bytes
  2086 ;; Hardware stack levels used: 1
  2087 ;; Hardware stack levels required when called: 4
  2088 ;; This function calls:
  2089 ;;		Nothing
  2090 ;; This function is called by:
  2091 ;;		_mostrar_conteo
  2092 ;; This function uses a non-reentrant model
  2093 ;;
  2094                           
  2095                           	psect	text7
  2096   001450                     __ptext7:
  2097                           	callstack 0
  2098   001450                     ___awdiv:
  2099                           	callstack 25
  2100                           
  2101                           ;incstack = 0
  2102   001450  6A18               	clrf	___awdiv@sign^0,c
  2103   001452  AE16               	btfss	(___awdiv@divisor+1)^0,7,c
  2104   001454  D006               	goto	l2946
  2105   001456  6C15               	negf	___awdiv@divisor^0,c
  2106   001458  1E16               	comf	(___awdiv@divisor+1)^0,f,c
  2107   00145A  B0D8               	btfsc	status,0,c
  2108   00145C  2A16               	incf	(___awdiv@divisor+1)^0,f,c
  2109   00145E  0E01               	movlw	1
  2110   001460  6E18               	movwf	___awdiv@sign^0,c
  2111   001462                     l2946:
  2112   001462  AE14               	btfss	(___awdiv@dividend+1)^0,7,c
  2113   001464  D006               	goto	l2952
  2114   001466  6C13               	negf	___awdiv@dividend^0,c
  2115   001468  1E14               	comf	(___awdiv@dividend+1)^0,f,c
  2116   00146A  B0D8               	btfsc	status,0,c
  2117   00146C  2A14               	incf	(___awdiv@dividend+1)^0,f,c
  2118   00146E  0E01               	movlw	1
  2119   001470  1A18               	xorwf	___awdiv@sign^0,f,c
  2120   001472                     l2952:
  2121   001472  0E00               	movlw	0
  2122   001474  6E1A               	movwf	(___awdiv@quotient+1)^0,c
  2123   001476  0E00               	movlw	0
  2124   001478  6E19               	movwf	___awdiv@quotient^0,c
  2125   00147A  5015               	movf	___awdiv@divisor^0,w,c
  2126   00147C  1016               	iorwf	(___awdiv@divisor+1)^0,w,c
  2127   00147E  B4D8               	btfsc	status,2,c
  2128   001480  D01C               	goto	l2974
  2129   001482  0E01               	movlw	1
  2130   001484  6E17               	movwf	___awdiv@counter^0,c
  2131   001486  D004               	goto	l2960
  2132   001488                     l2958:
  2133   001488  90D8               	bcf	status,0,c
  2134   00148A  3615               	rlcf	___awdiv@divisor^0,f,c
  2135   00148C  3616               	rlcf	(___awdiv@divisor+1)^0,f,c
  2136   00148E  2A17               	incf	___awdiv@counter^0,f,c
  2137   001490                     l2960:
  2138   001490  AE16               	btfss	(___awdiv@divisor+1)^0,7,c
  2139   001492  D7FA               	goto	l2958
  2140   001494                     u3870:
  2141   001494  90D8               	bcf	status,0,c
  2142   001496  3619               	rlcf	___awdiv@quotient^0,f,c
  2143   001498  361A               	rlcf	(___awdiv@quotient+1)^0,f,c
  2144   00149A  5015               	movf	___awdiv@divisor^0,w,c
  2145   00149C  5C13               	subwf	___awdiv@dividend^0,w,c
  2146   00149E  5016               	movf	(___awdiv@divisor+1)^0,w,c
  2147   0014A0  5814               	subwfb	(___awdiv@dividend+1)^0,w,c
  2148   0014A2  A0D8               	btfss	status,0,c
  2149   0014A4  D005               	goto	l2970
  2150   0014A6  5015               	movf	___awdiv@divisor^0,w,c
  2151   0014A8  5E13               	subwf	___awdiv@dividend^0,f,c
  2152   0014AA  5016               	movf	(___awdiv@divisor+1)^0,w,c
  2153   0014AC  5A14               	subwfb	(___awdiv@dividend+1)^0,f,c
  2154   0014AE  8019               	bsf	___awdiv@quotient^0,0,c
  2155   0014B0                     l2970:
  2156   0014B0  90D8               	bcf	status,0,c
  2157   0014B2  3216               	rrcf	(___awdiv@divisor+1)^0,f,c
  2158   0014B4  3215               	rrcf	___awdiv@divisor^0,f,c
  2159   0014B6  2E17               	decfsz	___awdiv@counter^0,f,c
  2160   0014B8  D7ED               	goto	u3870
  2161   0014BA                     l2974:
  2162   0014BA  5018               	movf	___awdiv@sign^0,w,c
  2163   0014BC  B4D8               	btfsc	status,2,c
  2164   0014BE  D004               	goto	l2978
  2165   0014C0  6C19               	negf	___awdiv@quotient^0,c
  2166   0014C2  1E1A               	comf	(___awdiv@quotient+1)^0,f,c
  2167   0014C4  B0D8               	btfsc	status,0,c
  2168   0014C6  2A1A               	incf	(___awdiv@quotient+1)^0,f,c
  2169   0014C8                     l2978:
  2170   0014C8  C019  F013         	movff	___awdiv@quotient,?___awdiv
  2171   0014CC  C01A  F014         	movff	___awdiv@quotient+1,?___awdiv+1
  2172   0014D0  0012               	return		;funcret
  2173   0014D2                     __end_of___awdiv:
  2174                           	callstack 0
  2175                           
  2176 ;; *************** function _mostrar_completado *****************
  2177 ;; Defined at:
  2178 ;;		line 343 in file "laboratorio_4.c"
  2179 ;; Parameters:    Size  Location     Type
  2180 ;;		None
  2181 ;; Auto vars:     Size  Location     Type
  2182 ;;		None
  2183 ;; Return value:  Size  Location     Type
  2184 ;;                  1    wreg      void 
  2185 ;; Registers used:
  2186 ;;		wreg, status,2, status,0, tblptrl, tblptrh, tblptru, cstack
  2187 ;; Tracked objects:
  2188 ;;		On entry : 0/0
  2189 ;;		On exit  : 0/0
  2190 ;;		Unchanged: 0/0
  2191 ;; Data sizes:     COMRAM   BANK0   BANK1   BANK2   BANK3   BANK4   BANK5   BANK6   BANK7
  2192 ;;      Params:         0       0       0       0       0       0       0       0       0
  2193 ;;      Locals:         0       0       0       0       0       0       0       0       0
  2194 ;;      Temps:          0       0       0       0       0       0       0       0       0
  2195 ;;      Totals:         0       0       0       0       0       0       0       0       0
  2196 ;;Total ram usage:        0 bytes
  2197 ;; Hardware stack levels used: 1
  2198 ;; Hardware stack levels required when called: 6
  2199 ;; This function calls:
  2200 ;;		_Lcd_Clear
  2201 ;;		_Lcd_Set_Cursor
  2202 ;;		_Lcd_String
  2203 ;; This function is called by:
  2204 ;;		_main
  2205 ;; This function uses a non-reentrant model
  2206 ;;
  2207                           
  2208                           	psect	text8
  2209   001958                     __ptext8:
  2210                           	callstack 0
  2211   001958                     _mostrar_completado:
  2212                           	callstack 24
  2213                           
  2214                           ;laboratorio_4.c: 344: Lcd_Clear();
  2215                           
  2216                           ;incstack = 0
  2217   001958  EC4C  F00D         	call	_Lcd_Clear	;wreg free
  2218                           
  2219                           ;laboratorio_4.c: 345: Lcd_Set_Cursor(1, 1);
  2220   00195C  0E01               	movlw	1
  2221   00195E  6E16               	movwf	Lcd_Set_Cursor@column^0,c
  2222   001960  0E01               	movlw	1
  2223   001962  ECFE  F00C         	call	_Lcd_Set_Cursor
  2224                           
  2225                           ;laboratorio_4.c: 346: Lcd_String("Conteo Completo!");
  2226   001966  0E68               	movlw	low STR_5
  2227   001968  6E16               	movwf	Lcd_String@str^0,c
  2228   00196A  ECD6  F00C         	call	_Lcd_String	;wreg free
  2229                           
  2230                           ;laboratorio_4.c: 347: Lcd_Set_Cursor(2, 1);
  2231   00196E  0E01               	movlw	1
  2232   001970  6E16               	movwf	Lcd_Set_Cursor@column^0,c
  2233   001972  0E02               	movlw	2
  2234   001974  ECFE  F00C         	call	_Lcd_Set_Cursor
  2235                           
  2236                           ;laboratorio_4.c: 348: Lcd_String("Presione OK");
  2237   001978  0EB3               	movlw	low STR_6
  2238   00197A  6E16               	movwf	Lcd_String@str^0,c
  2239   00197C  ECD6  F00C         	call	_Lcd_String	;wreg free
  2240   001980  0012               	return		;funcret
  2241   001982                     __end_of_mostrar_completado:
  2242                           	callstack 0
  2243                           
  2244 ;; *************** function _lcd_animacion_bienvenida *****************
  2245 ;; Defined at:
  2246 ;;		line 363 in file "laboratorio_4.c"
  2247 ;; Parameters:    Size  Location     Type
  2248 ;;		None
  2249 ;; Auto vars:     Size  Location     Type
  2250 ;;  c               1   58[COMRAM] unsigned char 
  2251 ;;  j               2   59[COMRAM] int 
  2252 ;;  i               2   56[COMRAM] int 
  2253 ;;  offset          2   61[COMRAM] int 
  2254 ;;  mensaje        24   28[COMRAM] const unsigned char [24]
  2255 ;;  pasos           2   54[COMRAM] const int 
  2256 ;; Return value:  Size  Location     Type
  2257 ;;                  1    wreg      void 
  2258 ;; Registers used:
  2259 ;;		wreg, fsr2l, fsr2h, status,2, status,0, tblptrl, tblptrh, tblptru, prodl, prodh, cstack
  2260 ;; Tracked objects:
  2261 ;;		On entry : 0/0
  2262 ;;		On exit  : 0/0
  2263 ;;		Unchanged: 0/0
  2264 ;; Data sizes:     COMRAM   BANK0   BANK1   BANK2   BANK3   BANK4   BANK5   BANK6   BANK7
  2265 ;;      Params:         0       0       0       0       0       0       0       0       0
  2266 ;;      Locals:        35       0       0       0       0       0       0       0       0
  2267 ;;      Temps:          2       0       0       0       0       0       0       0       0
  2268 ;;      Totals:        37       0       0       0       0       0       0       0       0
  2269 ;;Total ram usage:       37 bytes
  2270 ;; Hardware stack levels used: 1
  2271 ;; Hardware stack levels required when called: 6
  2272 ;; This function calls:
  2273 ;;		_LCD_CrearCaracter
  2274 ;;		_Lcd_Char
  2275 ;;		_Lcd_Clear
  2276 ;;		_Lcd_Set_Cursor
  2277 ;;		_Lcd_String
  2278 ;;		___awmod
  2279 ;; This function is called by:
  2280 ;;		_main
  2281 ;; This function uses a non-reentrant model
  2282 ;;
  2283                           
  2284                           	psect	text9
  2285   000BB0                     __ptext9:
  2286                           	callstack 0
  2287   000BB0                     _lcd_animacion_bienvenida:
  2288                           	callstack 24
  2289                           
  2290                           ;laboratorio_4.c: 364: LCD_CrearCaracter(0, runner0);
  2291                           
  2292                           ;incstack = 0
  2293   000BB0  0E4A               	movlw	low _runner0
  2294   000BB2  6E16               	movwf	LCD_CrearCaracter@pattern^0,c
  2295   000BB4  0E00               	movlw	0
  2296   000BB6  EC7E  F00C         	call	_LCD_CrearCaracter
  2297                           
  2298                           ;laboratorio_4.c: 365: LCD_CrearCaracter(1, runner1);
  2299   000BBA  0E42               	movlw	low _runner1
  2300   000BBC  6E16               	movwf	LCD_CrearCaracter@pattern^0,c
  2301   000BBE  0E01               	movlw	1
  2302   000BC0  EC7E  F00C         	call	_LCD_CrearCaracter
  2303                           
  2304                           ;laboratorio_4.c: 366: LCD_CrearCaracter(2, runner2);
  2305   000BC4  0E3A               	movlw	low _runner2
  2306   000BC6  6E16               	movwf	LCD_CrearCaracter@pattern^0,c
  2307   000BC8  0E02               	movlw	2
  2308   000BCA  EC7E  F00C         	call	_LCD_CrearCaracter
  2309                           
  2310                           ;laboratorio_4.c: 367: LCD_CrearCaracter(3, explosion);
  2311   000BCE  0E2A               	movlw	low _explosion
  2312   000BD0  6E16               	movwf	LCD_CrearCaracter@pattern^0,c
  2313   000BD2  0E03               	movlw	3
  2314   000BD4  EC7E  F00C         	call	_LCD_CrearCaracter
  2315                           
  2316                           ;laboratorio_4.c: 368: LCD_CrearCaracter(4, rpg);
  2317   000BD8  0E32               	movlw	low _rpg
  2318   000BDA  6E16               	movwf	LCD_CrearCaracter@pattern^0,c
  2319   000BDC  0E04               	movlw	4
  2320   000BDE  EC7E  F00C         	call	_LCD_CrearCaracter
  2321                           
  2322                           ;laboratorio_4.c: 371: const char mensaje[] = "  Contador De Objetos  ";
  2323   000BE2  0E01               	movlw	low lcd_animacion_bienvenida@F3145
  2324   000BE4  6EF6               	movwf	tblptrl,c
  2325   000BE6                     	if	1	;There is more than 1 active tblptr byte
  2326   000BE6  0E08               	movlw	high lcd_animacion_bienvenida@F3145
  2327   000BE8  6EF7               	movwf	tblptrh,c
  2328   000BEA                     	endif
  2329   000BEA                     	if	0	;There are less than 3 active tblptr bytes
  2330   000BEA                     	endif
  2331   000BEA  EE20  F01D         	lfsr	2,lcd_animacion_bienvenida@mensaje
  2332   000BEE  0E17               	movlw	23
  2333   000BF0                     u4020:
  2334   000BF0  0009               	tblrd		*+
  2335   000BF2  CFF5 FFDE          	movff	tablat,postinc2
  2336   000BF6  06E8               	decf	wreg,f,c
  2337   000BF8  E2FB               	bc	u4020
  2338                           
  2339                           ;laboratorio_4.c: 372: const int pasos = 16;
  2340   000BFA  0E00               	movlw	0
  2341   000BFC  6E38               	movwf	(lcd_animacion_bienvenida@pasos+1)^0,c
  2342   000BFE  0E10               	movlw	16
  2343   000C00  6E37               	movwf	lcd_animacion_bienvenida@pasos^0,c
  2344                           
  2345                           ;laboratorio_4.c: 374: for (int offset = 0; offset < pasos; offset++) {
  2346   000C02  0E00               	movlw	0
  2347   000C04  6E3F               	movwf	(lcd_animacion_bienvenida@offset+1)^0,c
  2348   000C06  0E00               	movlw	0
  2349   000C08  6E3E               	movwf	lcd_animacion_bienvenida@offset^0,c
  2350   000C0A                     l3130:
  2351                           
  2352                           ;laboratorio_4.c: 375: Lcd_Set_Cursor(1, 1);
  2353   000C0A  0E01               	movlw	1
  2354   000C0C  6E16               	movwf	Lcd_Set_Cursor@column^0,c
  2355   000C0E  0E01               	movlw	1
  2356   000C10  ECFE  F00C         	call	_Lcd_Set_Cursor
  2357                           
  2358                           ;laboratorio_4.c: 376: for (int j = 0; j < 16; j++) {
  2359   000C14  0E00               	movlw	0
  2360   000C16  6E3D               	movwf	(lcd_animacion_bienvenida@j+1)^0,c
  2361   000C18  0E00               	movlw	0
  2362   000C1A  6E3C               	movwf	lcd_animacion_bienvenida@j^0,c
  2363   000C1C                     l3138:
  2364                           
  2365                           ;laboratorio_4.c: 377: char c = mensaje[offset + j];
  2366   000C1C  503E               	movf	lcd_animacion_bienvenida@offset^0,w,c
  2367   000C1E  0F1D               	addlw	low lcd_animacion_bienvenida@mensaje
  2368   000C20  243C               	addwf	lcd_animacion_bienvenida@j^0,w,c
  2369   000C22  6ED9               	movwf	fsr2l,c
  2370   000C24  6ADA               	clrf	fsr2h,c
  2371   000C26  50DF               	movf	indf2,w,c
  2372   000C28  6E3B               	movwf	lcd_animacion_bienvenida@c^0,c
  2373                           
  2374                           ;laboratorio_4.c: 378: Lcd_Char((c >= 32 && c <= 126) ? c : ' ');
  2375   000C2A  0E1F               	movlw	31
  2376   000C2C  643B               	cpfsgt	lcd_animacion_bienvenida@c^0,c
  2377   000C2E  D003               	goto	u4040
  2378   000C30  0E7E               	movlw	126
  2379   000C32  643B               	cpfsgt	lcd_animacion_bienvenida@c^0,c
  2380   000C34  D005               	goto	l279
  2381   000C36                     u4040:
  2382   000C36  0E00               	movlw	0
  2383   000C38  6E36               	movwf	(_lcd_animacion_bienvenida$183+1)^0,c
  2384   000C3A  0E20               	movlw	32
  2385   000C3C  6E35               	movwf	_lcd_animacion_bienvenida$183^0,c
  2386   000C3E  D003               	goto	l3146
  2387   000C40                     l279:
  2388   000C40  C03B  F035         	movff	lcd_animacion_bienvenida@c,_lcd_animacion_bienvenida$183
  2389   000C44  6A36               	clrf	(_lcd_animacion_bienvenida$183+1)^0,c
  2390   000C46                     l3146:
  2391   000C46  5035               	movf	_lcd_animacion_bienvenida$183^0,w,c
  2392   000C48  EC84  F008         	call	_Lcd_Char
  2393   000C4C  4A3C               	infsnz	lcd_animacion_bienvenida@j^0,f,c
  2394   000C4E  2A3D               	incf	(lcd_animacion_bienvenida@j+1)^0,f,c
  2395   000C50  BE3D               	btfsc	(lcd_animacion_bienvenida@j+1)^0,7,c
  2396   000C52  D7E4               	goto	l3138
  2397   000C54  503D               	movf	(lcd_animacion_bienvenida@j+1)^0,w,c
  2398   000C56  E104               	bnz	u4050
  2399   000C58  0E10               	movlw	16
  2400   000C5A  5C3C               	subwf	lcd_animacion_bienvenida@j^0,w,c
  2401   000C5C  A0D8               	btfss	status,0,c
  2402   000C5E  D7DE               	goto	l3138
  2403   000C60                     u4050:
  2404                           
  2405                           ;laboratorio_4.c: 379: };laboratorio_4.c: 380: Lcd_Set_Cursor(2, offset);
  2406   000C60  C03E  F016         	movff	lcd_animacion_bienvenida@offset,Lcd_Set_Cursor@column
  2407   000C64  0E02               	movlw	2
  2408   000C66  ECFE  F00C         	call	_Lcd_Set_Cursor
  2409                           
  2410                           ;laboratorio_4.c: 381: Lcd_Char(4);
  2411   000C6A  0E04               	movlw	4
  2412   000C6C  EC84  F008         	call	_Lcd_Char
  2413                           
  2414                           ;laboratorio_4.c: 383: Lcd_Set_Cursor(2, offset + 1);
  2415   000C70  283E               	incf	lcd_animacion_bienvenida@offset^0,w,c
  2416   000C72  6E16               	movwf	Lcd_Set_Cursor@column^0,c
  2417   000C74  0E02               	movlw	2
  2418   000C76  ECFE  F00C         	call	_Lcd_Set_Cursor
  2419                           
  2420                           ;laboratorio_4.c: 384: Lcd_Char(offset % 3);
  2421   000C7A  C03E  F013         	movff	lcd_animacion_bienvenida@offset,___awmod@dividend
  2422   000C7E  C03F  F014         	movff	lcd_animacion_bienvenida@offset+1,___awmod@dividend+1
  2423   000C82  0E00               	movlw	0
  2424   000C84  6E16               	movwf	(___awmod@divisor+1)^0,c
  2425   000C86  0E03               	movlw	3
  2426   000C88  6E15               	movwf	___awmod@divisor^0,c
  2427   000C8A  ECAA  F00A         	call	___awmod	;wreg free
  2428   000C8E  5013               	movf	?___awmod^0,w,c
  2429   000C90  EC84  F008         	call	_Lcd_Char
  2430                           
  2431                           ;laboratorio_4.c: 385: _delay((unsigned long)((312)*(1000000/4000.0)));
  2432   000C94  0E66               	movlw	102
  2433   000C96  6E1B               	movwf	??_lcd_animacion_bienvenida^0,c
  2434   000C98  0E4B               	movlw	75
  2435   000C9A                     u4347:
  2436   000C9A  2EE8               	decfsz	wreg,f,c
  2437   000C9C  D7FE               	bra	u4347
  2438   000C9E  2E1B               	decfsz	??_lcd_animacion_bienvenida^0,f,c
  2439   000CA0  D7FC               	bra	u4347
  2440   000CA2  0000               	nop	
  2441                           
  2442                           ;laboratorio_4.c: 386: Lcd_Set_Cursor(2, offset);
  2443   000CA4  C03E  F016         	movff	lcd_animacion_bienvenida@offset,Lcd_Set_Cursor@column
  2444   000CA8  0E02               	movlw	2
  2445   000CAA  ECFE  F00C         	call	_Lcd_Set_Cursor
  2446                           
  2447                           ;laboratorio_4.c: 387: Lcd_Char(' ');
  2448   000CAE  0E20               	movlw	32
  2449   000CB0  EC84  F008         	call	_Lcd_Char
  2450                           
  2451                           ;laboratorio_4.c: 388: Lcd_Set_Cursor(2, offset + 1);
  2452   000CB4  283E               	incf	lcd_animacion_bienvenida@offset^0,w,c
  2453   000CB6  6E16               	movwf	Lcd_Set_Cursor@column^0,c
  2454   000CB8  0E02               	movlw	2
  2455   000CBA  ECFE  F00C         	call	_Lcd_Set_Cursor
  2456                           
  2457                           ;laboratorio_4.c: 389: Lcd_Char(' ');
  2458   000CBE  0E20               	movlw	32
  2459   000CC0  EC84  F008         	call	_Lcd_Char
  2460   000CC4  4A3E               	infsnz	lcd_animacion_bienvenida@offset^0,f,c
  2461   000CC6  2A3F               	incf	(lcd_animacion_bienvenida@offset+1)^0,f,c
  2462   000CC8  5037               	movf	lcd_animacion_bienvenida@pasos^0,w,c
  2463   000CCA  5C3E               	subwf	lcd_animacion_bienvenida@offset^0,w,c
  2464   000CCC  503F               	movf	(lcd_animacion_bienvenida@offset+1)^0,w,c
  2465   000CCE  0A80               	xorlw	128
  2466   000CD0  6E1B               	movwf	??_lcd_animacion_bienvenida^0,c
  2467   000CD2  5038               	movf	(lcd_animacion_bienvenida@pasos+1)^0,w,c
  2468   000CD4  0A80               	xorlw	128
  2469   000CD6  581B               	subwfb	??_lcd_animacion_bienvenida^0,w,c
  2470   000CD8  A0D8               	btfss	status,0,c
  2471   000CDA  D797               	goto	l3130
  2472                           
  2473                           ;laboratorio_4.c: 390: };laboratorio_4.c: 392: Lcd_Set_Cursor(2, 16);
  2474   000CDC  0E10               	movlw	16
  2475   000CDE  6E16               	movwf	Lcd_Set_Cursor@column^0,c
  2476   000CE0  0E02               	movlw	2
  2477   000CE2  ECFE  F00C         	call	_Lcd_Set_Cursor
  2478                           
  2479                           ;laboratorio_4.c: 393: Lcd_Char(3);
  2480   000CE6  0E03               	movlw	3
  2481   000CE8  EC84  F008         	call	_Lcd_Char
  2482                           
  2483                           ;laboratorio_4.c: 394: Lcd_Set_Cursor(1, 1);
  2484   000CEC  0E01               	movlw	1
  2485   000CEE  6E16               	movwf	Lcd_Set_Cursor@column^0,c
  2486   000CF0  0E01               	movlw	1
  2487   000CF2  ECFE  F00C         	call	_Lcd_Set_Cursor
  2488                           
  2489                           ;laboratorio_4.c: 395: Lcd_String("      ¡BOOM!         ");
  2490   000CF6  0E52               	movlw	low STR_9
  2491   000CF8  6E16               	movwf	Lcd_String@str^0,c
  2492   000CFA  ECD6  F00C         	call	_Lcd_String	;wreg free
  2493                           
  2494                           ;laboratorio_4.c: 396: _delay((unsigned long)((500)*(1000000/4000.0)));
  2495   000CFE  0EA3               	movlw	163
  2496   000D00  6E1B               	movwf	??_lcd_animacion_bienvenida^0,c
  2497   000D02  0E55               	movlw	85
  2498   000D04                     u4357:
  2499   000D04  2EE8               	decfsz	wreg,f,c
  2500   000D06  D7FE               	bra	u4357
  2501   000D08  2E1B               	decfsz	??_lcd_animacion_bienvenida^0,f,c
  2502   000D0A  D7FC               	bra	u4357
  2503   000D0C  0000               	nop	
  2504                           
  2505                           ;laboratorio_4.c: 398: for (int i = 0; i < 3; i++) {
  2506   000D0E  0E00               	movlw	0
  2507   000D10  6E3A               	movwf	(lcd_animacion_bienvenida@i+1)^0,c
  2508   000D12  0E00               	movlw	0
  2509   000D14  6E39               	movwf	lcd_animacion_bienvenida@i^0,c
  2510   000D16                     l3180:
  2511                           
  2512                           ;laboratorio_4.c: 399: Lcd_Set_Cursor(2, 16);
  2513   000D16  0E10               	movlw	16
  2514   000D18  6E16               	movwf	Lcd_Set_Cursor@column^0,c
  2515   000D1A  0E02               	movlw	2
  2516   000D1C  ECFE  F00C         	call	_Lcd_Set_Cursor
  2517                           
  2518                           ;laboratorio_4.c: 400: Lcd_Char(' ');
  2519   000D20  0E20               	movlw	32
  2520   000D22  EC84  F008         	call	_Lcd_Char
  2521                           
  2522                           ;laboratorio_4.c: 401: _delay((unsigned long)((150)*(1000000/4000.0)));
  2523   000D26  0E31               	movlw	49
  2524   000D28  6E1B               	movwf	??_lcd_animacion_bienvenida^0,c
  2525   000D2A  0EB2               	movlw	178
  2526   000D2C                     u4367:
  2527   000D2C  2EE8               	decfsz	wreg,f,c
  2528   000D2E  D7FE               	bra	u4367
  2529   000D30  2E1B               	decfsz	??_lcd_animacion_bienvenida^0,f,c
  2530   000D32  D7FC               	bra	u4367
  2531   000D34  D000               	nop2	
  2532                           
  2533                           ;laboratorio_4.c: 402: Lcd_Set_Cursor(2, 16);
  2534   000D36  0E10               	movlw	16
  2535   000D38  6E16               	movwf	Lcd_Set_Cursor@column^0,c
  2536   000D3A  0E02               	movlw	2
  2537   000D3C  ECFE  F00C         	call	_Lcd_Set_Cursor
  2538                           
  2539                           ;laboratorio_4.c: 403: Lcd_Char(3);
  2540   000D40  0E03               	movlw	3
  2541   000D42  EC84  F008         	call	_Lcd_Char
  2542                           
  2543                           ;laboratorio_4.c: 404: _delay((unsigned long)((150)*(1000000/4000.0)));
  2544   000D46  0E31               	movlw	49
  2545   000D48  6E1B               	movwf	??_lcd_animacion_bienvenida^0,c
  2546   000D4A  0EB2               	movlw	178
  2547   000D4C                     u4377:
  2548   000D4C  2EE8               	decfsz	wreg,f,c
  2549   000D4E  D7FE               	bra	u4377
  2550   000D50  2E1B               	decfsz	??_lcd_animacion_bienvenida^0,f,c
  2551   000D52  D7FC               	bra	u4377
  2552   000D54  D000               	nop2	
  2553   000D56  4A39               	infsnz	lcd_animacion_bienvenida@i^0,f,c
  2554   000D58  2A3A               	incf	(lcd_animacion_bienvenida@i+1)^0,f,c
  2555   000D5A  BE3A               	btfsc	(lcd_animacion_bienvenida@i+1)^0,7,c
  2556   000D5C  D7DC               	goto	l3180
  2557   000D5E  503A               	movf	(lcd_animacion_bienvenida@i+1)^0,w,c
  2558   000D60  E104               	bnz	u4070
  2559   000D62  0E03               	movlw	3
  2560   000D64  5C39               	subwf	lcd_animacion_bienvenida@i^0,w,c
  2561   000D66  A0D8               	btfss	status,0,c
  2562   000D68  D7D6               	goto	l3180
  2563   000D6A                     u4070:
  2564                           
  2565                           ;laboratorio_4.c: 405: };laboratorio_4.c: 407: _delay((unsigned long)((800)*(1000000/400
      +                          0.0)));
  2566   000D6A  0E02               	movlw	2
  2567   000D6C  6E1C               	movwf	(??_lcd_animacion_bienvenida+1)^0,c
  2568   000D6E  0E04               	movlw	4
  2569   000D70  6E1B               	movwf	??_lcd_animacion_bienvenida^0,c
  2570   000D72  0EBA               	movlw	186
  2571   000D74                     u4387:
  2572   000D74  2EE8               	decfsz	wreg,f,c
  2573   000D76  D7FE               	bra	u4387
  2574   000D78  2E1B               	decfsz	??_lcd_animacion_bienvenida^0,f,c
  2575   000D7A  D7FC               	bra	u4387
  2576   000D7C  2E1C               	decfsz	(??_lcd_animacion_bienvenida+1)^0,f,c
  2577   000D7E  D7FA               	bra	u4387
  2578   000D80  D000               	nop2	
  2579                           
  2580                           ;laboratorio_4.c: 408: Lcd_Clear();
  2581   000D82  EC4C  F00D         	call	_Lcd_Clear	;wreg free
  2582   000D86  0012               	return		;funcret
  2583   000D88                     __end_of_lcd_animacion_bienvenida:
  2584                           	callstack 0
  2585                           
  2586 ;; *************** function ___awmod *****************
  2587 ;; Defined at:
  2588 ;;		line 7 in file "C:\Program Files\Microchip\xc8\v2.50\pic\sources\c90\common\awmod.c"
  2589 ;; Parameters:    Size  Location     Type
  2590 ;;  dividend        2   18[COMRAM] int 
  2591 ;;  divisor         2   20[COMRAM] int 
  2592 ;; Auto vars:     Size  Location     Type
  2593 ;;  sign            1   23[COMRAM] unsigned char 
  2594 ;;  counter         1   22[COMRAM] unsigned char 
  2595 ;; Return value:  Size  Location     Type
  2596 ;;                  2   18[COMRAM] int 
  2597 ;; Registers used:
  2598 ;;		wreg, status,2, status,0
  2599 ;; Tracked objects:
  2600 ;;		On entry : 0/0
  2601 ;;		On exit  : 0/0
  2602 ;;		Unchanged: 0/0
  2603 ;; Data sizes:     COMRAM   BANK0   BANK1   BANK2   BANK3   BANK4   BANK5   BANK6   BANK7
  2604 ;;      Params:         4       0       0       0       0       0       0       0       0
  2605 ;;      Locals:         2       0       0       0       0       0       0       0       0
  2606 ;;      Temps:          0       0       0       0       0       0       0       0       0
  2607 ;;      Totals:         6       0       0       0       0       0       0       0       0
  2608 ;;Total ram usage:        6 bytes
  2609 ;; Hardware stack levels used: 1
  2610 ;; Hardware stack levels required when called: 4
  2611 ;; This function calls:
  2612 ;;		Nothing
  2613 ;; This function is called by:
  2614 ;;		_mostrar_conteo
  2615 ;;		_lcd_animacion_bienvenida
  2616 ;; This function uses a non-reentrant model
  2617 ;;
  2618                           
  2619                           	psect	text10
  2620   001554                     __ptext10:
  2621                           	callstack 0
  2622   001554                     ___awmod:
  2623                           	callstack 25
  2624                           
  2625                           ;incstack = 0
  2626   001554  6A18               	clrf	___awmod@sign^0,c
  2627   001556  AE14               	btfss	(___awmod@dividend+1)^0,7,c
  2628   001558  D006               	goto	l2990
  2629   00155A  6C13               	negf	___awmod@dividend^0,c
  2630   00155C  1E14               	comf	(___awmod@dividend+1)^0,f,c
  2631   00155E  B0D8               	btfsc	status,0,c
  2632   001560  2A14               	incf	(___awmod@dividend+1)^0,f,c
  2633   001562  0E01               	movlw	1
  2634   001564  6E18               	movwf	___awmod@sign^0,c
  2635   001566                     l2990:
  2636   001566  AE16               	btfss	(___awmod@divisor+1)^0,7,c
  2637   001568  D004               	goto	l2994
  2638   00156A  6C15               	negf	___awmod@divisor^0,c
  2639   00156C  1E16               	comf	(___awmod@divisor+1)^0,f,c
  2640   00156E  B0D8               	btfsc	status,0,c
  2641   001570  2A16               	incf	(___awmod@divisor+1)^0,f,c
  2642   001572                     l2994:
  2643   001572  5015               	movf	___awmod@divisor^0,w,c
  2644   001574  1016               	iorwf	(___awmod@divisor+1)^0,w,c
  2645   001576  B4D8               	btfsc	status,2,c
  2646   001578  D018               	goto	l3010
  2647   00157A  0E01               	movlw	1
  2648   00157C  6E17               	movwf	___awmod@counter^0,c
  2649   00157E  D004               	goto	l3000
  2650   001580                     l2998:
  2651   001580  90D8               	bcf	status,0,c
  2652   001582  3615               	rlcf	___awmod@divisor^0,f,c
  2653   001584  3616               	rlcf	(___awmod@divisor+1)^0,f,c
  2654   001586  2A17               	incf	___awmod@counter^0,f,c
  2655   001588                     l3000:
  2656   001588  AE16               	btfss	(___awmod@divisor+1)^0,7,c
  2657   00158A  D7FA               	goto	l2998
  2658   00158C                     u3930:
  2659   00158C  5015               	movf	___awmod@divisor^0,w,c
  2660   00158E  5C13               	subwf	___awmod@dividend^0,w,c
  2661   001590  5016               	movf	(___awmod@divisor+1)^0,w,c
  2662   001592  5814               	subwfb	(___awmod@dividend+1)^0,w,c
  2663   001594  A0D8               	btfss	status,0,c
  2664   001596  D004               	goto	l3006
  2665   001598  5015               	movf	___awmod@divisor^0,w,c
  2666   00159A  5E13               	subwf	___awmod@dividend^0,f,c
  2667   00159C  5016               	movf	(___awmod@divisor+1)^0,w,c
  2668   00159E  5A14               	subwfb	(___awmod@dividend+1)^0,f,c
  2669   0015A0                     l3006:
  2670   0015A0  90D8               	bcf	status,0,c
  2671   0015A2  3216               	rrcf	(___awmod@divisor+1)^0,f,c
  2672   0015A4  3215               	rrcf	___awmod@divisor^0,f,c
  2673   0015A6  2E17               	decfsz	___awmod@counter^0,f,c
  2674   0015A8  D7F1               	goto	u3930
  2675   0015AA                     l3010:
  2676   0015AA  5018               	movf	___awmod@sign^0,w,c
  2677   0015AC  B4D8               	btfsc	status,2,c
  2678   0015AE  D004               	goto	l3014
  2679   0015B0  6C13               	negf	___awmod@dividend^0,c
  2680   0015B2  1E14               	comf	(___awmod@dividend+1)^0,f,c
  2681   0015B4  B0D8               	btfsc	status,0,c
  2682   0015B6  2A14               	incf	(___awmod@dividend+1)^0,f,c
  2683   0015B8                     l3014:
  2684   0015B8  C013  F013         	movff	___awmod@dividend,?___awmod
  2685   0015BC  C014  F014         	movff	___awmod@dividend+1,?___awmod+1
  2686   0015C0  0012               	return		;funcret
  2687   0015C2                     __end_of___awmod:
  2688                           	callstack 0
  2689                           
  2690 ;; *************** function _LCD_CrearCaracter *****************
  2691 ;; Defined at:
  2692 ;;		line 73 in file "lcd.c"
  2693 ;; Parameters:    Size  Location     Type
  2694 ;;  pos             1    wreg     unsigned char 
  2695 ;;  pattern         1   21[COMRAM] PTR const unsigned char 
  2696 ;;		 -> rpg(8), explosion(8), runner2(8), runner1(8), 
  2697 ;;		 -> runner0(8), 
  2698 ;; Auto vars:     Size  Location     Type
  2699 ;;  pos             1   23[COMRAM] unsigned char 
  2700 ;;  i               1   24[COMRAM] unsigned char 
  2701 ;; Return value:  Size  Location     Type
  2702 ;;                  1    wreg      void 
  2703 ;; Registers used:
  2704 ;;		wreg, status,2, status,0, tblptrl, tblptrh, tblptru, prodl, prodh, cstack
  2705 ;; Tracked objects:
  2706 ;;		On entry : 0/0
  2707 ;;		On exit  : 0/0
  2708 ;;		Unchanged: 0/0
  2709 ;; Data sizes:     COMRAM   BANK0   BANK1   BANK2   BANK3   BANK4   BANK5   BANK6   BANK7
  2710 ;;      Params:         1       0       0       0       0       0       0       0       0
  2711 ;;      Locals:         2       0       0       0       0       0       0       0       0
  2712 ;;      Temps:          1       0       0       0       0       0       0       0       0
  2713 ;;      Totals:         4       0       0       0       0       0       0       0       0
  2714 ;;Total ram usage:        4 bytes
  2715 ;; Hardware stack levels used: 1
  2716 ;; Hardware stack levels required when called: 5
  2717 ;; This function calls:
  2718 ;;		_Lcd_Char
  2719 ;;		_Lcd_Cmd
  2720 ;; This function is called by:
  2721 ;;		_lcd_animacion_bienvenida
  2722 ;; This function uses a non-reentrant model
  2723 ;;
  2724                           
  2725                           	psect	text11
  2726   0018FC                     __ptext11:
  2727                           	callstack 0
  2728   0018FC                     _LCD_CrearCaracter:
  2729                           	callstack 24
  2730                           
  2731                           ;incstack = 0
  2732                           ;LCD_CrearCaracter@pos stored from wreg
  2733   0018FC  6E18               	movwf	LCD_CrearCaracter@pos^0,c
  2734                           
  2735                           ;lcd.c: 74: Lcd_Cmd(0x40 + (pos * 8));
  2736   0018FE  5018               	movf	LCD_CrearCaracter@pos^0,w,c
  2737   001900  0D08               	mullw	8
  2738   001902  50F3               	movf	243,w,c
  2739   001904  0F40               	addlw	64
  2740   001906  ECED  F008         	call	_Lcd_Cmd
  2741                           
  2742                           ;lcd.c: 75: for (char i = 0; i < 8; i++) {
  2743   00190A  6A19               	clrf	LCD_CrearCaracter@i^0,c
  2744   00190C                     l2908:
  2745                           
  2746                           ;lcd.c: 76: Lcd_Char(pattern[i]);
  2747   00190C  5016               	movf	LCD_CrearCaracter@pattern^0,w,c
  2748   00190E  2419               	addwf	LCD_CrearCaracter@i^0,w,c
  2749   001910  6E17               	movwf	??_LCD_CrearCaracter^0,c
  2750   001912  C017  FFF6         	movff	??_LCD_CrearCaracter,tblptrl
  2751   001916                     	if	1	;There is more than 1 active tblptr byte
  2752   001916  0E08               	movlw	high __smallconst
  2753   001918  6EF7               	movwf	tblptrh,c
  2754   00191A                     	endif
  2755   00191A                     	if	0	;tblptru may be non-zero
  2756   00191A                     	endif
  2757   00191A                     	if	0	;tblptru may be non-zero
  2758   00191A                     	endif
  2759   00191A  0008               	tblrd		*
  2760   00191C  50F5               	movf	tablat,w,c
  2761   00191E  EC84  F008         	call	_Lcd_Char
  2762   001922  2A19               	incf	LCD_CrearCaracter@i^0,f,c
  2763   001924  0E07               	movlw	7
  2764   001926  6419               	cpfsgt	LCD_CrearCaracter@i^0,c
  2765   001928  D7F1               	goto	l2908
  2766   00192A  0012               	return	
  2767   00192C                     __end_of_LCD_CrearCaracter:
  2768                           	callstack 0
  2769                           
  2770 ;; *************** function _inicializar_hardware *****************
  2771 ;; Defined at:
  2772 ;;		line 194 in file "laboratorio_4.c"
  2773 ;; Parameters:    Size  Location     Type
  2774 ;;		None
  2775 ;; Auto vars:     Size  Location     Type
  2776 ;;		None
  2777 ;; Return value:  Size  Location     Type
  2778 ;;                  1    wreg      void 
  2779 ;; Registers used:
  2780 ;;		wreg, status,2
  2781 ;; Tracked objects:
  2782 ;;		On entry : 0/0
  2783 ;;		On exit  : 0/0
  2784 ;;		Unchanged: 0/0
  2785 ;; Data sizes:     COMRAM   BANK0   BANK1   BANK2   BANK3   BANK4   BANK5   BANK6   BANK7
  2786 ;;      Params:         0       0       0       0       0       0       0       0       0
  2787 ;;      Locals:         0       0       0       0       0       0       0       0       0
  2788 ;;      Temps:          2       0       0       0       0       0       0       0       0
  2789 ;;      Totals:         2       0       0       0       0       0       0       0       0
  2790 ;;Total ram usage:        2 bytes
  2791 ;; Hardware stack levels used: 1
  2792 ;; Hardware stack levels required when called: 4
  2793 ;; This function calls:
  2794 ;;		Nothing
  2795 ;; This function is called by:
  2796 ;;		_main
  2797 ;; This function uses a non-reentrant model
  2798 ;;
  2799                           
  2800                           	psect	text12
  2801   0016F4                     __ptext12:
  2802                           	callstack 0
  2803   0016F4                     _inicializar_hardware:
  2804                           	callstack 26
  2805                           
  2806                           ;laboratorio_4.c: 195: TRISD = 0;
  2807                           
  2808                           ;incstack = 0
  2809   0016F4  6A95               	clrf	149,c	;volatile
  2810                           
  2811                           ;laboratorio_4.c: 196: LATD = 0;
  2812   0016F6  6A8C               	clrf	140,c	;volatile
  2813                           
  2814                           ;laboratorio_4.c: 197: TRISE = 0;
  2815   0016F8  6A96               	clrf	150,c	;volatile
  2816                           
  2817                           ;laboratorio_4.c: 198: LATE = 0;
  2818   0016FA  6A8D               	clrf	141,c	;volatile
  2819                           
  2820                           ;laboratorio_4.c: 199: ADCON1 = 0x0F;
  2821   0016FC  0E0F               	movlw	15
  2822   0016FE  6EC1               	movwf	193,c	;volatile
  2823                           
  2824                           ;laboratorio_4.c: 200: TRISA = 0b00000101;
  2825   001700  0E05               	movlw	5
  2826   001702  6E92               	movwf	146,c	;volatile
  2827                           
  2828                           ;laboratorio_4.c: 201: RBPU = 0;
  2829   001704  9EF1               	bcf	4081,7,c	;volatile
  2830                           
  2831                           ;laboratorio_4.c: 202: _delay((unsigned long)((1000)*(1000000/4000.0)));
  2832   001706  0E02               	movlw	2
  2833   001708  6E14               	movwf	(??_inicializar_hardware+1)^0,c
  2834   00170A  0E45               	movlw	69
  2835   00170C  6E13               	movwf	??_inicializar_hardware^0,c
  2836   00170E  0EAA               	movlw	170
  2837   001710                     u4397:
  2838   001710  2EE8               	decfsz	wreg,f,c
  2839   001712  D7FE               	bra	u4397
  2840   001714  2E13               	decfsz	??_inicializar_hardware^0,f,c
  2841   001716  D7FC               	bra	u4397
  2842   001718  2E14               	decfsz	(??_inicializar_hardware+1)^0,f,c
  2843   00171A  D7FA               	bra	u4397
  2844                           
  2845                           ;laboratorio_4.c: 203: TRISB = 0b11110000;
  2846   00171C  0EF0               	movlw	240
  2847   00171E  6E93               	movwf	147,c	;volatile
  2848                           
  2849                           ;laboratorio_4.c: 204: LATB = 0x0F;
  2850   001720  0E0F               	movlw	15
  2851   001722  6E8A               	movwf	138,c	;volatile
  2852                           
  2853                           ;laboratorio_4.c: 205: TRISC0 = 1;
  2854   001724  8094               	bsf	3988,0,c	;volatile
  2855                           
  2856                           ;laboratorio_4.c: 206: ADCON1 = 0x0F;
  2857   001726  0E0F               	movlw	15
  2858   001728  6EC1               	movwf	193,c	;volatile
  2859                           
  2860                           ;laboratorio_4.c: 209: T0CON = 0b00000001;
  2861   00172A  0E01               	movlw	1
  2862   00172C  6ED5               	movwf	213,c	;volatile
  2863                           
  2864                           ;laboratorio_4.c: 210: TMR0 = 3036;
  2865   00172E  0E0B               	movlw	11
  2866   001730  6ED7               	movwf	215,c	;volatile
  2867   001732  0EDC               	movlw	220
  2868   001734  6ED6               	movwf	214,c	;volatile
  2869                           
  2870                           ;laboratorio_4.c: 211: TMR0IF = 0;
  2871   001736  94F2               	bcf	4082,2,c	;volatile
  2872                           
  2873                           ;laboratorio_4.c: 212: TMR0IE = 1;
  2874   001738  8AF2               	bsf	4082,5,c	;volatile
  2875                           
  2876                           ;laboratorio_4.c: 214: GIE = 1;
  2877   00173A  8EF2               	bsf	4082,7,c	;volatile
  2878                           
  2879                           ;laboratorio_4.c: 215: PEIE = 1;
  2880   00173C  8CF2               	bsf	4082,6,c	;volatile
  2881                           
  2882                           ;laboratorio_4.c: 216: RBIF = 0;
  2883   00173E  90F2               	bcf	4082,0,c	;volatile
  2884                           
  2885                           ;laboratorio_4.c: 217: RBIE = 1;
  2886   001740  86F2               	bsf	4082,3,c	;volatile
  2887                           
  2888                           ;laboratorio_4.c: 218: TMR0ON = 1;
  2889   001742  8ED5               	bsf	4053,7,c	;volatile
  2890                           
  2891                           ;laboratorio_4.c: 221: lcd_backlight = 1;
  2892   001744  0E01               	movlw	1
  2893   001746  6E4C               	movwf	_lcd_backlight^0,c
  2894   001748  0012               	return		;funcret
  2895   00174A                     __end_of_inicializar_hardware:
  2896                           	callstack 0
  2897                           
  2898 ;; *************** function _emergencia *****************
  2899 ;; Defined at:
  2900 ;;		line 351 in file "laboratorio_4.c"
  2901 ;; Parameters:    Size  Location     Type
  2902 ;;		None
  2903 ;; Auto vars:     Size  Location     Type
  2904 ;;		None
  2905 ;; Return value:  Size  Location     Type
  2906 ;;                  1    wreg      void 
  2907 ;; Registers used:
  2908 ;;		wreg, status,2, status,0, tblptrl, tblptrh, tblptru, cstack
  2909 ;; Tracked objects:
  2910 ;;		On entry : 3F/0
  2911 ;;		On exit  : 0/0
  2912 ;;		Unchanged: 0/0
  2913 ;; Data sizes:     COMRAM   BANK0   BANK1   BANK2   BANK3   BANK4   BANK5   BANK6   BANK7
  2914 ;;      Params:         0       0       0       0       0       0       0       0       0
  2915 ;;      Locals:         0       0       0       0       0       0       0       0       0
  2916 ;;      Temps:          0       0       0       0       0       0       0       0       0
  2917 ;;      Totals:         0       0       0       0       0       0       0       0       0
  2918 ;;Total ram usage:        0 bytes
  2919 ;; Hardware stack levels used: 1
  2920 ;; Hardware stack levels required when called: 6
  2921 ;; This function calls:
  2922 ;;		_Lcd_Clear
  2923 ;;		_Lcd_Set_Cursor
  2924 ;;		_Lcd_String
  2925 ;; This function is called by:
  2926 ;;		_main
  2927 ;; This function uses a non-reentrant model
  2928 ;;
  2929                           
  2930                           	psect	text13
  2931   0018C4                     __ptext13:
  2932                           	callstack 0
  2933   0018C4                     _emergencia:
  2934                           	callstack 24
  2935                           
  2936                           ; BSR set to: 0
  2937                           ;laboratorio_4.c: 352: estado = 4;
  2938                           
  2939                           ;incstack = 0
  2940   0018C4  0E00               	movlw	0
  2941   0018C6  6E49               	movwf	(_estado+1)^0,c
  2942   0018C8  0E04               	movlw	4
  2943   0018CA  6E48               	movwf	_estado^0,c
  2944                           
  2945                           ; BSR set to: 0
  2946                           ;laboratorio_4.c: 353: Lcd_Clear();
  2947   0018CC  EC4C  F00D         	call	_Lcd_Clear	;wreg free
  2948                           
  2949                           ;laboratorio_4.c: 354: Lcd_Set_Cursor(1, 1);
  2950   0018D0  0E01               	movlw	1
  2951   0018D2  6E16               	movwf	Lcd_Set_Cursor@column^0,c
  2952   0018D4  0E01               	movlw	1
  2953   0018D6  ECFE  F00C         	call	_Lcd_Set_Cursor
  2954                           
  2955                           ;laboratorio_4.c: 355: Lcd_String("! EMERGENCIA !");
  2956   0018DA  0E79               	movlw	low STR_7
  2957   0018DC  6E16               	movwf	Lcd_String@str^0,c
  2958   0018DE  ECD6  F00C         	call	_Lcd_String	;wreg free
  2959                           
  2960                           ;laboratorio_4.c: 356: Lcd_Set_Cursor(2, 1);
  2961   0018E2  0E01               	movlw	1
  2962   0018E4  6E16               	movwf	Lcd_Set_Cursor@column^0,c
  2963   0018E6  0E02               	movlw	2
  2964   0018E8  ECFE  F00C         	call	_Lcd_Set_Cursor
  2965                           
  2966                           ;laboratorio_4.c: 357: Lcd_String("Reset manual");
  2967   0018EC  0EA6               	movlw	low STR_8
  2968   0018EE  6E16               	movwf	Lcd_String@str^0,c
  2969   0018F0  ECD6  F00C         	call	_Lcd_String	;wreg free
  2970                           
  2971                           ;laboratorio_4.c: 358: LATE = 0b00000001;
  2972   0018F4  0E01               	movlw	1
  2973   0018F6  6E8D               	movwf	141,c	;volatile
  2974                           
  2975                           ;laboratorio_4.c: 359: TMR0ON = 0;
  2976   0018F8  9ED5               	bcf	4053,7,c	;volatile
  2977   0018FA                     l266:
  2978   0018FA  D7FF               	goto	l266
  2979   0018FC                     __end_of_emergencia:
  2980                           	callstack 0
  2981                           
  2982 ;; *************** function _Lcd_String *****************
  2983 ;; Defined at:
  2984 ;;		line 50 in file "lcd.c"
  2985 ;; Parameters:    Size  Location     Type
  2986 ;;  str             1   21[COMRAM] PTR const unsigned char 
  2987 ;;		 -> STR_9(22), STR_8(13), STR_7(15), STR_6(12), 
  2988 ;;		 -> STR_5(17), STR_4(15), STR_3(11), STR_2(10), 
  2989 ;;		 -> STR_1(15), 
  2990 ;; Auto vars:     Size  Location     Type
  2991 ;;		None
  2992 ;; Return value:  Size  Location     Type
  2993 ;;                  1    wreg      void 
  2994 ;; Registers used:
  2995 ;;		wreg, status,2, status,0, tblptrl, tblptrh, tblptru, cstack
  2996 ;; Tracked objects:
  2997 ;;		On entry : 0/0
  2998 ;;		On exit  : 0/0
  2999 ;;		Unchanged: 0/0
  3000 ;; Data sizes:     COMRAM   BANK0   BANK1   BANK2   BANK3   BANK4   BANK5   BANK6   BANK7
  3001 ;;      Params:         1       0       0       0       0       0       0       0       0
  3002 ;;      Locals:         0       0       0       0       0       0       0       0       0
  3003 ;;      Temps:          0       0       0       0       0       0       0       0       0
  3004 ;;      Totals:         1       0       0       0       0       0       0       0       0
  3005 ;;Total ram usage:        1 bytes
  3006 ;; Hardware stack levels used: 1
  3007 ;; Hardware stack levels required when called: 5
  3008 ;; This function calls:
  3009 ;;		_Lcd_Char
  3010 ;; This function is called by:
  3011 ;;		_main
  3012 ;;		_mostrar_conteo
  3013 ;;		_mostrar_valor
  3014 ;;		_mostrar_completado
  3015 ;;		_emergencia
  3016 ;;		_lcd_animacion_bienvenida
  3017 ;; This function uses a non-reentrant model
  3018 ;;
  3019                           
  3020                           	psect	text14
  3021   0019AC                     __ptext14:
  3022                           	callstack 0
  3023   0019AC                     _Lcd_String:
  3024                           	callstack 24
  3025                           
  3026                           ;lcd.c: 51: while (*str) {
  3027                           
  3028                           ;incstack = 0
  3029   0019AC  D009               	goto	l2888
  3030   0019AE                     l2884:
  3031                           
  3032                           ;lcd.c: 52: Lcd_Char(*str++);
  3033   0019AE  C016  FFF6         	movff	Lcd_String@str,tblptrl
  3034   0019B2                     	if	1	;There is more than 1 active tblptr byte
  3035   0019B2  0E08               	movlw	high __smallconst
  3036   0019B4  6EF7               	movwf	tblptrh,c
  3037   0019B6                     	endif
  3038   0019B6                     	if	0	;tblptru may be non-zero
  3039   0019B6                     	endif
  3040   0019B6                     	if	0	;tblptru may be non-zero
  3041   0019B6                     	endif
  3042   0019B6  0008               	tblrd		*
  3043   0019B8  50F5               	movf	tablat,w,c
  3044   0019BA  EC84  F008         	call	_Lcd_Char
  3045   0019BE  2A16               	incf	Lcd_String@str^0,f,c
  3046   0019C0                     l2888:
  3047   0019C0  C016  FFF6         	movff	Lcd_String@str,tblptrl
  3048   0019C4                     	if	1	;There is more than 1 active tblptr byte
  3049   0019C4  0E08               	movlw	high __smallconst
  3050   0019C6  6EF7               	movwf	tblptrh,c
  3051   0019C8                     	endif
  3052   0019C8                     	if	0	;tblptru may be non-zero
  3053   0019C8                     	endif
  3054   0019C8                     	if	0	;tblptru may be non-zero
  3055   0019C8                     	endif
  3056   0019C8  0008               	tblrd		*
  3057   0019CA  50F5               	movf	tablat,w,c
  3058   0019CC  0900               	iorlw	0
  3059   0019CE  B4D8               	btfsc	status,2,c
  3060   0019D0  0012               	return	
  3061   0019D2  D7ED               	goto	l2884
  3062   0019D4                     __end_of_Lcd_String:
  3063                           	callstack 0
  3064                           
  3065 ;; *************** function _Lcd_Char *****************
  3066 ;; Defined at:
  3067 ;;		line 35 in file "lcd.c"
  3068 ;; Parameters:    Size  Location     Type
  3069 ;;  data            1    wreg     unsigned char 
  3070 ;; Auto vars:     Size  Location     Type
  3071 ;;  data            1   20[COMRAM] unsigned char 
  3072 ;; Return value:  Size  Location     Type
  3073 ;;                  1    wreg      void 
  3074 ;; Registers used:
  3075 ;;		wreg, status,2, status,0
  3076 ;; Tracked objects:
  3077 ;;		On entry : 0/0
  3078 ;;		On exit  : 0/0
  3079 ;;		Unchanged: 0/0
  3080 ;; Data sizes:     COMRAM   BANK0   BANK1   BANK2   BANK3   BANK4   BANK5   BANK6   BANK7
  3081 ;;      Params:         0       0       0       0       0       0       0       0       0
  3082 ;;      Locals:         1       0       0       0       0       0       0       0       0
  3083 ;;      Temps:          2       0       0       0       0       0       0       0       0
  3084 ;;      Totals:         3       0       0       0       0       0       0       0       0
  3085 ;;Total ram usage:        3 bytes
  3086 ;; Hardware stack levels used: 1
  3087 ;; Hardware stack levels required when called: 4
  3088 ;; This function calls:
  3089 ;;		Nothing
  3090 ;; This function is called by:
  3091 ;;		_Lcd_String
  3092 ;;		_LCD_CrearCaracter
  3093 ;;		_main
  3094 ;;		_mostrar_conteo
  3095 ;;		_lcd_animacion_bienvenida
  3096 ;; This function uses a non-reentrant model
  3097 ;;
  3098                           
  3099                           	psect	text15
  3100   001108                     __ptext15:
  3101                           	callstack 0
  3102   001108                     _Lcd_Char:
  3103                           	callstack 24
  3104                           
  3105                           ;incstack = 0
  3106                           ;Lcd_Char@data stored from wreg
  3107   001108  6E15               	movwf	Lcd_Char@data^0,c
  3108                           
  3109                           ;lcd.c: 36: LATA3 = 1;
  3110   00110A  8689               	bsf	3977,3,c	;volatile
  3111                           
  3112                           ;lcd.c: 37: LATD4 = (data >> 4) & 1;
  3113   00110C  C015  F013         	movff	Lcd_Char@data,??_Lcd_Char
  3114   001110  3A13               	swapf	??_Lcd_Char^0,f,c
  3115   001112  0E0F               	movlw	15
  3116   001114  1613               	andwf	??_Lcd_Char^0,f,c
  3117   001116  3013               	rrcf	??_Lcd_Char^0,w,c
  3118   001118  A0D8               	btfss	status,0,c
  3119   00111A  D002               	goto	u3620
  3120   00111C  888C               	bsf	3980,4,c	;volatile
  3121   00111E  D001               	goto	u3635
  3122   001120                     u3620:
  3123   001120  988C               	bcf	3980,4,c	;volatile
  3124   001122                     u3635:
  3125                           
  3126                           ;lcd.c: 38: LATD5 = (data >> 5) & 1;
  3127   001122  C015  F013         	movff	Lcd_Char@data,??_Lcd_Char
  3128   001126  0E05               	movlw	5
  3129   001128  6E14               	movwf	(??_Lcd_Char+1)^0,c
  3130   00112A                     u3645:
  3131   00112A  90D8               	bcf	status,0,c
  3132   00112C  3213               	rrcf	??_Lcd_Char^0,f,c
  3133   00112E  2E14               	decfsz	(??_Lcd_Char+1)^0,f,c
  3134   001130  D7FC               	goto	u3645
  3135   001132  3013               	rrcf	??_Lcd_Char^0,w,c
  3136   001134  A0D8               	btfss	status,0,c
  3137   001136  D002               	goto	u3650
  3138   001138  8A8C               	bsf	3980,5,c	;volatile
  3139   00113A  D001               	goto	u3665
  3140   00113C                     u3650:
  3141   00113C  9A8C               	bcf	3980,5,c	;volatile
  3142   00113E                     u3665:
  3143                           
  3144                           ;lcd.c: 39: LATD6 = (data >> 6) & 1;
  3145   00113E  C015  F013         	movff	Lcd_Char@data,??_Lcd_Char
  3146   001142  0E06               	movlw	6
  3147   001144  6E14               	movwf	(??_Lcd_Char+1)^0,c
  3148   001146                     u3675:
  3149   001146  90D8               	bcf	status,0,c
  3150   001148  3213               	rrcf	??_Lcd_Char^0,f,c
  3151   00114A  2E14               	decfsz	(??_Lcd_Char+1)^0,f,c
  3152   00114C  D7FC               	goto	u3675
  3153   00114E  3013               	rrcf	??_Lcd_Char^0,w,c
  3154   001150  A0D8               	btfss	status,0,c
  3155   001152  D002               	goto	u3680
  3156   001154  8C8C               	bsf	3980,6,c	;volatile
  3157   001156  D001               	goto	u3695
  3158   001158                     u3680:
  3159   001158  9C8C               	bcf	3980,6,c	;volatile
  3160   00115A                     u3695:
  3161                           
  3162                           ;lcd.c: 40: LATD7 = (data >> 7) & 1;
  3163   00115A  6A13               	clrf	??_Lcd_Char^0,c
  3164   00115C  AE15               	btfss	Lcd_Char@data^0,7,c
  3165   00115E  D001               	bra	u3705
  3166   001160  2A13               	incf	??_Lcd_Char^0,f,c
  3167   001162                     u3705:
  3168   001162  3013               	rrcf	??_Lcd_Char^0,w,c
  3169   001164  A0D8               	btfss	status,0,c
  3170   001166  D002               	goto	u3710
  3171   001168  8E8C               	bsf	3980,7,c	;volatile
  3172   00116A  D001               	goto	u3725
  3173   00116C                     u3710:
  3174   00116C  9E8C               	bcf	3980,7,c	;volatile
  3175   00116E                     u3725:
  3176                           
  3177                           ;lcd.c: 41: LATA4 = 1; _delay((unsigned long)((200)*(1000000/4000000.0))); LATA4 = 0;
  3178   00116E  8889               	bsf	3977,4,c	;volatile
  3179   001170  0E10               	movlw	16
  3180   001172                     u4407:
  3181   001172  2EE8               	decfsz	wreg,f,c
  3182   001174  D7FE               	bra	u4407
  3183   001176  D000               	nop2	
  3184   001178  9889               	bcf	3977,4,c	;volatile
  3185                           
  3186                           ;lcd.c: 43: LATD4 = data & 1;
  3187   00117A  A015               	btfss	Lcd_Char@data^0,0,c
  3188   00117C  D002               	goto	u3730
  3189   00117E  888C               	bsf	3980,4,c	;volatile
  3190   001180  D001               	goto	u3745
  3191   001182                     u3730:
  3192   001182  988C               	bcf	3980,4,c	;volatile
  3193   001184                     u3745:
  3194                           
  3195                           ;lcd.c: 44: LATD5 = (data >> 1) & 1;
  3196   001184  C015  F013         	movff	Lcd_Char@data,??_Lcd_Char
  3197   001188  90D8               	bcf	status,0,c
  3198   00118A  3213               	rrcf	??_Lcd_Char^0,f,c
  3199   00118C  3013               	rrcf	??_Lcd_Char^0,w,c
  3200   00118E  A0D8               	btfss	status,0,c
  3201   001190  D002               	goto	u3750
  3202   001192  8A8C               	bsf	3980,5,c	;volatile
  3203   001194  D001               	goto	u3765
  3204   001196                     u3750:
  3205   001196  9A8C               	bcf	3980,5,c	;volatile
  3206   001198                     u3765:
  3207                           
  3208                           ;lcd.c: 45: LATD6 = (data >> 2) & 1;
  3209   001198  C015  F013         	movff	Lcd_Char@data,??_Lcd_Char
  3210   00119C  90D8               	bcf	status,0,c
  3211   00119E  3213               	rrcf	??_Lcd_Char^0,f,c
  3212   0011A0  90D8               	bcf	status,0,c
  3213   0011A2  3213               	rrcf	??_Lcd_Char^0,f,c
  3214   0011A4  3013               	rrcf	??_Lcd_Char^0,w,c
  3215   0011A6  A0D8               	btfss	status,0,c
  3216   0011A8  D002               	goto	u3770
  3217   0011AA  8C8C               	bsf	3980,6,c	;volatile
  3218   0011AC  D001               	goto	u3785
  3219   0011AE                     u3770:
  3220   0011AE  9C8C               	bcf	3980,6,c	;volatile
  3221   0011B0                     u3785:
  3222                           
  3223                           ;lcd.c: 46: LATD7 = (data >> 3) & 1;
  3224   0011B0  C015  F013         	movff	Lcd_Char@data,??_Lcd_Char
  3225   0011B4  90D8               	bcf	status,0,c
  3226   0011B6  3213               	rrcf	??_Lcd_Char^0,f,c
  3227   0011B8  90D8               	bcf	status,0,c
  3228   0011BA  3213               	rrcf	??_Lcd_Char^0,f,c
  3229   0011BC  90D8               	bcf	status,0,c
  3230   0011BE  3213               	rrcf	??_Lcd_Char^0,f,c
  3231   0011C0  3013               	rrcf	??_Lcd_Char^0,w,c
  3232   0011C2  A0D8               	btfss	status,0,c
  3233   0011C4  D002               	goto	u3790
  3234   0011C6  8E8C               	bsf	3980,7,c	;volatile
  3235   0011C8  D001               	goto	u3805
  3236   0011CA                     u3790:
  3237   0011CA  9E8C               	bcf	3980,7,c	;volatile
  3238   0011CC                     u3805:
  3239                           
  3240                           ;lcd.c: 47: LATA4 = 1; _delay((unsigned long)((200)*(1000000/4000000.0))); LATA4 = 0;
  3241   0011CC  8889               	bsf	3977,4,c	;volatile
  3242   0011CE  0E10               	movlw	16
  3243   0011D0                     u4417:
  3244   0011D0  2EE8               	decfsz	wreg,f,c
  3245   0011D2  D7FE               	bra	u4417
  3246   0011D4  D000               	nop2	
  3247   0011D6  9889               	bcf	3977,4,c	;volatile
  3248   0011D8  0012               	return		;funcret
  3249   0011DA                     __end_of_Lcd_Char:
  3250                           	callstack 0
  3251                           
  3252 ;; *************** function _Lcd_Set_Cursor *****************
  3253 ;; Defined at:
  3254 ;;		line 56 in file "lcd.c"
  3255 ;; Parameters:    Size  Location     Type
  3256 ;;  row             1    wreg     unsigned char 
  3257 ;;  column          1   21[COMRAM] unsigned char 
  3258 ;; Auto vars:     Size  Location     Type
  3259 ;;  row             1   22[COMRAM] unsigned char 
  3260 ;;  pos             1   23[COMRAM] unsigned char 
  3261 ;; Return value:  Size  Location     Type
  3262 ;;                  1    wreg      void 
  3263 ;; Registers used:
  3264 ;;		wreg, status,2, status,0, cstack
  3265 ;; Tracked objects:
  3266 ;;		On entry : 0/0
  3267 ;;		On exit  : 0/0
  3268 ;;		Unchanged: 0/0
  3269 ;; Data sizes:     COMRAM   BANK0   BANK1   BANK2   BANK3   BANK4   BANK5   BANK6   BANK7
  3270 ;;      Params:         1       0       0       0       0       0       0       0       0
  3271 ;;      Locals:         4       0       0       0       0       0       0       0       0
  3272 ;;      Temps:          0       0       0       0       0       0       0       0       0
  3273 ;;      Totals:         5       0       0       0       0       0       0       0       0
  3274 ;;Total ram usage:        5 bytes
  3275 ;; Hardware stack levels used: 1
  3276 ;; Hardware stack levels required when called: 5
  3277 ;; This function calls:
  3278 ;;		_Lcd_Cmd
  3279 ;; This function is called by:
  3280 ;;		_main
  3281 ;;		_mostrar_conteo
  3282 ;;		_mostrar_valor
  3283 ;;		_mostrar_completado
  3284 ;;		_emergencia
  3285 ;;		_lcd_animacion_bienvenida
  3286 ;; This function uses a non-reentrant model
  3287 ;;
  3288                           
  3289                           	psect	text16
  3290   0019FC                     __ptext16:
  3291                           	callstack 0
  3292   0019FC                     _Lcd_Set_Cursor:
  3293                           	callstack 24
  3294                           
  3295                           ;incstack = 0
  3296                           ;Lcd_Set_Cursor@row stored from wreg
  3297   0019FC  6E17               	movwf	Lcd_Set_Cursor@row^0,c
  3298                           
  3299                           ;lcd.c: 57: char pos = (row == 1) ? 0x80 + (column - 1) : 0xC0 + (column - 1);
  3300   0019FE  0417               	decf	Lcd_Set_Cursor@row^0,w,c
  3301   001A00  B4D8               	btfsc	status,2,c
  3302   001A02  D002               	goto	l2894
  3303   001A04  0EBF               	movlw	191
  3304   001A06  D001               	goto	L1
  3305   001A08                     l2894:
  3306   001A08  0E7F               	movlw	127
  3307   001A0A                     L1:
  3308   001A0A  2416               	addwf	Lcd_Set_Cursor@column^0,w,c
  3309   001A0C  6E19               	movwf	_Lcd_Set_Cursor$120^0,c
  3310   001A0E  6A1A               	clrf	(_Lcd_Set_Cursor$120+1)^0,c
  3311   001A10  0E00               	movlw	0
  3312   001A12  221A               	addwfc	(_Lcd_Set_Cursor$120+1)^0,f,c
  3313   001A14  C019  F018         	movff	_Lcd_Set_Cursor$120,Lcd_Set_Cursor@pos
  3314                           
  3315                           ;lcd.c: 58: Lcd_Cmd(pos);
  3316   001A18  5018               	movf	Lcd_Set_Cursor@pos^0,w,c
  3317   001A1A  ECED  F008         	call	_Lcd_Cmd
  3318   001A1E  0012               	return		;funcret
  3319   001A20                     __end_of_Lcd_Set_Cursor:
  3320                           	callstack 0
  3321                           
  3322 ;; *************** function _Lcd_Init *****************
  3323 ;; Defined at:
  3324 ;;		line 3 in file "lcd.c"
  3325 ;; Parameters:    Size  Location     Type
  3326 ;;		None
  3327 ;; Auto vars:     Size  Location     Type
  3328 ;;		None
  3329 ;; Return value:  Size  Location     Type
  3330 ;;                  1    wreg      void 
  3331 ;; Registers used:
  3332 ;;		wreg, status,2, status,0, cstack
  3333 ;; Tracked objects:
  3334 ;;		On entry : 0/0
  3335 ;;		On exit  : 0/0
  3336 ;;		Unchanged: 0/0
  3337 ;; Data sizes:     COMRAM   BANK0   BANK1   BANK2   BANK3   BANK4   BANK5   BANK6   BANK7
  3338 ;;      Params:         0       0       0       0       0       0       0       0       0
  3339 ;;      Locals:         0       0       0       0       0       0       0       0       0
  3340 ;;      Temps:          1       0       0       0       0       0       0       0       0
  3341 ;;      Totals:         1       0       0       0       0       0       0       0       0
  3342 ;;Total ram usage:        1 bytes
  3343 ;; Hardware stack levels used: 1
  3344 ;; Hardware stack levels required when called: 6
  3345 ;; This function calls:
  3346 ;;		_Lcd_Clear
  3347 ;;		_Lcd_Cmd
  3348 ;; This function is called by:
  3349 ;;		_main
  3350 ;; This function uses a non-reentrant model
  3351 ;;
  3352                           
  3353                           	psect	text17
  3354   00179C                     __ptext17:
  3355                           	callstack 0
  3356   00179C                     _Lcd_Init:
  3357                           	callstack 24
  3358                           
  3359                           ;lcd.c: 4: TRISD = 0;
  3360                           
  3361                           ;incstack = 0
  3362   00179C  6A95               	clrf	149,c	;volatile
  3363                           
  3364                           ;lcd.c: 5: LATD = 0;
  3365   00179E  6A8C               	clrf	140,c	;volatile
  3366                           
  3367                           ;lcd.c: 6: TRISA = 0b00000101;
  3368   0017A0  0E05               	movlw	5
  3369   0017A2  6E92               	movwf	146,c	;volatile
  3370                           
  3371                           ;lcd.c: 7: LATA = 0;
  3372   0017A4  6A89               	clrf	137,c	;volatile
  3373                           
  3374                           ;lcd.c: 8: TRISA5 = 0;
  3375   0017A6  9A92               	bcf	3986,5,c	;volatile
  3376                           
  3377                           ;lcd.c: 9: LATA5 = 1;
  3378   0017A8  8A89               	bsf	3977,5,c	;volatile
  3379                           
  3380                           ;lcd.c: 10: _delay((unsigned long)((100)*(1000000/4000.0)));
  3381   0017AA  0E21               	movlw	33
  3382   0017AC  6E16               	movwf	??_Lcd_Init^0,c
  3383   0017AE  0E76               	movlw	118
  3384   0017B0                     u4427:
  3385   0017B0  2EE8               	decfsz	wreg,f,c
  3386   0017B2  D7FE               	bra	u4427
  3387   0017B4  2E16               	decfsz	??_Lcd_Init^0,f,c
  3388   0017B6  D7FC               	bra	u4427
  3389   0017B8  D000               	nop2	
  3390                           
  3391                           ;lcd.c: 11: Lcd_Cmd(0x02);
  3392   0017BA  0E02               	movlw	2
  3393   0017BC  ECED  F008         	call	_Lcd_Cmd
  3394                           
  3395                           ;lcd.c: 12: Lcd_Cmd(0x28);
  3396   0017C0  0E28               	movlw	40
  3397   0017C2  ECED  F008         	call	_Lcd_Cmd
  3398                           
  3399                           ;lcd.c: 13: Lcd_Cmd(0x0C);
  3400   0017C6  0E0C               	movlw	12
  3401   0017C8  ECED  F008         	call	_Lcd_Cmd
  3402                           
  3403                           ;lcd.c: 14: Lcd_Cmd(0x06);
  3404   0017CC  0E06               	movlw	6
  3405   0017CE  ECED  F008         	call	_Lcd_Cmd
  3406                           
  3407                           ;lcd.c: 15: Lcd_Cmd(0x01);
  3408   0017D2  0E01               	movlw	1
  3409   0017D4  ECED  F008         	call	_Lcd_Cmd
  3410                           
  3411                           ;lcd.c: 16: _delay((unsigned long)((100)*(1000000/4000.0)));
  3412   0017D8  0E21               	movlw	33
  3413   0017DA  6E16               	movwf	??_Lcd_Init^0,c
  3414   0017DC  0E76               	movlw	118
  3415   0017DE                     u4437:
  3416   0017DE  2EE8               	decfsz	wreg,f,c
  3417   0017E0  D7FE               	bra	u4437
  3418   0017E2  2E16               	decfsz	??_Lcd_Init^0,f,c
  3419   0017E4  D7FC               	bra	u4437
  3420   0017E6  D000               	nop2	
  3421                           
  3422                           ;lcd.c: 17: Lcd_Clear();
  3423   0017E8  EC4C  F00D         	call	_Lcd_Clear	;wreg free
  3424   0017EC  0012               	return		;funcret
  3425   0017EE                     __end_of_Lcd_Init:
  3426                           	callstack 0
  3427                           
  3428 ;; *************** function _Lcd_Clear *****************
  3429 ;; Defined at:
  3430 ;;		line 61 in file "lcd.c"
  3431 ;; Parameters:    Size  Location     Type
  3432 ;;		None
  3433 ;; Auto vars:     Size  Location     Type
  3434 ;;		None
  3435 ;; Return value:  Size  Location     Type
  3436 ;;                  1    wreg      void 
  3437 ;; Registers used:
  3438 ;;		wreg, status,2, status,0, cstack
  3439 ;; Tracked objects:
  3440 ;;		On entry : 0/0
  3441 ;;		On exit  : 0/0
  3442 ;;		Unchanged: 0/0
  3443 ;; Data sizes:     COMRAM   BANK0   BANK1   BANK2   BANK3   BANK4   BANK5   BANK6   BANK7
  3444 ;;      Params:         0       0       0       0       0       0       0       0       0
  3445 ;;      Locals:         0       0       0       0       0       0       0       0       0
  3446 ;;      Temps:          0       0       0       0       0       0       0       0       0
  3447 ;;      Totals:         0       0       0       0       0       0       0       0       0
  3448 ;;Total ram usage:        0 bytes
  3449 ;; Hardware stack levels used: 1
  3450 ;; Hardware stack levels required when called: 5
  3451 ;; This function calls:
  3452 ;;		_Lcd_Cmd
  3453 ;; This function is called by:
  3454 ;;		_Lcd_Init
  3455 ;;		_main
  3456 ;;		_mostrar_conteo
  3457 ;;		_mostrar_valor
  3458 ;;		_mostrar_completado
  3459 ;;		_emergencia
  3460 ;;		_lcd_animacion_bienvenida
  3461 ;; This function uses a non-reentrant model
  3462 ;;
  3463                           
  3464                           	psect	text18
  3465   001A98                     __ptext18:
  3466                           	callstack 0
  3467   001A98                     _Lcd_Clear:
  3468                           	callstack 24
  3469                           
  3470                           ;lcd.c: 62: Lcd_Cmd(0x01);
  3471                           
  3472                           ;incstack = 0
  3473   001A98  0E01               	movlw	1
  3474   001A9A  ECED  F008         	call	_Lcd_Cmd
  3475                           
  3476                           ;lcd.c: 63: _delay((unsigned long)((2)*(1000000/4000.0)));
  3477   001A9E  0EA6               	movlw	166
  3478   001AA0                     u4447:
  3479   001AA0  2EE8               	decfsz	wreg,f,c
  3480   001AA2  D7FE               	bra	u4447
  3481   001AA4  D000               	nop2	
  3482   001AA6  0012               	return		;funcret
  3483   001AA8                     __end_of_Lcd_Clear:
  3484                           	callstack 0
  3485                           
  3486 ;; *************** function _Lcd_Cmd *****************
  3487 ;; Defined at:
  3488 ;;		line 20 in file "lcd.c"
  3489 ;; Parameters:    Size  Location     Type
  3490 ;;  cmd             1    wreg     unsigned char 
  3491 ;; Auto vars:     Size  Location     Type
  3492 ;;  cmd             1   20[COMRAM] unsigned char 
  3493 ;; Return value:  Size  Location     Type
  3494 ;;                  1    wreg      void 
  3495 ;; Registers used:
  3496 ;;		wreg, status,2, status,0
  3497 ;; Tracked objects:
  3498 ;;		On entry : 0/0
  3499 ;;		On exit  : 0/0
  3500 ;;		Unchanged: 0/0
  3501 ;; Data sizes:     COMRAM   BANK0   BANK1   BANK2   BANK3   BANK4   BANK5   BANK6   BANK7
  3502 ;;      Params:         0       0       0       0       0       0       0       0       0
  3503 ;;      Locals:         1       0       0       0       0       0       0       0       0
  3504 ;;      Temps:          2       0       0       0       0       0       0       0       0
  3505 ;;      Totals:         3       0       0       0       0       0       0       0       0
  3506 ;;Total ram usage:        3 bytes
  3507 ;; Hardware stack levels used: 1
  3508 ;; Hardware stack levels required when called: 4
  3509 ;; This function calls:
  3510 ;;		Nothing
  3511 ;; This function is called by:
  3512 ;;		_Lcd_Init
  3513 ;;		_Lcd_Set_Cursor
  3514 ;;		_Lcd_Clear
  3515 ;;		_LCD_CrearCaracter
  3516 ;; This function uses a non-reentrant model
  3517 ;;
  3518                           
  3519                           	psect	text19
  3520   0011DA                     __ptext19:
  3521                           	callstack 0
  3522   0011DA                     _Lcd_Cmd:
  3523                           	callstack 24
  3524                           
  3525                           ;incstack = 0
  3526                           ;Lcd_Cmd@cmd stored from wreg
  3527   0011DA  6E15               	movwf	Lcd_Cmd@cmd^0,c
  3528                           
  3529                           ;lcd.c: 21: LATA3 = 0;
  3530   0011DC  9689               	bcf	3977,3,c	;volatile
  3531                           
  3532                           ;lcd.c: 22: LATD4 = (cmd >> 4) & 1;
  3533   0011DE  C015  F013         	movff	Lcd_Cmd@cmd,??_Lcd_Cmd
  3534   0011E2  3A13               	swapf	??_Lcd_Cmd^0,f,c
  3535   0011E4  0E0F               	movlw	15
  3536   0011E6  1613               	andwf	??_Lcd_Cmd^0,f,c
  3537   0011E8  3013               	rrcf	??_Lcd_Cmd^0,w,c
  3538   0011EA  A0D8               	btfss	status,0,c
  3539   0011EC  D002               	goto	u3430
  3540   0011EE  888C               	bsf	3980,4,c	;volatile
  3541   0011F0  D001               	goto	u3445
  3542   0011F2                     u3430:
  3543   0011F2  988C               	bcf	3980,4,c	;volatile
  3544   0011F4                     u3445:
  3545                           
  3546                           ;lcd.c: 23: LATD5 = (cmd >> 5) & 1;
  3547   0011F4  C015  F013         	movff	Lcd_Cmd@cmd,??_Lcd_Cmd
  3548   0011F8  0E05               	movlw	5
  3549   0011FA  6E14               	movwf	(??_Lcd_Cmd+1)^0,c
  3550   0011FC                     u3455:
  3551   0011FC  90D8               	bcf	status,0,c
  3552   0011FE  3213               	rrcf	??_Lcd_Cmd^0,f,c
  3553   001200  2E14               	decfsz	(??_Lcd_Cmd+1)^0,f,c
  3554   001202  D7FC               	goto	u3455
  3555   001204  3013               	rrcf	??_Lcd_Cmd^0,w,c
  3556   001206  A0D8               	btfss	status,0,c
  3557   001208  D002               	goto	u3460
  3558   00120A  8A8C               	bsf	3980,5,c	;volatile
  3559   00120C  D001               	goto	u3475
  3560   00120E                     u3460:
  3561   00120E  9A8C               	bcf	3980,5,c	;volatile
  3562   001210                     u3475:
  3563                           
  3564                           ;lcd.c: 24: LATD6 = (cmd >> 6) & 1;
  3565   001210  C015  F013         	movff	Lcd_Cmd@cmd,??_Lcd_Cmd
  3566   001214  0E06               	movlw	6
  3567   001216  6E14               	movwf	(??_Lcd_Cmd+1)^0,c
  3568   001218                     u3485:
  3569   001218  90D8               	bcf	status,0,c
  3570   00121A  3213               	rrcf	??_Lcd_Cmd^0,f,c
  3571   00121C  2E14               	decfsz	(??_Lcd_Cmd+1)^0,f,c
  3572   00121E  D7FC               	goto	u3485
  3573   001220  3013               	rrcf	??_Lcd_Cmd^0,w,c
  3574   001222  A0D8               	btfss	status,0,c
  3575   001224  D002               	goto	u3490
  3576   001226  8C8C               	bsf	3980,6,c	;volatile
  3577   001228  D001               	goto	u3505
  3578   00122A                     u3490:
  3579   00122A  9C8C               	bcf	3980,6,c	;volatile
  3580   00122C                     u3505:
  3581                           
  3582                           ;lcd.c: 25: LATD7 = (cmd >> 7) & 1;
  3583   00122C  6A13               	clrf	??_Lcd_Cmd^0,c
  3584   00122E  AE15               	btfss	Lcd_Cmd@cmd^0,7,c
  3585   001230  D001               	bra	u3515
  3586   001232  2A13               	incf	??_Lcd_Cmd^0,f,c
  3587   001234                     u3515:
  3588   001234  3013               	rrcf	??_Lcd_Cmd^0,w,c
  3589   001236  A0D8               	btfss	status,0,c
  3590   001238  D002               	goto	u3520
  3591   00123A  8E8C               	bsf	3980,7,c	;volatile
  3592   00123C  D001               	goto	u3535
  3593   00123E                     u3520:
  3594   00123E  9E8C               	bcf	3980,7,c	;volatile
  3595   001240                     u3535:
  3596                           
  3597                           ;lcd.c: 26: LATA4 = 1; _delay((unsigned long)((2)*(1000000/4000.0))); LATA4 = 0;
  3598   001240  8889               	bsf	3977,4,c	;volatile
  3599   001242  0EA6               	movlw	166
  3600   001244                     u4457:
  3601   001244  2EE8               	decfsz	wreg,f,c
  3602   001246  D7FE               	bra	u4457
  3603   001248  D000               	nop2	
  3604   00124A  9889               	bcf	3977,4,c	;volatile
  3605                           
  3606                           ;lcd.c: 28: LATD4 = cmd & 1;
  3607   00124C  A015               	btfss	Lcd_Cmd@cmd^0,0,c
  3608   00124E  D002               	goto	u3540
  3609   001250  888C               	bsf	3980,4,c	;volatile
  3610   001252  D001               	goto	u3555
  3611   001254                     u3540:
  3612   001254  988C               	bcf	3980,4,c	;volatile
  3613   001256                     u3555:
  3614                           
  3615                           ;lcd.c: 29: LATD5 = (cmd >> 1) & 1;
  3616   001256  C015  F013         	movff	Lcd_Cmd@cmd,??_Lcd_Cmd
  3617   00125A  90D8               	bcf	status,0,c
  3618   00125C  3213               	rrcf	??_Lcd_Cmd^0,f,c
  3619   00125E  3013               	rrcf	??_Lcd_Cmd^0,w,c
  3620   001260  A0D8               	btfss	status,0,c
  3621   001262  D002               	goto	u3560
  3622   001264  8A8C               	bsf	3980,5,c	;volatile
  3623   001266  D001               	goto	u3575
  3624   001268                     u3560:
  3625   001268  9A8C               	bcf	3980,5,c	;volatile
  3626   00126A                     u3575:
  3627                           
  3628                           ;lcd.c: 30: LATD6 = (cmd >> 2) & 1;
  3629   00126A  C015  F013         	movff	Lcd_Cmd@cmd,??_Lcd_Cmd
  3630   00126E  90D8               	bcf	status,0,c
  3631   001270  3213               	rrcf	??_Lcd_Cmd^0,f,c
  3632   001272  90D8               	bcf	status,0,c
  3633   001274  3213               	rrcf	??_Lcd_Cmd^0,f,c
  3634   001276  3013               	rrcf	??_Lcd_Cmd^0,w,c
  3635   001278  A0D8               	btfss	status,0,c
  3636   00127A  D002               	goto	u3580
  3637   00127C  8C8C               	bsf	3980,6,c	;volatile
  3638   00127E  D001               	goto	u3595
  3639   001280                     u3580:
  3640   001280  9C8C               	bcf	3980,6,c	;volatile
  3641   001282                     u3595:
  3642                           
  3643                           ;lcd.c: 31: LATD7 = (cmd >> 3) & 1;
  3644   001282  C015  F013         	movff	Lcd_Cmd@cmd,??_Lcd_Cmd
  3645   001286  90D8               	bcf	status,0,c
  3646   001288  3213               	rrcf	??_Lcd_Cmd^0,f,c
  3647   00128A  90D8               	bcf	status,0,c
  3648   00128C  3213               	rrcf	??_Lcd_Cmd^0,f,c
  3649   00128E  90D8               	bcf	status,0,c
  3650   001290  3213               	rrcf	??_Lcd_Cmd^0,f,c
  3651   001292  3013               	rrcf	??_Lcd_Cmd^0,w,c
  3652   001294  A0D8               	btfss	status,0,c
  3653   001296  D002               	goto	u3600
  3654   001298  8E8C               	bsf	3980,7,c	;volatile
  3655   00129A  D001               	goto	u3615
  3656   00129C                     u3600:
  3657   00129C  9E8C               	bcf	3980,7,c	;volatile
  3658   00129E                     u3615:
  3659                           
  3660                           ;lcd.c: 32: LATA4 = 1; _delay((unsigned long)((2)*(1000000/4000.0))); LATA4 = 0;
  3661   00129E  8889               	bsf	3977,4,c	;volatile
  3662   0012A0  0EA6               	movlw	166
  3663   0012A2                     u4467:
  3664   0012A2  2EE8               	decfsz	wreg,f,c
  3665   0012A4  D7FE               	bra	u4467
  3666   0012A6  D000               	nop2	
  3667   0012A8  9889               	bcf	3977,4,c	;volatile
  3668   0012AA  0012               	return		;funcret
  3669   0012AC                     __end_of_Lcd_Cmd:
  3670                           	callstack 0
  3671                           
  3672 ;; *************** function _ISR *****************
  3673 ;; Defined at:
  3674 ;;		line 224 in file "laboratorio_4.c"
  3675 ;; Parameters:    Size  Location     Type
  3676 ;;		None
  3677 ;; Auto vars:     Size  Location     Type
  3678 ;;		None
  3679 ;; Return value:  Size  Location     Type
  3680 ;;                  1    wreg      void 
  3681 ;; Registers used:
  3682 ;;		wreg, status,2, status,0, tblptrl, tblptrh, tblptru, cstack
  3683 ;; Tracked objects:
  3684 ;;		On entry : 0/0
  3685 ;;		On exit  : 0/0
  3686 ;;		Unchanged: 0/0
  3687 ;; Data sizes:     COMRAM   BANK0   BANK1   BANK2   BANK3   BANK4   BANK5   BANK6   BANK7
  3688 ;;      Params:         0       0       0       0       0       0       0       0       0
  3689 ;;      Locals:         0       0       0       0       0       0       0       0       0
  3690 ;;      Temps:          5       0       0       0       0       0       0       0       0
  3691 ;;      Totals:         5       0       0       0       0       0       0       0       0
  3692 ;;Total ram usage:        5 bytes
  3693 ;; Hardware stack levels used: 1
  3694 ;; Hardware stack levels required when called: 3
  3695 ;; This function calls:
  3696 ;;		i2_Lcd_Clear
  3697 ;;		i2___lwdiv
  3698 ;;		i2___lwmod
  3699 ;;		i2_color
  3700 ;;		i2_mostrar_completado
  3701 ;;		i2_mostrar_conteo
  3702 ;;		i2_mostrar_valor
  3703 ;;		i2_unidad
  3704 ;; This function is called by:
  3705 ;;		Interrupt level 2
  3706 ;; This function uses a non-reentrant model
  3707 ;;
  3708                           
  3709                           	psect	intcode
  3710   000008                     __pintcode:
  3711                           	callstack 0
  3712   000008                     _ISR:
  3713                           	callstack 24
  3714                           
  3715                           ;incstack = 0
  3716   000008  824D               	bsf	btemp,1,c	;set compiler interrupt flag (level 2)
  3717   00000A  EDC4  F006         	call	int_func,f	;refresh shadow registers
  3718                           
  3719                           	psect	intcode_body
  3720   000D88                     __pintcode_body:
  3721                           	callstack 24
  3722   000D88                     int_func:
  3723                           	callstack 24
  3724   000D88  0006               	pop		; remove dummy address from shadow register refresh
  3725   000D8A  CFF6 F00F          	movff	tblptrl,??_ISR+1
  3726   000D8E  CFF7 F010          	movff	tblptrh,??_ISR+2
  3727   000D92  CFF8 F011          	movff	tblptru,??_ISR+3
  3728   000D96  CFF5 F012          	movff	tablat,??_ISR+4
  3729                           
  3730                           ;laboratorio_4.c: 225: if (RBIF == 1) {
  3731   000D9A  A0F2               	btfss	4082,0,c	;volatile
  3732   000D9C  D05C               	goto	i2l2768
  3733                           
  3734                           ;laboratorio_4.c: 226: if (PORTB != 0b11110000) {
  3735   000D9E  0EF0               	movlw	240
  3736   000DA0  1881               	xorwf	129,w,c	;volatile
  3737   000DA2  B4D8               	btfsc	status,2,c
  3738   000DA4  D04B               	goto	i2l2762
  3739                           
  3740                           ;laboratorio_4.c: 227: Tecla = 0;
  3741   000DA6  6A4B               	clrf	_Tecla^0,c	;volatile
  3742                           
  3743                           ;laboratorio_4.c: 228: LATB = 0b11111110;
  3744   000DA8  0EFE               	movlw	254
  3745   000DAA  6E8A               	movwf	138,c	;volatile
  3746                           
  3747                           ;laboratorio_4.c: 229: if (RB4 == 0) Tecla = 1;
  3748   000DAC  B881               	btfsc	3969,4,c	;volatile
  3749   000DAE  D002               	goto	i2l199
  3750   000DB0  0E01               	movlw	1
  3751   000DB2  D041               	goto	L16
  3752   000DB4                     i2l199:
  3753                           
  3754                           ;laboratorio_4.c: 230: else if (RB5 == 0) Tecla = 2;
  3755   000DB4  BA81               	btfsc	3969,5,c	;volatile
  3756   000DB6  D002               	goto	i2l201
  3757   000DB8  0E02               	movlw	2
  3758   000DBA  D03D               	goto	L16
  3759   000DBC                     i2l201:
  3760                           
  3761                           ;laboratorio_4.c: 231: else if (RB6 == 0) Tecla = 3;
  3762   000DBC  BC81               	btfsc	3969,6,c	;volatile
  3763   000DBE  D002               	goto	i2l203
  3764   000DC0  0E03               	movlw	3
  3765   000DC2  D039               	goto	L16
  3766   000DC4                     i2l203:
  3767                           
  3768                           ;laboratorio_4.c: 232: else if (RB7 == 0) Tecla = 4;
  3769   000DC4  BE81               	btfsc	3969,7,c	;volatile
  3770   000DC6  D002               	goto	i2l2726
  3771   000DC8  0E04               	movlw	4
  3772   000DCA  D035               	goto	L16
  3773   000DCC                     i2l2726:
  3774                           
  3775                           ;laboratorio_4.c: 233: else {;laboratorio_4.c: 234: LATB = 0b11111101;
  3776   000DCC  0EFD               	movlw	253
  3777   000DCE  6E8A               	movwf	138,c	;volatile
  3778                           
  3779                           ;laboratorio_4.c: 235: if (RB4 == 0) Tecla = 5;
  3780   000DD0  B881               	btfsc	3969,4,c	;volatile
  3781   000DD2  D002               	goto	i2l207
  3782   000DD4  0E05               	movlw	5
  3783   000DD6  D02F               	goto	L16
  3784   000DD8                     i2l207:
  3785                           
  3786                           ;laboratorio_4.c: 236: else if (RB5 == 0) Tecla = 6;
  3787   000DD8  BA81               	btfsc	3969,5,c	;volatile
  3788   000DDA  D002               	goto	i2l209
  3789   000DDC  0E06               	movlw	6
  3790   000DDE  D02B               	goto	L16
  3791   000DE0                     i2l209:
  3792                           
  3793                           ;laboratorio_4.c: 237: else if (RB6 == 0) Tecla = 7;
  3794   000DE0  BC81               	btfsc	3969,6,c	;volatile
  3795   000DE2  D002               	goto	i2l211
  3796   000DE4  0E07               	movlw	7
  3797   000DE6  D027               	goto	L16
  3798   000DE8                     i2l211:
  3799                           
  3800                           ;laboratorio_4.c: 238: else if (RB7 == 0) Tecla = 8;
  3801   000DE8  BE81               	btfsc	3969,7,c	;volatile
  3802   000DEA  D002               	goto	i2l2738
  3803   000DEC  0E08               	movlw	8
  3804   000DEE  D023               	goto	L16
  3805   000DF0                     i2l2738:
  3806                           
  3807                           ;laboratorio_4.c: 239: else {;laboratorio_4.c: 240: LATB = 0b11111011;
  3808   000DF0  0EFB               	movlw	251
  3809   000DF2  6E8A               	movwf	138,c	;volatile
  3810                           
  3811                           ;laboratorio_4.c: 241: if (RB4 == 0) Tecla = 9;
  3812   000DF4  B881               	btfsc	3969,4,c	;volatile
  3813   000DF6  D002               	goto	i2l215
  3814   000DF8  0E09               	movlw	9
  3815   000DFA  D01D               	goto	L16
  3816   000DFC                     i2l215:
  3817                           
  3818                           ;laboratorio_4.c: 242: else if (RB5 == 0) Tecla = 10;
  3819   000DFC  BA81               	btfsc	3969,5,c	;volatile
  3820   000DFE  D002               	goto	i2l217
  3821   000E00  0E0A               	movlw	10
  3822   000E02  D019               	goto	L16
  3823   000E04                     i2l217:
  3824                           
  3825                           ;laboratorio_4.c: 243: else if (RB6 == 0) Tecla = 11;
  3826   000E04  BC81               	btfsc	3969,6,c	;volatile
  3827   000E06  D002               	goto	i2l219
  3828   000E08  0E0B               	movlw	11
  3829   000E0A  D015               	goto	L16
  3830   000E0C                     i2l219:
  3831                           
  3832                           ;laboratorio_4.c: 244: else if (RB7 == 0) Tecla = 12;
  3833   000E0C  BE81               	btfsc	3969,7,c	;volatile
  3834   000E0E  D002               	goto	i2l2750
  3835   000E10  0E0C               	movlw	12
  3836   000E12  D011               	goto	L16
  3837   000E14                     i2l2750:
  3838                           
  3839                           ;laboratorio_4.c: 245: else {;laboratorio_4.c: 246: LATB = 0b11110111;
  3840   000E14  0EF7               	movlw	247
  3841   000E16  6E8A               	movwf	138,c	;volatile
  3842                           
  3843                           ;laboratorio_4.c: 247: if (RB4 == 0) Tecla = 13;
  3844   000E18  B881               	btfsc	3969,4,c	;volatile
  3845   000E1A  D002               	goto	i2l223
  3846   000E1C  0E0D               	movlw	13
  3847   000E1E  D00B               	goto	L16
  3848   000E20                     i2l223:
  3849                           
  3850                           ;laboratorio_4.c: 248: else if (RB5 == 0) Tecla = 14;
  3851   000E20  BA81               	btfsc	3969,5,c	;volatile
  3852   000E22  D002               	goto	i2l225
  3853   000E24  0E0E               	movlw	14
  3854   000E26  D007               	goto	L16
  3855   000E28                     i2l225:
  3856                           
  3857                           ;laboratorio_4.c: 249: else if (RB6 == 0) Tecla = 15;
  3858   000E28  BC81               	btfsc	3969,6,c	;volatile
  3859   000E2A  D002               	goto	i2l227
  3860   000E2C  0E0F               	movlw	15
  3861   000E2E  D003               	goto	L16
  3862   000E30                     i2l227:
  3863                           
  3864                           ;laboratorio_4.c: 250: else if (RB7 == 0) Tecla = 16;
  3865   000E30  BE81               	btfsc	3969,7,c	;volatile
  3866   000E32  D002               	goto	i2l224
  3867   000E34  0E10               	movlw	16
  3868   000E36                     L16:
  3869   000E36  6E4B               	movwf	_Tecla^0,c	;volatile
  3870   000E38                     i2l224:
  3871                           
  3872                           ;laboratorio_4.c: 251: };laboratorio_4.c: 252: };laboratorio_4.c: 253: };laboratorio_4.c
      +                          : 254: LATB = 0b11110000;
  3873   000E38  0EF0               	movlw	240
  3874   000E3A  6E8A               	movwf	138,c	;volatile
  3875   000E3C                     i2l2762:
  3876                           
  3877                           ;laboratorio_4.c: 255: };laboratorio_4.c: 256: _delay((unsigned long)((100)*(1000000/400
      +                          0.0)));
  3878   000E3C  0E21               	movlw	33
  3879   000E3E  6E0E               	movwf	??_ISR^0,c
  3880   000E40  0E76               	movlw	118
  3881   000E42                     i2u447_47:
  3882   000E42  2EE8               	decfsz	wreg,f,c
  3883   000E44  D7FE               	bra	i2u447_47
  3884   000E46  2E0E               	decfsz	??_ISR^0,f,c
  3885   000E48  D7FC               	bra	i2u447_47
  3886   000E4A  D000               	nop2	
  3887                           
  3888                           ;laboratorio_4.c: 257: RBIF = 0;
  3889   000E4C  90F2               	bcf	4082,0,c	;volatile
  3890                           
  3891                           ;laboratorio_4.c: 258: inactividad = 0;
  3892   000E4E  0E00               	movlw	0
  3893   000E50  6E41               	movwf	(_inactividad+1)^0,c
  3894   000E52  0E00               	movlw	0
  3895   000E54  6E40               	movwf	_inactividad^0,c
  3896   000E56                     i2l2768:
  3897                           
  3898                           ;laboratorio_4.c: 259: };laboratorio_4.c: 261: if (TMR0IF) {
  3899   000E56  A4F2               	btfss	4082,2,c	;volatile
  3900   000E58  D05B               	goto	i2l232
  3901                           
  3902                           ;laboratorio_4.c: 262: TMR0 = 3036;
  3903   000E5A  0E0B               	movlw	11
  3904   000E5C  6ED7               	movwf	215,c	;volatile
  3905   000E5E  0EDC               	movlw	220
  3906   000E60  6ED6               	movwf	214,c	;volatile
  3907                           
  3908                           ;laboratorio_4.c: 263: TMR0IF = 0;
  3909   000E62  94F2               	bcf	4082,2,c	;volatile
  3910                           
  3911                           ;laboratorio_4.c: 264: LATA1 ^= 1;
  3912   000E64  7289               	btg	3977,1,c	;volatile
  3913                           
  3914                           ;laboratorio_4.c: 265: inactividad++;
  3915   000E66  4A40               	infsnz	_inactividad^0,f,c
  3916   000E68  2A41               	incf	(_inactividad+1)^0,f,c
  3917                           
  3918                           ;laboratorio_4.c: 267: if (inactividad == 20) {
  3919   000E6A  0E14               	movlw	20
  3920   000E6C  1840               	xorwf	_inactividad^0,w,c
  3921   000E6E  1041               	iorwf	(_inactividad+1)^0,w,c
  3922   000E70  A4D8               	btfss	status,2,c
  3923   000E72  D002               	goto	i2l2782
  3924                           
  3925                           ;laboratorio_4.c: 268: lcd_backlight = 0;
  3926   000E74  6A4C               	clrf	_lcd_backlight^0,c
  3927                           
  3928                           ;laboratorio_4.c: 269: LATA5 = 0;
  3929   000E76  9A89               	bcf	3977,5,c	;volatile
  3930   000E78                     i2l2782:
  3931                           
  3932                           ;laboratorio_4.c: 270: };laboratorio_4.c: 272: if (inactividad >= 40) {
  3933   000E78  5041               	movf	(_inactividad+1)^0,w,c
  3934   000E7A  E104               	bnz	i2u339_40
  3935   000E7C  0E28               	movlw	40
  3936   000E7E  5C40               	subwf	_inactividad^0,w,c
  3937   000E80  A0D8               	btfss	status,0,c
  3938   000E82  D046               	goto	i2l232
  3939   000E84                     i2u339_40:
  3940                           
  3941                           ;laboratorio_4.c: 273: Lcd_Clear();
  3942   000E84  EC54  F00D         	call	i2_Lcd_Clear	;wreg free
  3943                           
  3944                           ;laboratorio_4.c: 274: LATE = 0;
  3945   000E88  6A8D               	clrf	141,c	;volatile
  3946                           
  3947                           ;laboratorio_4.c: 275: LATD = 0;
  3948   000E8A  6A8C               	clrf	140,c	;volatile
  3949                           
  3950                           ;laboratorio_4.c: 276: LATA5 = 0;
  3951   000E8C  9A89               	bcf	3977,5,c	;volatile
  3952                           
  3953                           ;laboratorio_4.c: 278: TMR0IE = 0;
  3954   000E8E  9AF2               	bcf	4082,5,c	;volatile
  3955                           
  3956                           ;laboratorio_4.c: 279: RBIE = 1;
  3957   000E90  86F2               	bsf	4082,3,c	;volatile
  3958                           
  3959                           ;laboratorio_4.c: 280: RBIF = 0;
  3960   000E92  90F2               	bcf	4082,0,c	;volatile
  3961   000E94  0003               	sleep		;# 
  3962                           
  3963                           ;laboratorio_4.c: 285: inactividad = 0;
  3964   000E96  0E00               	movlw	0
  3965   000E98  6E41               	movwf	(_inactividad+1)^0,c
  3966   000E9A  0E00               	movlw	0
  3967   000E9C  6E40               	movwf	_inactividad^0,c
  3968                           
  3969                           ;laboratorio_4.c: 286: color(contador/10);
  3970   000E9E  C044  F001         	movff	_contador,i2___lwdiv@dividend
  3971   000EA2  C045  F002         	movff	_contador+1,i2___lwdiv@dividend+1
  3972   000EA6  0E00               	movlw	0
  3973   000EA8  6E04               	movwf	(i2___lwdiv@divisor+1)^0,c
  3974   000EAA  0E0A               	movlw	10
  3975   000EAC  6E03               	movwf	i2___lwdiv@divisor^0,c
  3976   000EAE  ECF7  F00B         	call	i2___lwdiv	;wreg free
  3977   000EB2  C001  F008         	movff	?i2___lwdiv,i2color@i
  3978   000EB6  C002  F009         	movff	?i2___lwdiv+1,i2color@i+1
  3979   000EBA  EC49  F00B         	call	i2_color	;wreg free
  3980                           
  3981                           ;laboratorio_4.c: 287: unidad(contador%10);
  3982   000EBE  C044  F001         	movff	_contador,i2___lwmod@dividend
  3983   000EC2  C045  F002         	movff	_contador+1,i2___lwmod@dividend+1
  3984   000EC6  0E00               	movlw	0
  3985   000EC8  6E04               	movwf	(i2___lwmod@divisor+1)^0,c
  3986   000ECA  0E0A               	movlw	10
  3987   000ECC  6E03               	movwf	i2___lwmod@divisor^0,c
  3988   000ECE  EC41  F00C         	call	i2___lwmod	;wreg free
  3989   000ED2  C001  F006         	movff	?i2___lwmod,i2unidad@i
  3990   000ED6  C002  F007         	movff	?i2___lwmod+1,i2unidad@i+1
  3991   000EDA  EC43  F00D         	call	i2_unidad	;wreg free
  3992                           
  3993                           ;laboratorio_4.c: 288: TMR0IE = 1;
  3994   000EDE  8AF2               	bsf	4082,5,c	;volatile
  3995                           
  3996                           ;laboratorio_4.c: 289: lcd_backlight = 1;
  3997   000EE0  0E01               	movlw	1
  3998   000EE2  6E4C               	movwf	_lcd_backlight^0,c
  3999                           
  4000                           ;laboratorio_4.c: 290: LATA5 = 1;
  4001   000EE4  8A89               	bsf	3977,5,c	;volatile
  4002                           
  4003                           ;laboratorio_4.c: 292: if (estado==1){
  4004   000EE6  0448               	decf	_estado^0,w,c
  4005   000EE8  1049               	iorwf	(_estado+1)^0,w,c
  4006   000EEA  A4D8               	btfss	status,2,c
  4007   000EEC  D003               	goto	i2l2814
  4008                           
  4009                           ;laboratorio_4.c: 293: mostrar_valor();
  4010   000EEE  EC2E  F00D         	call	i2_mostrar_valor	;wreg free
  4011                           
  4012                           ;laboratorio_4.c: 294: }else if (estado == 2 ){
  4013   000EF2  D00E               	goto	i2l232
  4014   000EF4                     i2l2814:
  4015   000EF4  0E02               	movlw	2
  4016   000EF6  1848               	xorwf	_estado^0,w,c
  4017   000EF8  1049               	iorwf	(_estado+1)^0,w,c
  4018   000EFA  A4D8               	btfss	status,2,c
  4019   000EFC  D003               	goto	i2l2818
  4020                           
  4021                           ;laboratorio_4.c: 295: mostrar_conteo();
  4022   000EFE  EC0B  F008         	call	i2_mostrar_conteo	;wreg free
  4023                           
  4024                           ;laboratorio_4.c: 296: }else if(estado==3) {
  4025   000F02  D006               	goto	i2l232
  4026   000F04                     i2l2818:
  4027   000F04  0E03               	movlw	3
  4028   000F06  1848               	xorwf	_estado^0,w,c
  4029   000F08  1049               	iorwf	(_estado+1)^0,w,c
  4030   000F0A  B4D8               	btfsc	status,2,c
  4031                           
  4032                           ;laboratorio_4.c: 297: mostrar_completado();
  4033   000F0C  ECC1  F00C         	call	i2_mostrar_completado	;wreg free
  4034   000F10                     i2l232:
  4035   000F10  C012  FFF5         	movff	??_ISR+4,tablat
  4036   000F14  C011  FFF8         	movff	??_ISR+3,tblptru
  4037   000F18  C010  FFF7         	movff	??_ISR+2,tblptrh
  4038   000F1C  C00F  FFF6         	movff	??_ISR+1,tblptrl
  4039   000F20  924D               	bcf	btemp,1,c	;clear compiler interrupt flag (level 2)
  4040   000F22  0011               	retfie		f
  4041   000F24                     __end_of_ISR:
  4042                           	callstack 0
  4043                           
  4044 ;; *************** function i2_mostrar_valor *****************
  4045 ;; Defined at:
  4046 ;;		line 337 in file "laboratorio_4.c"
  4047 ;; Parameters:    Size  Location     Type
  4048 ;;		None
  4049 ;; Auto vars:     Size  Location     Type
  4050 ;;		None
  4051 ;; Return value:  Size  Location     Type
  4052 ;;                  1    wreg      void 
  4053 ;; Registers used:
  4054 ;;		wreg, status,2, status,0, tblptrl, tblptrh, tblptru, cstack
  4055 ;; Tracked objects:
  4056 ;;		On entry : 0/0
  4057 ;;		On exit  : 0/0
  4058 ;;		Unchanged: 0/0
  4059 ;; Data sizes:     COMRAM   BANK0   BANK1   BANK2   BANK3   BANK4   BANK5   BANK6   BANK7
  4060 ;;      Params:         0       0       0       0       0       0       0       0       0
  4061 ;;      Locals:         0       0       0       0       0       0       0       0       0
  4062 ;;      Temps:          0       0       0       0       0       0       0       0       0
  4063 ;;      Totals:         0       0       0       0       0       0       0       0       0
  4064 ;;Total ram usage:        0 bytes
  4065 ;; Hardware stack levels used: 1
  4066 ;; Hardware stack levels required when called: 2
  4067 ;; This function calls:
  4068 ;;		i2_Lcd_Clear
  4069 ;;		i2_Lcd_Set_Cursor
  4070 ;;		i2_Lcd_String
  4071 ;; This function is called by:
  4072 ;;		_ISR
  4073 ;; This function uses a non-reentrant model
  4074 ;;
  4075                           
  4076                           	psect	text21
  4077   001A5C                     __ptext21:
  4078                           	callstack 0
  4079   001A5C                     i2_mostrar_valor:
  4080                           	callstack 24
  4081                           
  4082                           ;laboratorio_4.c: 338: Lcd_Clear();
  4083                           
  4084                           ;incstack = 0
  4085   001A5C  EC54  F00D         	call	i2_Lcd_Clear	;wreg free
  4086                           
  4087                           ;laboratorio_4.c: 339: Lcd_Set_Cursor(1, 1);
  4088   001A60  0E01               	movlw	1
  4089   001A62  6E04               	movwf	i2Lcd_Set_Cursor@column^0,c
  4090   001A64  0E01               	movlw	1
  4091   001A66  EC10  F00D         	call	i2_Lcd_Set_Cursor
  4092                           
  4093                           ;laboratorio_4.c: 340: Lcd_String("Ingrese valor:");
  4094   001A6A  0E88               	movlw	low STR_4
  4095   001A6C  6E04               	movwf	i2Lcd_String@str^0,c
  4096   001A6E  ECEA  F00C         	call	i2_Lcd_String	;wreg free
  4097   001A72  0012               	return		;funcret
  4098   001A74                     __end_ofi2_mostrar_valor:
  4099                           	callstack 0
  4100                           
  4101 ;; *************** function i2_mostrar_conteo *****************
  4102 ;; Defined at:
  4103 ;;		line 303 in file "laboratorio_4.c"
  4104 ;; Parameters:    Size  Location     Type
  4105 ;;		None
  4106 ;; Auto vars:     Size  Location     Type
  4107 ;;  faltan          2   11[COMRAM] int 
  4108 ;; Return value:  Size  Location     Type
  4109 ;;                  1    wreg      void 
  4110 ;; Registers used:
  4111 ;;		wreg, status,2, status,0, tblptrl, tblptrh, tblptru, cstack
  4112 ;; Tracked objects:
  4113 ;;		On entry : 0/0
  4114 ;;		On exit  : 0/0
  4115 ;;		Unchanged: 0/0
  4116 ;; Data sizes:     COMRAM   BANK0   BANK1   BANK2   BANK3   BANK4   BANK5   BANK6   BANK7
  4117 ;;      Params:         0       0       0       0       0       0       0       0       0
  4118 ;;      Locals:         2       0       0       0       0       0       0       0       0
  4119 ;;      Temps:          0       0       0       0       0       0       0       0       0
  4120 ;;      Totals:         2       0       0       0       0       0       0       0       0
  4121 ;;Total ram usage:        2 bytes
  4122 ;; Hardware stack levels used: 1
  4123 ;; Hardware stack levels required when called: 2
  4124 ;; This function calls:
  4125 ;;		i2_Lcd_Char
  4126 ;;		i2_Lcd_Clear
  4127 ;;		i2_Lcd_Set_Cursor
  4128 ;;		i2_Lcd_String
  4129 ;;		i2___awdiv
  4130 ;;		i2___awmod
  4131 ;;		i2___lwdiv
  4132 ;;		i2___lwmod
  4133 ;;		i2_color
  4134 ;;		i2_unidad
  4135 ;; This function is called by:
  4136 ;;		_ISR
  4137 ;; This function uses a non-reentrant model
  4138 ;;
  4139                           
  4140                           	psect	text22
  4141   001016                     __ptext22:
  4142                           	callstack 0
  4143   001016                     i2_mostrar_conteo:
  4144                           	callstack 24
  4145                           
  4146                           ;laboratorio_4.c: 304: Lcd_Clear();
  4147                           
  4148                           ;incstack = 0
  4149   001016  EC54  F00D         	call	i2_Lcd_Clear	;wreg free
  4150                           
  4151                           ;laboratorio_4.c: 305: Lcd_Set_Cursor(1, 1);
  4152   00101A  0E01               	movlw	1
  4153   00101C  6E04               	movwf	i2Lcd_Set_Cursor@column^0,c
  4154   00101E  0E01               	movlw	1
  4155   001020  EC10  F00D         	call	i2_Lcd_Set_Cursor
  4156                           
  4157                           ;laboratorio_4.c: 306: Lcd_String("Objetivo:");
  4158   001024  0ECA               	movlw	low STR_2
  4159   001026  6E04               	movwf	i2Lcd_String@str^0,c
  4160   001028  ECEA  F00C         	call	i2_Lcd_String	;wreg free
  4161                           
  4162                           ;laboratorio_4.c: 307: Lcd_Char((objetivo / 10) + '0');
  4163   00102C  C046  F001         	movff	_objetivo,i2___lwdiv@dividend
  4164   001030  C047  F002         	movff	_objetivo+1,i2___lwdiv@dividend+1
  4165   001034  0E00               	movlw	0
  4166   001036  6E04               	movwf	(i2___lwdiv@divisor+1)^0,c
  4167   001038  0E0A               	movlw	10
  4168   00103A  6E03               	movwf	i2___lwdiv@divisor^0,c
  4169   00103C  ECF7  F00B         	call	i2___lwdiv	;wreg free
  4170   001040  5001               	movf	?i2___lwdiv^0,w,c
  4171   001042  0F30               	addlw	48
  4172   001044  EC56  F009         	call	i2_Lcd_Char
  4173                           
  4174                           ;laboratorio_4.c: 308: Lcd_Char((objetivo % 10) + '0');
  4175   001048  C046  F001         	movff	_objetivo,i2___lwmod@dividend
  4176   00104C  C047  F002         	movff	_objetivo+1,i2___lwmod@dividend+1
  4177   001050  0E00               	movlw	0
  4178   001052  6E04               	movwf	(i2___lwmod@divisor+1)^0,c
  4179   001054  0E0A               	movlw	10
  4180   001056  6E03               	movwf	i2___lwmod@divisor^0,c
  4181   001058  EC41  F00C         	call	i2___lwmod	;wreg free
  4182   00105C  5001               	movf	?i2___lwmod^0,w,c
  4183   00105E  0F30               	addlw	48
  4184   001060  EC56  F009         	call	i2_Lcd_Char
  4185                           
  4186                           ;laboratorio_4.c: 310: Lcd_Set_Cursor(2, 1);
  4187   001064  0E01               	movlw	1
  4188   001066  6E04               	movwf	i2Lcd_Set_Cursor@column^0,c
  4189   001068  0E02               	movlw	2
  4190   00106A  EC10  F00D         	call	i2_Lcd_Set_Cursor
  4191                           
  4192                           ;laboratorio_4.c: 311: Lcd_String("Faltantes:");
  4193   00106E  0EBF               	movlw	low STR_3
  4194   001070  6E04               	movwf	i2Lcd_String@str^0,c
  4195   001072  ECEA  F00C         	call	i2_Lcd_String	;wreg free
  4196                           
  4197                           ;laboratorio_4.c: 312: int faltan = objetivo - contador;
  4198   001076  5044               	movf	_contador^0,w,c
  4199   001078  5C46               	subwf	_objetivo^0,w,c
  4200   00107A  6E0C               	movwf	i2mostrar_conteo@faltan^0,c
  4201   00107C  5045               	movf	(_contador+1)^0,w,c
  4202   00107E  5847               	subwfb	(_objetivo+1)^0,w,c
  4203   001080  6E0D               	movwf	(i2mostrar_conteo@faltan+1)^0,c
  4204                           
  4205                           ;laboratorio_4.c: 313: if (faltan < 0) faltan = 0;
  4206   001082  AE0D               	btfss	(i2mostrar_conteo@faltan+1)^0,7,c
  4207   001084  D004               	goto	i2l2554
  4208   001086  0E00               	movlw	0
  4209   001088  6E0D               	movwf	(i2mostrar_conteo@faltan+1)^0,c
  4210   00108A  0E00               	movlw	0
  4211   00108C  6E0C               	movwf	i2mostrar_conteo@faltan^0,c
  4212   00108E                     i2l2554:
  4213                           
  4214                           ;laboratorio_4.c: 314: Lcd_Char((faltan / 10) + '0');
  4215   00108E  C00C  F001         	movff	i2mostrar_conteo@faltan,i2___awdiv@dividend
  4216   001092  C00D  F002         	movff	i2mostrar_conteo@faltan+1,i2___awdiv@dividend+1
  4217   001096  0E00               	movlw	0
  4218   001098  6E04               	movwf	(i2___awdiv@divisor+1)^0,c
  4219   00109A  0E0A               	movlw	10
  4220   00109C  6E03               	movwf	i2___awdiv@divisor^0,c
  4221   00109E  EC69  F00A         	call	i2___awdiv	;wreg free
  4222   0010A2  5001               	movf	?i2___awdiv^0,w,c
  4223   0010A4  0F30               	addlw	48
  4224   0010A6  EC56  F009         	call	i2_Lcd_Char
  4225                           
  4226                           ;laboratorio_4.c: 315: Lcd_Char((faltan % 10) + '0');
  4227   0010AA  C00C  F001         	movff	i2mostrar_conteo@faltan,i2___awmod@dividend
  4228   0010AE  C00D  F002         	movff	i2mostrar_conteo@faltan+1,i2___awmod@dividend+1
  4229   0010B2  0E00               	movlw	0
  4230   0010B4  6E04               	movwf	(i2___awmod@divisor+1)^0,c
  4231   0010B6  0E0A               	movlw	10
  4232   0010B8  6E03               	movwf	i2___awmod@divisor^0,c
  4233   0010BA  ECE1  F00A         	call	i2___awmod	;wreg free
  4234   0010BE  5001               	movf	?i2___awmod^0,w,c
  4235   0010C0  0F30               	addlw	48
  4236   0010C2  EC56  F009         	call	i2_Lcd_Char
  4237                           
  4238                           ;laboratorio_4.c: 317: unidad(contador % 10);
  4239   0010C6  C044  F001         	movff	_contador,i2___lwmod@dividend
  4240   0010CA  C045  F002         	movff	_contador+1,i2___lwmod@dividend+1
  4241   0010CE  0E00               	movlw	0
  4242   0010D0  6E04               	movwf	(i2___lwmod@divisor+1)^0,c
  4243   0010D2  0E0A               	movlw	10
  4244   0010D4  6E03               	movwf	i2___lwmod@divisor^0,c
  4245   0010D6  EC41  F00C         	call	i2___lwmod	;wreg free
  4246   0010DA  C001  F006         	movff	?i2___lwmod,i2unidad@i
  4247   0010DE  C002  F007         	movff	?i2___lwmod+1,i2unidad@i+1
  4248   0010E2  EC43  F00D         	call	i2_unidad	;wreg free
  4249                           
  4250                           ;laboratorio_4.c: 318: color(contador / 10);
  4251   0010E6  C044  F001         	movff	_contador,i2___lwdiv@dividend
  4252   0010EA  C045  F002         	movff	_contador+1,i2___lwdiv@dividend+1
  4253   0010EE  0E00               	movlw	0
  4254   0010F0  6E04               	movwf	(i2___lwdiv@divisor+1)^0,c
  4255   0010F2  0E0A               	movlw	10
  4256   0010F4  6E03               	movwf	i2___lwdiv@divisor^0,c
  4257   0010F6  ECF7  F00B         	call	i2___lwdiv	;wreg free
  4258   0010FA  C001  F008         	movff	?i2___lwdiv,i2color@i
  4259   0010FE  C002  F009         	movff	?i2___lwdiv+1,i2color@i+1
  4260   001102  EC49  F00B         	call	i2_color	;wreg free
  4261   001106  0012               	return		;funcret
  4262   001108                     __end_ofi2_mostrar_conteo:
  4263                           	callstack 0
  4264                           
  4265 ;; *************** function i2_unidad *****************
  4266 ;; Defined at:
  4267 ;;		line 321 in file "laboratorio_4.c"
  4268 ;; Parameters:    Size  Location     Type
  4269 ;;  i               2    5[COMRAM] int 
  4270 ;; Auto vars:     Size  Location     Type
  4271 ;;		None
  4272 ;; Return value:  Size  Location     Type
  4273 ;;                  1    wreg      void 
  4274 ;; Registers used:
  4275 ;;		wreg, status,2, status,0
  4276 ;; Tracked objects:
  4277 ;;		On entry : 0/0
  4278 ;;		On exit  : 0/0
  4279 ;;		Unchanged: 0/0
  4280 ;; Data sizes:     COMRAM   BANK0   BANK1   BANK2   BANK3   BANK4   BANK5   BANK6   BANK7
  4281 ;;      Params:         2       0       0       0       0       0       0       0       0
  4282 ;;      Locals:         0       0       0       0       0       0       0       0       0
  4283 ;;      Temps:          1       0       0       0       0       0       0       0       0
  4284 ;;      Totals:         3       0       0       0       0       0       0       0       0
  4285 ;;Total ram usage:        3 bytes
  4286 ;; Hardware stack levels used: 1
  4287 ;; This function calls:
  4288 ;;		Nothing
  4289 ;; This function is called by:
  4290 ;;		_ISR
  4291 ;;		i2_mostrar_conteo
  4292 ;; This function uses a non-reentrant model
  4293 ;;
  4294                           
  4295                           	psect	text23
  4296   001A86                     __ptext23:
  4297                           	callstack 0
  4298   001A86                     i2_unidad:
  4299                           	callstack 26
  4300                           
  4301                           ;laboratorio_4.c: 322: LATD = (LATD & 0xF0) | (i & 0x0F);
  4302                           
  4303                           ;incstack = 0
  4304   001A86  C006  F008         	movff	i2unidad@i,??i2_unidad
  4305   001A8A  0E0F               	movlw	15
  4306   001A8C  1608               	andwf	??i2_unidad^0,f,c
  4307   001A8E  508C               	movf	140,w,c	;volatile
  4308   001A90  0BF0               	andlw	240
  4309   001A92  1008               	iorwf	??i2_unidad^0,w,c
  4310   001A94  6E8C               	movwf	140,c	;volatile
  4311   001A96  0012               	return		;funcret
  4312   001A98                     __end_ofi2_unidad:
  4313                           	callstack 0
  4314                           
  4315 ;; *************** function i2_color *****************
  4316 ;; Defined at:
  4317 ;;		line 325 in file "laboratorio_4.c"
  4318 ;; Parameters:    Size  Location     Type
  4319 ;;  i               2    7[COMRAM] int 
  4320 ;; Auto vars:     Size  Location     Type
  4321 ;;		None
  4322 ;; Return value:  Size  Location     Type
  4323 ;;                  1    wreg      void 
  4324 ;; Registers used:
  4325 ;;		wreg, status,2, status,0
  4326 ;; Tracked objects:
  4327 ;;		On entry : 0/0
  4328 ;;		On exit  : 0/0
  4329 ;;		Unchanged: 0/0
  4330 ;; Data sizes:     COMRAM   BANK0   BANK1   BANK2   BANK3   BANK4   BANK5   BANK6   BANK7
  4331 ;;      Params:         2       0       0       0       0       0       0       0       0
  4332 ;;      Locals:         0       0       0       0       0       0       0       0       0
  4333 ;;      Temps:          2       0       0       0       0       0       0       0       0
  4334 ;;      Totals:         4       0       0       0       0       0       0       0       0
  4335 ;;Total ram usage:        4 bytes
  4336 ;; Hardware stack levels used: 1
  4337 ;; This function calls:
  4338 ;;		Nothing
  4339 ;; This function is called by:
  4340 ;;		_ISR
  4341 ;;		i2_mostrar_conteo
  4342 ;; This function uses a non-reentrant model
  4343 ;;
  4344                           
  4345                           	psect	text24
  4346   001692                     __ptext24:
  4347                           	callstack 0
  4348   001692                     i2_color:
  4349                           	callstack 25
  4350                           
  4351                           ;laboratorio_4.c: 326: switch (i) {
  4352                           
  4353                           ;incstack = 0
  4354   001692  D014               	goto	i2l2258
  4355   001694                     i2l2244:
  4356   001694  0E05               	movlw	5
  4357   001696  6E8D               	movwf	141,c	;volatile
  4358   001698  0012               	return	
  4359   00169A                     i2l2246:
  4360   00169A  0E04               	movlw	4
  4361   00169C  6E8D               	movwf	141,c	;volatile
  4362   00169E  0012               	return	
  4363   0016A0                     i2l2248:
  4364   0016A0  0E06               	movlw	6
  4365   0016A2  6E8D               	movwf	141,c	;volatile
  4366   0016A4  0012               	return	
  4367   0016A6                     i2l2250:
  4368   0016A6  0E02               	movlw	2
  4369   0016A8  6E8D               	movwf	141,c	;volatile
  4370   0016AA  0012               	return	
  4371   0016AC                     i2l2252:
  4372   0016AC  0E03               	movlw	3
  4373   0016AE  6E8D               	movwf	141,c	;volatile
  4374   0016B0  0012               	return	
  4375   0016B2                     i2l2254:
  4376   0016B2  0E07               	movlw	7
  4377   0016B4  6E8D               	movwf	141,c	;volatile
  4378   0016B6  0012               	return	
  4379   0016B8                     i2l256:
  4380   0016B8  6A8D               	clrf	141,c	;volatile
  4381   0016BA  0012               	return	
  4382   0016BC                     i2l2258:
  4383   0016BC  C008  F00A         	movff	i2color@i,??i2_color
  4384   0016C0  C009  F00B         	movff	i2color@i+1,??i2_color+1
  4385                           
  4386                           ; Switch on 2 bytes has been partitioned into a top level switch of size 1, and 1 sub-sw
      +                          itches
  4387                           ; Switch size 1, requested type "simple"
  4388                           ; Number of cases is 1, Range of values is 0 to 0
  4389                           ; switch strategies available:
  4390                           ; Name         Instructions Cycles
  4391                           ; simple_byte            4     3 (average)
  4392                           ;	Chosen strategy is simple_byte
  4393   0016C4  500B               	movf	(??i2_color+1)^0,w,c
  4394   0016C6  0A00               	xorlw	0	; case 0
  4395   0016C8  A4D8               	btfss	status,2,c
  4396   0016CA  D7F6               	goto	i2l256
  4397                           
  4398                           ; Switch size 1, requested type "simple"
  4399                           ; Number of cases is 6, Range of values is 0 to 5
  4400                           ; switch strategies available:
  4401                           ; Name         Instructions Cycles
  4402                           ; simple_byte           19    10 (average)
  4403                           ;	Chosen strategy is simple_byte
  4404   0016CC  500A               	movf	??i2_color^0,w,c
  4405   0016CE  0A00               	xorlw	0	; case 0
  4406   0016D0  B4D8               	btfsc	status,2,c
  4407   0016D2  D7E0               	goto	i2l2244
  4408   0016D4  0A01               	xorlw	1	; case 1
  4409   0016D6  B4D8               	btfsc	status,2,c
  4410   0016D8  D7E0               	goto	i2l2246
  4411   0016DA  0A03               	xorlw	3	; case 2
  4412   0016DC  B4D8               	btfsc	status,2,c
  4413   0016DE  D7E0               	goto	i2l2248
  4414   0016E0  0A01               	xorlw	1	; case 3
  4415   0016E2  B4D8               	btfsc	status,2,c
  4416   0016E4  D7E0               	goto	i2l2250
  4417   0016E6  0A07               	xorlw	7	; case 4
  4418   0016E8  B4D8               	btfsc	status,2,c
  4419   0016EA  D7E0               	goto	i2l2252
  4420   0016EC  0A01               	xorlw	1	; case 5
  4421   0016EE  B4D8               	btfsc	status,2,c
  4422   0016F0  D7E0               	goto	i2l2254
  4423   0016F2  D7E2               	goto	i2l256
  4424   0016F4                     __end_ofi2_color:
  4425                           	callstack 0
  4426                           
  4427 ;; *************** function i2___lwmod *****************
  4428 ;; Defined at:
  4429 ;;		line 7 in file "C:\Program Files\Microchip\xc8\v2.50\pic\sources\c90\common\lwmod.c"
  4430 ;; Parameters:    Size  Location     Type
  4431 ;;  dividend        2    0[COMRAM] unsigned int 
  4432 ;;  divisor         2    2[COMRAM] unsigned int 
  4433 ;; Auto vars:     Size  Location     Type
  4434 ;;  counter         1    4[COMRAM] unsigned char 
  4435 ;; Return value:  Size  Location     Type
  4436 ;;                  2    0[COMRAM] unsigned int 
  4437 ;; Registers used:
  4438 ;;		wreg, status,2, status,0
  4439 ;; Tracked objects:
  4440 ;;		On entry : 0/0
  4441 ;;		On exit  : 0/0
  4442 ;;		Unchanged: 0/0
  4443 ;; Data sizes:     COMRAM   BANK0   BANK1   BANK2   BANK3   BANK4   BANK5   BANK6   BANK7
  4444 ;;      Params:         4       0       0       0       0       0       0       0       0
  4445 ;;      Locals:         1       0       0       0       0       0       0       0       0
  4446 ;;      Temps:          0       0       0       0       0       0       0       0       0
  4447 ;;      Totals:         5       0       0       0       0       0       0       0       0
  4448 ;;Total ram usage:        5 bytes
  4449 ;; Hardware stack levels used: 1
  4450 ;; This function calls:
  4451 ;;		Nothing
  4452 ;; This function is called by:
  4453 ;;		_ISR
  4454 ;;		i2_mostrar_conteo
  4455 ;; This function uses a non-reentrant model
  4456 ;;
  4457                           
  4458                           	psect	text25
  4459   001882                     __ptext25:
  4460                           	callstack 0
  4461   001882                     i2___lwmod:
  4462                           	callstack 25
  4463                           
  4464                           ;incstack = 0
  4465   001882  5003               	movf	i2___lwmod@divisor^0,w,c
  4466   001884  1004               	iorwf	(i2___lwmod@divisor+1)^0,w,c
  4467   001886  B4D8               	btfsc	status,2,c
  4468   001888  D018               	goto	i2l778
  4469   00188A  0E01               	movlw	1
  4470   00188C  6E05               	movwf	i2___lwmod@counter^0,c
  4471   00188E  D004               	goto	i2l2372
  4472   001890                     i2l2370:
  4473   001890  90D8               	bcf	status,0,c
  4474   001892  3603               	rlcf	i2___lwmod@divisor^0,f,c
  4475   001894  3604               	rlcf	(i2___lwmod@divisor+1)^0,f,c
  4476   001896  2A05               	incf	i2___lwmod@counter^0,f,c
  4477   001898                     i2l2372:
  4478   001898  AE04               	btfss	(i2___lwmod@divisor+1)^0,7,c
  4479   00189A  D7FA               	goto	i2l2370
  4480   00189C                     i2u287_40:
  4481   00189C  5003               	movf	i2___lwmod@divisor^0,w,c
  4482   00189E  5C01               	subwf	i2___lwmod@dividend^0,w,c
  4483   0018A0  5004               	movf	(i2___lwmod@divisor+1)^0,w,c
  4484   0018A2  5802               	subwfb	(i2___lwmod@dividend+1)^0,w,c
  4485   0018A4  A0D8               	btfss	status,0,c
  4486   0018A6  D004               	goto	i2l2378
  4487   0018A8  5003               	movf	i2___lwmod@divisor^0,w,c
  4488   0018AA  5E01               	subwf	i2___lwmod@dividend^0,f,c
  4489   0018AC  5004               	movf	(i2___lwmod@divisor+1)^0,w,c
  4490   0018AE  5A02               	subwfb	(i2___lwmod@dividend+1)^0,f,c
  4491   0018B0                     i2l2378:
  4492   0018B0  90D8               	bcf	status,0,c
  4493   0018B2  3204               	rrcf	(i2___lwmod@divisor+1)^0,f,c
  4494   0018B4  3203               	rrcf	i2___lwmod@divisor^0,f,c
  4495   0018B6  2E05               	decfsz	i2___lwmod@counter^0,f,c
  4496   0018B8  D7F1               	goto	i2u287_40
  4497   0018BA                     i2l778:
  4498   0018BA  C001  F001         	movff	i2___lwmod@dividend,?i2___lwmod
  4499   0018BE  C002  F002         	movff	i2___lwmod@dividend+1,?i2___lwmod+1
  4500   0018C2  0012               	return		;funcret
  4501   0018C4                     __end_ofi2___lwmod:
  4502                           	callstack 0
  4503                           
  4504 ;; *************** function i2___lwdiv *****************
  4505 ;; Defined at:
  4506 ;;		line 7 in file "C:\Program Files\Microchip\xc8\v2.50\pic\sources\c90\common\lwdiv.c"
  4507 ;; Parameters:    Size  Location     Type
  4508 ;;  dividend        2    0[COMRAM] unsigned int 
  4509 ;;  divisor         2    2[COMRAM] unsigned int 
  4510 ;; Auto vars:     Size  Location     Type
  4511 ;;  quotient        2    4[COMRAM] unsigned int 
  4512 ;;  counter         1    6[COMRAM] unsigned char 
  4513 ;; Return value:  Size  Location     Type
  4514 ;;                  2    0[COMRAM] unsigned int 
  4515 ;; Registers used:
  4516 ;;		wreg, status,2, status,0
  4517 ;; Tracked objects:
  4518 ;;		On entry : 0/0
  4519 ;;		On exit  : 0/0
  4520 ;;		Unchanged: 0/0
  4521 ;; Data sizes:     COMRAM   BANK0   BANK1   BANK2   BANK3   BANK4   BANK5   BANK6   BANK7
  4522 ;;      Params:         4       0       0       0       0       0       0       0       0
  4523 ;;      Locals:         3       0       0       0       0       0       0       0       0
  4524 ;;      Temps:          0       0       0       0       0       0       0       0       0
  4525 ;;      Totals:         7       0       0       0       0       0       0       0       0
  4526 ;;Total ram usage:        7 bytes
  4527 ;; Hardware stack levels used: 1
  4528 ;; This function calls:
  4529 ;;		Nothing
  4530 ;; This function is called by:
  4531 ;;		_ISR
  4532 ;;		i2_mostrar_conteo
  4533 ;; This function uses a non-reentrant model
  4534 ;;
  4535                           
  4536                           	psect	text26
  4537   0017EE                     __ptext26:
  4538                           	callstack 0
  4539   0017EE                     i2___lwdiv:
  4540                           	callstack 25
  4541                           
  4542                           ;incstack = 0
  4543   0017EE  0E00               	movlw	0
  4544   0017F0  6E06               	movwf	(i2___lwdiv@quotient+1)^0,c
  4545   0017F2  0E00               	movlw	0
  4546   0017F4  6E05               	movwf	i2___lwdiv@quotient^0,c
  4547   0017F6  5003               	movf	i2___lwdiv@divisor^0,w,c
  4548   0017F8  1004               	iorwf	(i2___lwdiv@divisor+1)^0,w,c
  4549   0017FA  B4D8               	btfsc	status,2,c
  4550   0017FC  D01C               	goto	i2l768
  4551   0017FE  0E01               	movlw	1
  4552   001800  6E07               	movwf	i2___lwdiv@counter^0,c
  4553   001802  D004               	goto	i2l2352
  4554   001804                     i2l2350:
  4555   001804  90D8               	bcf	status,0,c
  4556   001806  3603               	rlcf	i2___lwdiv@divisor^0,f,c
  4557   001808  3604               	rlcf	(i2___lwdiv@divisor+1)^0,f,c
  4558   00180A  2A07               	incf	i2___lwdiv@counter^0,f,c
  4559   00180C                     i2l2352:
  4560   00180C  AE04               	btfss	(i2___lwdiv@divisor+1)^0,7,c
  4561   00180E  D7FA               	goto	i2l2350
  4562   001810                     i2u284_40:
  4563   001810  90D8               	bcf	status,0,c
  4564   001812  3605               	rlcf	i2___lwdiv@quotient^0,f,c
  4565   001814  3606               	rlcf	(i2___lwdiv@quotient+1)^0,f,c
  4566   001816  5003               	movf	i2___lwdiv@divisor^0,w,c
  4567   001818  5C01               	subwf	i2___lwdiv@dividend^0,w,c
  4568   00181A  5004               	movf	(i2___lwdiv@divisor+1)^0,w,c
  4569   00181C  5802               	subwfb	(i2___lwdiv@dividend+1)^0,w,c
  4570   00181E  A0D8               	btfss	status,0,c
  4571   001820  D005               	goto	i2l2362
  4572   001822  5003               	movf	i2___lwdiv@divisor^0,w,c
  4573   001824  5E01               	subwf	i2___lwdiv@dividend^0,f,c
  4574   001826  5004               	movf	(i2___lwdiv@divisor+1)^0,w,c
  4575   001828  5A02               	subwfb	(i2___lwdiv@dividend+1)^0,f,c
  4576   00182A  8005               	bsf	i2___lwdiv@quotient^0,0,c
  4577   00182C                     i2l2362:
  4578   00182C  90D8               	bcf	status,0,c
  4579   00182E  3204               	rrcf	(i2___lwdiv@divisor+1)^0,f,c
  4580   001830  3203               	rrcf	i2___lwdiv@divisor^0,f,c
  4581   001832  2E07               	decfsz	i2___lwdiv@counter^0,f,c
  4582   001834  D7ED               	goto	i2u284_40
  4583   001836                     i2l768:
  4584   001836  C005  F001         	movff	i2___lwdiv@quotient,?i2___lwdiv
  4585   00183A  C006  F002         	movff	i2___lwdiv@quotient+1,?i2___lwdiv+1
  4586   00183E  0012               	return		;funcret
  4587   001840                     __end_ofi2___lwdiv:
  4588                           	callstack 0
  4589                           
  4590 ;; *************** function i2___awmod *****************
  4591 ;; Defined at:
  4592 ;;		line 7 in file "C:\Program Files\Microchip\xc8\v2.50\pic\sources\c90\common\awmod.c"
  4593 ;; Parameters:    Size  Location     Type
  4594 ;;  dividend        2    0[COMRAM] int 
  4595 ;;  divisor         2    2[COMRAM] int 
  4596 ;; Auto vars:     Size  Location     Type
  4597 ;;  sign            1    5[COMRAM] unsigned char 
  4598 ;;  counter         1    4[COMRAM] unsigned char 
  4599 ;; Return value:  Size  Location     Type
  4600 ;;                  2    0[COMRAM] int 
  4601 ;; Registers used:
  4602 ;;		wreg, status,2, status,0
  4603 ;; Tracked objects:
  4604 ;;		On entry : 0/0
  4605 ;;		On exit  : 0/0
  4606 ;;		Unchanged: 0/0
  4607 ;; Data sizes:     COMRAM   BANK0   BANK1   BANK2   BANK3   BANK4   BANK5   BANK6   BANK7
  4608 ;;      Params:         4       0       0       0       0       0       0       0       0
  4609 ;;      Locals:         2       0       0       0       0       0       0       0       0
  4610 ;;      Temps:          0       0       0       0       0       0       0       0       0
  4611 ;;      Totals:         6       0       0       0       0       0       0       0       0
  4612 ;;Total ram usage:        6 bytes
  4613 ;; Hardware stack levels used: 1
  4614 ;; This function calls:
  4615 ;;		Nothing
  4616 ;; This function is called by:
  4617 ;;		i2_mostrar_conteo
  4618 ;; This function uses a non-reentrant model
  4619 ;;
  4620                           
  4621                           	psect	text27
  4622   0015C2                     __ptext27:
  4623                           	callstack 0
  4624   0015C2                     i2___awmod:
  4625                           	callstack 25
  4626                           
  4627                           ;incstack = 0
  4628   0015C2  6A06               	clrf	i2___awmod@sign^0,c
  4629   0015C4  AE02               	btfss	(i2___awmod@dividend+1)^0,7,c
  4630   0015C6  D006               	goto	i2l2316
  4631   0015C8  6C01               	negf	i2___awmod@dividend^0,c
  4632   0015CA  1E02               	comf	(i2___awmod@dividend+1)^0,f,c
  4633   0015CC  B0D8               	btfsc	status,0,c
  4634   0015CE  2A02               	incf	(i2___awmod@dividend+1)^0,f,c
  4635   0015D0  0E01               	movlw	1
  4636   0015D2  6E06               	movwf	i2___awmod@sign^0,c
  4637   0015D4                     i2l2316:
  4638   0015D4  AE04               	btfss	(i2___awmod@divisor+1)^0,7,c
  4639   0015D6  D004               	goto	i2l2320
  4640   0015D8  6C03               	negf	i2___awmod@divisor^0,c
  4641   0015DA  1E04               	comf	(i2___awmod@divisor+1)^0,f,c
  4642   0015DC  B0D8               	btfsc	status,0,c
  4643   0015DE  2A04               	incf	(i2___awmod@divisor+1)^0,f,c
  4644   0015E0                     i2l2320:
  4645   0015E0  5003               	movf	i2___awmod@divisor^0,w,c
  4646   0015E2  1004               	iorwf	(i2___awmod@divisor+1)^0,w,c
  4647   0015E4  B4D8               	btfsc	status,2,c
  4648   0015E6  D018               	goto	i2l2336
  4649   0015E8  0E01               	movlw	1
  4650   0015EA  6E05               	movwf	i2___awmod@counter^0,c
  4651   0015EC  D004               	goto	i2l2326
  4652   0015EE                     i2l2324:
  4653   0015EE  90D8               	bcf	status,0,c
  4654   0015F0  3603               	rlcf	i2___awmod@divisor^0,f,c
  4655   0015F2  3604               	rlcf	(i2___awmod@divisor+1)^0,f,c
  4656   0015F4  2A05               	incf	i2___awmod@counter^0,f,c
  4657   0015F6                     i2l2326:
  4658   0015F6  AE04               	btfss	(i2___awmod@divisor+1)^0,7,c
  4659   0015F8  D7FA               	goto	i2l2324
  4660   0015FA                     i2u280_40:
  4661   0015FA  5003               	movf	i2___awmod@divisor^0,w,c
  4662   0015FC  5C01               	subwf	i2___awmod@dividend^0,w,c
  4663   0015FE  5004               	movf	(i2___awmod@divisor+1)^0,w,c
  4664   001600  5802               	subwfb	(i2___awmod@dividend+1)^0,w,c
  4665   001602  A0D8               	btfss	status,0,c
  4666   001604  D004               	goto	i2l2332
  4667   001606  5003               	movf	i2___awmod@divisor^0,w,c
  4668   001608  5E01               	subwf	i2___awmod@dividend^0,f,c
  4669   00160A  5004               	movf	(i2___awmod@divisor+1)^0,w,c
  4670   00160C  5A02               	subwfb	(i2___awmod@dividend+1)^0,f,c
  4671   00160E                     i2l2332:
  4672   00160E  90D8               	bcf	status,0,c
  4673   001610  3204               	rrcf	(i2___awmod@divisor+1)^0,f,c
  4674   001612  3203               	rrcf	i2___awmod@divisor^0,f,c
  4675   001614  2E05               	decfsz	i2___awmod@counter^0,f,c
  4676   001616  D7F1               	goto	i2u280_40
  4677   001618                     i2l2336:
  4678   001618  5006               	movf	i2___awmod@sign^0,w,c
  4679   00161A  B4D8               	btfsc	status,2,c
  4680   00161C  D004               	goto	i2l2340
  4681   00161E  6C01               	negf	i2___awmod@dividend^0,c
  4682   001620  1E02               	comf	(i2___awmod@dividend+1)^0,f,c
  4683   001622  B0D8               	btfsc	status,0,c
  4684   001624  2A02               	incf	(i2___awmod@dividend+1)^0,f,c
  4685   001626                     i2l2340:
  4686   001626  C001  F001         	movff	i2___awmod@dividend,?i2___awmod
  4687   00162A  C002  F002         	movff	i2___awmod@dividend+1,?i2___awmod+1
  4688   00162E  0012               	return		;funcret
  4689   001630                     __end_ofi2___awmod:
  4690                           	callstack 0
  4691                           
  4692 ;; *************** function i2___awdiv *****************
  4693 ;; Defined at:
  4694 ;;		line 7 in file "C:\Program Files\Microchip\xc8\v2.50\pic\sources\c90\common\awdiv.c"
  4695 ;; Parameters:    Size  Location     Type
  4696 ;;  dividend        2    0[COMRAM] int 
  4697 ;;  divisor         2    2[COMRAM] int 
  4698 ;; Auto vars:     Size  Location     Type
  4699 ;;  quotient        2    6[COMRAM] int 
  4700 ;;  sign            1    5[COMRAM] unsigned char 
  4701 ;;  counter         1    4[COMRAM] unsigned char 
  4702 ;; Return value:  Size  Location     Type
  4703 ;;                  2    0[COMRAM] int 
  4704 ;; Registers used:
  4705 ;;		wreg, status,2, status,0
  4706 ;; Tracked objects:
  4707 ;;		On entry : 0/0
  4708 ;;		On exit  : 0/0
  4709 ;;		Unchanged: 0/0
  4710 ;; Data sizes:     COMRAM   BANK0   BANK1   BANK2   BANK3   BANK4   BANK5   BANK6   BANK7
  4711 ;;      Params:         4       0       0       0       0       0       0       0       0
  4712 ;;      Locals:         4       0       0       0       0       0       0       0       0
  4713 ;;      Temps:          0       0       0       0       0       0       0       0       0
  4714 ;;      Totals:         8       0       0       0       0       0       0       0       0
  4715 ;;Total ram usage:        8 bytes
  4716 ;; Hardware stack levels used: 1
  4717 ;; This function calls:
  4718 ;;		Nothing
  4719 ;; This function is called by:
  4720 ;;		i2_mostrar_conteo
  4721 ;; This function uses a non-reentrant model
  4722 ;;
  4723                           
  4724                           	psect	text28
  4725   0014D2                     __ptext28:
  4726                           	callstack 0
  4727   0014D2                     i2___awdiv:
  4728                           	callstack 25
  4729                           
  4730                           ;incstack = 0
  4731   0014D2  6A06               	clrf	i2___awdiv@sign^0,c
  4732   0014D4  AE04               	btfss	(i2___awdiv@divisor+1)^0,7,c
  4733   0014D6  D006               	goto	i2l2272
  4734   0014D8  6C03               	negf	i2___awdiv@divisor^0,c
  4735   0014DA  1E04               	comf	(i2___awdiv@divisor+1)^0,f,c
  4736   0014DC  B0D8               	btfsc	status,0,c
  4737   0014DE  2A04               	incf	(i2___awdiv@divisor+1)^0,f,c
  4738   0014E0  0E01               	movlw	1
  4739   0014E2  6E06               	movwf	i2___awdiv@sign^0,c
  4740   0014E4                     i2l2272:
  4741   0014E4  AE02               	btfss	(i2___awdiv@dividend+1)^0,7,c
  4742   0014E6  D006               	goto	i2l2278
  4743   0014E8  6C01               	negf	i2___awdiv@dividend^0,c
  4744   0014EA  1E02               	comf	(i2___awdiv@dividend+1)^0,f,c
  4745   0014EC  B0D8               	btfsc	status,0,c
  4746   0014EE  2A02               	incf	(i2___awdiv@dividend+1)^0,f,c
  4747   0014F0  0E01               	movlw	1
  4748   0014F2  1A06               	xorwf	i2___awdiv@sign^0,f,c
  4749   0014F4                     i2l2278:
  4750   0014F4  0E00               	movlw	0
  4751   0014F6  6E08               	movwf	(i2___awdiv@quotient+1)^0,c
  4752   0014F8  0E00               	movlw	0
  4753   0014FA  6E07               	movwf	i2___awdiv@quotient^0,c
  4754   0014FC  5003               	movf	i2___awdiv@divisor^0,w,c
  4755   0014FE  1004               	iorwf	(i2___awdiv@divisor+1)^0,w,c
  4756   001500  B4D8               	btfsc	status,2,c
  4757   001502  D01C               	goto	i2l2300
  4758   001504  0E01               	movlw	1
  4759   001506  6E05               	movwf	i2___awdiv@counter^0,c
  4760   001508  D004               	goto	i2l2286
  4761   00150A                     i2l2284:
  4762   00150A  90D8               	bcf	status,0,c
  4763   00150C  3603               	rlcf	i2___awdiv@divisor^0,f,c
  4764   00150E  3604               	rlcf	(i2___awdiv@divisor+1)^0,f,c
  4765   001510  2A05               	incf	i2___awdiv@counter^0,f,c
  4766   001512                     i2l2286:
  4767   001512  AE04               	btfss	(i2___awdiv@divisor+1)^0,7,c
  4768   001514  D7FA               	goto	i2l2284
  4769   001516                     i2u274_40:
  4770   001516  90D8               	bcf	status,0,c
  4771   001518  3607               	rlcf	i2___awdiv@quotient^0,f,c
  4772   00151A  3608               	rlcf	(i2___awdiv@quotient+1)^0,f,c
  4773   00151C  5003               	movf	i2___awdiv@divisor^0,w,c
  4774   00151E  5C01               	subwf	i2___awdiv@dividend^0,w,c
  4775   001520  5004               	movf	(i2___awdiv@divisor+1)^0,w,c
  4776   001522  5802               	subwfb	(i2___awdiv@dividend+1)^0,w,c
  4777   001524  A0D8               	btfss	status,0,c
  4778   001526  D005               	goto	i2l2296
  4779   001528  5003               	movf	i2___awdiv@divisor^0,w,c
  4780   00152A  5E01               	subwf	i2___awdiv@dividend^0,f,c
  4781   00152C  5004               	movf	(i2___awdiv@divisor+1)^0,w,c
  4782   00152E  5A02               	subwfb	(i2___awdiv@dividend+1)^0,f,c
  4783   001530  8007               	bsf	i2___awdiv@quotient^0,0,c
  4784   001532                     i2l2296:
  4785   001532  90D8               	bcf	status,0,c
  4786   001534  3204               	rrcf	(i2___awdiv@divisor+1)^0,f,c
  4787   001536  3203               	rrcf	i2___awdiv@divisor^0,f,c
  4788   001538  2E05               	decfsz	i2___awdiv@counter^0,f,c
  4789   00153A  D7ED               	goto	i2u274_40
  4790   00153C                     i2l2300:
  4791   00153C  5006               	movf	i2___awdiv@sign^0,w,c
  4792   00153E  B4D8               	btfsc	status,2,c
  4793   001540  D004               	goto	i2l2304
  4794   001542  6C07               	negf	i2___awdiv@quotient^0,c
  4795   001544  1E08               	comf	(i2___awdiv@quotient+1)^0,f,c
  4796   001546  B0D8               	btfsc	status,0,c
  4797   001548  2A08               	incf	(i2___awdiv@quotient+1)^0,f,c
  4798   00154A                     i2l2304:
  4799   00154A  C007  F001         	movff	i2___awdiv@quotient,?i2___awdiv
  4800   00154E  C008  F002         	movff	i2___awdiv@quotient+1,?i2___awdiv+1
  4801   001552  0012               	return		;funcret
  4802   001554                     __end_ofi2___awdiv:
  4803                           	callstack 0
  4804                           
  4805 ;; *************** function i2_mostrar_completado *****************
  4806 ;; Defined at:
  4807 ;;		line 343 in file "laboratorio_4.c"
  4808 ;; Parameters:    Size  Location     Type
  4809 ;;		None
  4810 ;; Auto vars:     Size  Location     Type
  4811 ;;		None
  4812 ;; Return value:  Size  Location     Type
  4813 ;;                  1    wreg      void 
  4814 ;; Registers used:
  4815 ;;		wreg, status,2, status,0, tblptrl, tblptrh, tblptru, cstack
  4816 ;; Tracked objects:
  4817 ;;		On entry : 0/0
  4818 ;;		On exit  : 0/0
  4819 ;;		Unchanged: 0/0
  4820 ;; Data sizes:     COMRAM   BANK0   BANK1   BANK2   BANK3   BANK4   BANK5   BANK6   BANK7
  4821 ;;      Params:         0       0       0       0       0       0       0       0       0
  4822 ;;      Locals:         0       0       0       0       0       0       0       0       0
  4823 ;;      Temps:          0       0       0       0       0       0       0       0       0
  4824 ;;      Totals:         0       0       0       0       0       0       0       0       0
  4825 ;;Total ram usage:        0 bytes
  4826 ;; Hardware stack levels used: 1
  4827 ;; Hardware stack levels required when called: 2
  4828 ;; This function calls:
  4829 ;;		i2_Lcd_Clear
  4830 ;;		i2_Lcd_Set_Cursor
  4831 ;;		i2_Lcd_String
  4832 ;; This function is called by:
  4833 ;;		_ISR
  4834 ;; This function uses a non-reentrant model
  4835 ;;
  4836                           
  4837                           	psect	text29
  4838   001982                     __ptext29:
  4839                           	callstack 0
  4840   001982                     i2_mostrar_completado:
  4841                           	callstack 24
  4842                           
  4843                           ;laboratorio_4.c: 344: Lcd_Clear();
  4844                           
  4845                           ;incstack = 0
  4846   001982  EC54  F00D         	call	i2_Lcd_Clear	;wreg free
  4847                           
  4848                           ;laboratorio_4.c: 345: Lcd_Set_Cursor(1, 1);
  4849   001986  0E01               	movlw	1
  4850   001988  6E04               	movwf	i2Lcd_Set_Cursor@column^0,c
  4851   00198A  0E01               	movlw	1
  4852   00198C  EC10  F00D         	call	i2_Lcd_Set_Cursor
  4853                           
  4854                           ;laboratorio_4.c: 346: Lcd_String("Conteo Completo!");
  4855   001990  0E68               	movlw	low STR_5
  4856   001992  6E04               	movwf	i2Lcd_String@str^0,c
  4857   001994  ECEA  F00C         	call	i2_Lcd_String	;wreg free
  4858                           
  4859                           ;laboratorio_4.c: 347: Lcd_Set_Cursor(2, 1);
  4860   001998  0E01               	movlw	1
  4861   00199A  6E04               	movwf	i2Lcd_Set_Cursor@column^0,c
  4862   00199C  0E02               	movlw	2
  4863   00199E  EC10  F00D         	call	i2_Lcd_Set_Cursor
  4864                           
  4865                           ;laboratorio_4.c: 348: Lcd_String("Presione OK");
  4866   0019A2  0EB3               	movlw	low STR_6
  4867   0019A4  6E04               	movwf	i2Lcd_String@str^0,c
  4868   0019A6  ECEA  F00C         	call	i2_Lcd_String	;wreg free
  4869   0019AA  0012               	return		;funcret
  4870   0019AC                     __end_ofi2_mostrar_completado:
  4871                           	callstack 0
  4872                           
  4873 ;; *************** function i2_Lcd_String *****************
  4874 ;; Defined at:
  4875 ;;		line 50 in file "lcd.c"
  4876 ;; Parameters:    Size  Location     Type
  4877 ;;  str             1    3[COMRAM] PTR const unsigned char 
  4878 ;;		 -> STR_9(22), STR_8(13), STR_7(15), STR_6(12), 
  4879 ;;		 -> STR_5(17), STR_4(15), STR_3(11), STR_2(10), 
  4880 ;;		 -> STR_1(15), 
  4881 ;; Auto vars:     Size  Location     Type
  4882 ;;		None
  4883 ;; Return value:  Size  Location     Type
  4884 ;;                  1    wreg      void 
  4885 ;; Registers used:
  4886 ;;		wreg, status,2, status,0, tblptrl, tblptrh, tblptru, cstack
  4887 ;; Tracked objects:
  4888 ;;		On entry : 0/0
  4889 ;;		On exit  : 0/0
  4890 ;;		Unchanged: 0/0
  4891 ;; Data sizes:     COMRAM   BANK0   BANK1   BANK2   BANK3   BANK4   BANK5   BANK6   BANK7
  4892 ;;      Params:         1       0       0       0       0       0       0       0       0
  4893 ;;      Locals:         0       0       0       0       0       0       0       0       0
  4894 ;;      Temps:          0       0       0       0       0       0       0       0       0
  4895 ;;      Totals:         1       0       0       0       0       0       0       0       0
  4896 ;;Total ram usage:        1 bytes
  4897 ;; Hardware stack levels used: 1
  4898 ;; Hardware stack levels required when called: 1
  4899 ;; This function calls:
  4900 ;;		i2_Lcd_Char
  4901 ;; This function is called by:
  4902 ;;		i2_mostrar_conteo
  4903 ;;		i2_mostrar_valor
  4904 ;;		i2_mostrar_completado
  4905 ;; This function uses a non-reentrant model
  4906 ;;
  4907                           
  4908                           	psect	text30
  4909   0019D4                     __ptext30:
  4910                           	callstack 0
  4911   0019D4                     i2_Lcd_String:
  4912                           	callstack 24
  4913                           
  4914                           ;lcd.c: 51: while (*str) {
  4915                           
  4916                           ;incstack = 0
  4917   0019D4  D009               	goto	i2l2224
  4918   0019D6                     i2l2220:
  4919                           
  4920                           ;lcd.c: 52: Lcd_Char(*str++);
  4921   0019D6  C004  FFF6         	movff	i2Lcd_String@str,tblptrl
  4922   0019DA                     	if	1	;There is more than 1 active tblptr byte
  4923   0019DA  0E08               	movlw	high __smallconst
  4924   0019DC  6EF7               	movwf	tblptrh,c
  4925   0019DE                     	endif
  4926   0019DE                     	if	0	;tblptru may be non-zero
  4927   0019DE                     	endif
  4928   0019DE                     	if	0	;tblptru may be non-zero
  4929   0019DE                     	endif
  4930   0019DE  0008               	tblrd		*
  4931   0019E0  50F5               	movf	tablat,w,c
  4932   0019E2  EC56  F009         	call	i2_Lcd_Char
  4933   0019E6  2A04               	incf	i2Lcd_String@str^0,f,c
  4934   0019E8                     i2l2224:
  4935   0019E8  C004  FFF6         	movff	i2Lcd_String@str,tblptrl
  4936   0019EC                     	if	1	;There is more than 1 active tblptr byte
  4937   0019EC  0E08               	movlw	high __smallconst
  4938   0019EE  6EF7               	movwf	tblptrh,c
  4939   0019F0                     	endif
  4940   0019F0                     	if	0	;tblptru may be non-zero
  4941   0019F0                     	endif
  4942   0019F0                     	if	0	;tblptru may be non-zero
  4943   0019F0                     	endif
  4944   0019F0  0008               	tblrd		*
  4945   0019F2  50F5               	movf	tablat,w,c
  4946   0019F4  0900               	iorlw	0
  4947   0019F6  B4D8               	btfsc	status,2,c
  4948   0019F8  0012               	return	
  4949   0019FA  D7ED               	goto	i2l2220
  4950   0019FC                     __end_ofi2_Lcd_String:
  4951                           	callstack 0
  4952                           
  4953 ;; *************** function i2_Lcd_Char *****************
  4954 ;; Defined at:
  4955 ;;		line 35 in file "lcd.c"
  4956 ;; Parameters:    Size  Location     Type
  4957 ;;  data            1    wreg     unsigned char 
  4958 ;; Auto vars:     Size  Location     Type
  4959 ;;  data            1    2[COMRAM] unsigned char 
  4960 ;; Return value:  Size  Location     Type
  4961 ;;                  1    wreg      void 
  4962 ;; Registers used:
  4963 ;;		wreg, status,2, status,0
  4964 ;; Tracked objects:
  4965 ;;		On entry : 0/0
  4966 ;;		On exit  : 0/0
  4967 ;;		Unchanged: 0/0
  4968 ;; Data sizes:     COMRAM   BANK0   BANK1   BANK2   BANK3   BANK4   BANK5   BANK6   BANK7
  4969 ;;      Params:         0       0       0       0       0       0       0       0       0
  4970 ;;      Locals:         1       0       0       0       0       0       0       0       0
  4971 ;;      Temps:          2       0       0       0       0       0       0       0       0
  4972 ;;      Totals:         3       0       0       0       0       0       0       0       0
  4973 ;;Total ram usage:        3 bytes
  4974 ;; Hardware stack levels used: 1
  4975 ;; This function calls:
  4976 ;;		Nothing
  4977 ;; This function is called by:
  4978 ;;		i2_Lcd_String
  4979 ;;		i2_mostrar_conteo
  4980 ;; This function uses a non-reentrant model
  4981 ;;
  4982                           
  4983                           	psect	text31
  4984   0012AC                     __ptext31:
  4985                           	callstack 0
  4986   0012AC                     i2_Lcd_Char:
  4987                           	callstack 24
  4988                           
  4989                           ;incstack = 0
  4990                           ;i2Lcd_Char@data stored from wreg
  4991   0012AC  6E03               	movwf	i2Lcd_Char@data^0,c
  4992                           
  4993                           ;lcd.c: 36: LATA3 = 1;
  4994   0012AE  8689               	bsf	3977,3,c	;volatile
  4995                           
  4996                           ;lcd.c: 37: LATD4 = (data >> 4) & 1;
  4997   0012B0  C003  F001         	movff	i2Lcd_Char@data,??i2_Lcd_Char
  4998   0012B4  3A01               	swapf	??i2_Lcd_Char^0,f,c
  4999   0012B6  0E0F               	movlw	15
  5000   0012B8  1601               	andwf	??i2_Lcd_Char^0,f,c
  5001   0012BA  3001               	rrcf	??i2_Lcd_Char^0,w,c
  5002   0012BC  A0D8               	btfss	status,0,c
  5003   0012BE  D002               	goto	i2u229_40
  5004   0012C0  888C               	bsf	3980,4,c	;volatile
  5005   0012C2  D001               	goto	i2u230_45
  5006   0012C4                     i2u229_40:
  5007   0012C4  988C               	bcf	3980,4,c	;volatile
  5008   0012C6                     i2u230_45:
  5009                           
  5010                           ;lcd.c: 38: LATD5 = (data >> 5) & 1;
  5011   0012C6  C003  F001         	movff	i2Lcd_Char@data,??i2_Lcd_Char
  5012   0012CA  0E05               	movlw	5
  5013   0012CC  6E02               	movwf	(??i2_Lcd_Char+1)^0,c
  5014   0012CE                     i2u231_45:
  5015   0012CE  90D8               	bcf	status,0,c
  5016   0012D0  3201               	rrcf	??i2_Lcd_Char^0,f,c
  5017   0012D2  2E02               	decfsz	(??i2_Lcd_Char+1)^0,f,c
  5018   0012D4  D7FC               	goto	i2u231_45
  5019   0012D6  3001               	rrcf	??i2_Lcd_Char^0,w,c
  5020   0012D8  A0D8               	btfss	status,0,c
  5021   0012DA  D002               	goto	i2u232_40
  5022   0012DC  8A8C               	bsf	3980,5,c	;volatile
  5023   0012DE  D001               	goto	i2u233_45
  5024   0012E0                     i2u232_40:
  5025   0012E0  9A8C               	bcf	3980,5,c	;volatile
  5026   0012E2                     i2u233_45:
  5027                           
  5028                           ;lcd.c: 39: LATD6 = (data >> 6) & 1;
  5029   0012E2  C003  F001         	movff	i2Lcd_Char@data,??i2_Lcd_Char
  5030   0012E6  0E06               	movlw	6
  5031   0012E8  6E02               	movwf	(??i2_Lcd_Char+1)^0,c
  5032   0012EA                     i2u234_45:
  5033   0012EA  90D8               	bcf	status,0,c
  5034   0012EC  3201               	rrcf	??i2_Lcd_Char^0,f,c
  5035   0012EE  2E02               	decfsz	(??i2_Lcd_Char+1)^0,f,c
  5036   0012F0  D7FC               	goto	i2u234_45
  5037   0012F2  3001               	rrcf	??i2_Lcd_Char^0,w,c
  5038   0012F4  A0D8               	btfss	status,0,c
  5039   0012F6  D002               	goto	i2u235_40
  5040   0012F8  8C8C               	bsf	3980,6,c	;volatile
  5041   0012FA  D001               	goto	i2u236_45
  5042   0012FC                     i2u235_40:
  5043   0012FC  9C8C               	bcf	3980,6,c	;volatile
  5044   0012FE                     i2u236_45:
  5045                           
  5046                           ;lcd.c: 40: LATD7 = (data >> 7) & 1;
  5047   0012FE  6A01               	clrf	??i2_Lcd_Char^0,c
  5048   001300  AE03               	btfss	i2Lcd_Char@data^0,7,c
  5049   001302  D001               	bra	i2u237_45
  5050   001304  2A01               	incf	??i2_Lcd_Char^0,f,c
  5051   001306                     i2u237_45:
  5052   001306  3001               	rrcf	??i2_Lcd_Char^0,w,c
  5053   001308  A0D8               	btfss	status,0,c
  5054   00130A  D002               	goto	i2u238_40
  5055   00130C  8E8C               	bsf	3980,7,c	;volatile
  5056   00130E  D001               	goto	i2u239_45
  5057   001310                     i2u238_40:
  5058   001310  9E8C               	bcf	3980,7,c	;volatile
  5059   001312                     i2u239_45:
  5060                           
  5061                           ;lcd.c: 41: LATA4 = 1; _delay((unsigned long)((200)*(1000000/4000000.0))); LATA4 = 0;
  5062   001312  8889               	bsf	3977,4,c	;volatile
  5063   001314  0E10               	movlw	16
  5064   001316                     i2u448_47:
  5065   001316  2EE8               	decfsz	wreg,f,c
  5066   001318  D7FE               	bra	i2u448_47
  5067   00131A  D000               	nop2	
  5068   00131C  9889               	bcf	3977,4,c	;volatile
  5069                           
  5070                           ;lcd.c: 43: LATD4 = data & 1;
  5071   00131E  A003               	btfss	i2Lcd_Char@data^0,0,c
  5072   001320  D002               	goto	i2u240_40
  5073   001322  888C               	bsf	3980,4,c	;volatile
  5074   001324  D001               	goto	i2u241_45
  5075   001326                     i2u240_40:
  5076   001326  988C               	bcf	3980,4,c	;volatile
  5077   001328                     i2u241_45:
  5078                           
  5079                           ;lcd.c: 44: LATD5 = (data >> 1) & 1;
  5080   001328  C003  F001         	movff	i2Lcd_Char@data,??i2_Lcd_Char
  5081   00132C  90D8               	bcf	status,0,c
  5082   00132E  3201               	rrcf	??i2_Lcd_Char^0,f,c
  5083   001330  3001               	rrcf	??i2_Lcd_Char^0,w,c
  5084   001332  A0D8               	btfss	status,0,c
  5085   001334  D002               	goto	i2u242_40
  5086   001336  8A8C               	bsf	3980,5,c	;volatile
  5087   001338  D001               	goto	i2u243_45
  5088   00133A                     i2u242_40:
  5089   00133A  9A8C               	bcf	3980,5,c	;volatile
  5090   00133C                     i2u243_45:
  5091                           
  5092                           ;lcd.c: 45: LATD6 = (data >> 2) & 1;
  5093   00133C  C003  F001         	movff	i2Lcd_Char@data,??i2_Lcd_Char
  5094   001340  90D8               	bcf	status,0,c
  5095   001342  3201               	rrcf	??i2_Lcd_Char^0,f,c
  5096   001344  90D8               	bcf	status,0,c
  5097   001346  3201               	rrcf	??i2_Lcd_Char^0,f,c
  5098   001348  3001               	rrcf	??i2_Lcd_Char^0,w,c
  5099   00134A  A0D8               	btfss	status,0,c
  5100   00134C  D002               	goto	i2u244_40
  5101   00134E  8C8C               	bsf	3980,6,c	;volatile
  5102   001350  D001               	goto	i2u245_45
  5103   001352                     i2u244_40:
  5104   001352  9C8C               	bcf	3980,6,c	;volatile
  5105   001354                     i2u245_45:
  5106                           
  5107                           ;lcd.c: 46: LATD7 = (data >> 3) & 1;
  5108   001354  C003  F001         	movff	i2Lcd_Char@data,??i2_Lcd_Char
  5109   001358  90D8               	bcf	status,0,c
  5110   00135A  3201               	rrcf	??i2_Lcd_Char^0,f,c
  5111   00135C  90D8               	bcf	status,0,c
  5112   00135E  3201               	rrcf	??i2_Lcd_Char^0,f,c
  5113   001360  90D8               	bcf	status,0,c
  5114   001362  3201               	rrcf	??i2_Lcd_Char^0,f,c
  5115   001364  3001               	rrcf	??i2_Lcd_Char^0,w,c
  5116   001366  A0D8               	btfss	status,0,c
  5117   001368  D002               	goto	i2u246_40
  5118   00136A  8E8C               	bsf	3980,7,c	;volatile
  5119   00136C  D001               	goto	i2u247_45
  5120   00136E                     i2u246_40:
  5121   00136E  9E8C               	bcf	3980,7,c	;volatile
  5122   001370                     i2u247_45:
  5123                           
  5124                           ;lcd.c: 47: LATA4 = 1; _delay((unsigned long)((200)*(1000000/4000000.0))); LATA4 = 0;
  5125   001370  8889               	bsf	3977,4,c	;volatile
  5126   001372  0E10               	movlw	16
  5127   001374                     i2u449_47:
  5128   001374  2EE8               	decfsz	wreg,f,c
  5129   001376  D7FE               	bra	i2u449_47
  5130   001378  D000               	nop2	
  5131   00137A  9889               	bcf	3977,4,c	;volatile
  5132   00137C  0012               	return		;funcret
  5133   00137E                     __end_ofi2_Lcd_Char:
  5134                           	callstack 0
  5135                           
  5136 ;; *************** function i2_Lcd_Set_Cursor *****************
  5137 ;; Defined at:
  5138 ;;		line 56 in file "lcd.c"
  5139 ;; Parameters:    Size  Location     Type
  5140 ;;  row             1    wreg     unsigned char 
  5141 ;;  column          1    3[COMRAM] unsigned char 
  5142 ;; Auto vars:     Size  Location     Type
  5143 ;;  row             1    4[COMRAM] unsigned char 
  5144 ;;  pos             1    7[COMRAM] unsigned char 
  5145 ;; Return value:  Size  Location     Type
  5146 ;;                  1    wreg      void 
  5147 ;; Registers used:
  5148 ;;		wreg, status,2, status,0, cstack
  5149 ;; Tracked objects:
  5150 ;;		On entry : 0/0
  5151 ;;		On exit  : 0/0
  5152 ;;		Unchanged: 0/0
  5153 ;; Data sizes:     COMRAM   BANK0   BANK1   BANK2   BANK3   BANK4   BANK5   BANK6   BANK7
  5154 ;;      Params:         1       0       0       0       0       0       0       0       0
  5155 ;;      Locals:         4       0       0       0       0       0       0       0       0
  5156 ;;      Temps:          0       0       0       0       0       0       0       0       0
  5157 ;;      Totals:         5       0       0       0       0       0       0       0       0
  5158 ;;Total ram usage:        5 bytes
  5159 ;; Hardware stack levels used: 1
  5160 ;; Hardware stack levels required when called: 1
  5161 ;; This function calls:
  5162 ;;		i2_Lcd_Cmd
  5163 ;; This function is called by:
  5164 ;;		i2_mostrar_conteo
  5165 ;;		i2_mostrar_valor
  5166 ;;		i2_mostrar_completado
  5167 ;; This function uses a non-reentrant model
  5168 ;;
  5169                           
  5170                           	psect	text32
  5171   001A20                     __ptext32:
  5172                           	callstack 0
  5173   001A20                     i2_Lcd_Set_Cursor:
  5174                           	callstack 24
  5175                           
  5176                           ;incstack = 0
  5177                           ;i2Lcd_Set_Cursor@row stored from wreg
  5178   001A20  6E05               	movwf	i2Lcd_Set_Cursor@row^0,c
  5179                           
  5180                           ;lcd.c: 57: char pos = (row == 1) ? 0x80 + (column - 1) : 0xC0 + (column - 1);
  5181   001A22  0405               	decf	i2Lcd_Set_Cursor@row^0,w,c
  5182   001A24  B4D8               	btfsc	status,2,c
  5183   001A26  D002               	goto	i2l2230
  5184   001A28  0EBF               	movlw	191
  5185   001A2A  D001               	goto	L17
  5186   001A2C                     i2l2230:
  5187   001A2C  0E7F               	movlw	127
  5188   001A2E                     L17:
  5189   001A2E  2404               	addwf	i2Lcd_Set_Cursor@column^0,w,c
  5190   001A30  6E06               	movwf	i2_Lcd_Set_Cursor$120^0,c
  5191   001A32  6A07               	clrf	(i2_Lcd_Set_Cursor$120+1)^0,c
  5192   001A34  0E00               	movlw	0
  5193   001A36  2207               	addwfc	(i2_Lcd_Set_Cursor$120+1)^0,f,c
  5194   001A38  C006  F008         	movff	i2_Lcd_Set_Cursor$120,i2Lcd_Set_Cursor@pos
  5195                           
  5196                           ;lcd.c: 58: Lcd_Cmd(pos);
  5197   001A3C  5008               	movf	i2Lcd_Set_Cursor@pos^0,w,c
  5198   001A3E  ECBF  F009         	call	i2_Lcd_Cmd
  5199   001A42  0012               	return		;funcret
  5200   001A44                     __end_ofi2_Lcd_Set_Cursor:
  5201                           	callstack 0
  5202                           
  5203 ;; *************** function i2_Lcd_Clear *****************
  5204 ;; Defined at:
  5205 ;;		line 61 in file "lcd.c"
  5206 ;; Parameters:    Size  Location     Type
  5207 ;;		None
  5208 ;; Auto vars:     Size  Location     Type
  5209 ;;		None
  5210 ;; Return value:  Size  Location     Type
  5211 ;;                  1    wreg      void 
  5212 ;; Registers used:
  5213 ;;		wreg, status,2, status,0, cstack
  5214 ;; Tracked objects:
  5215 ;;		On entry : 0/0
  5216 ;;		On exit  : 0/0
  5217 ;;		Unchanged: 0/0
  5218 ;; Data sizes:     COMRAM   BANK0   BANK1   BANK2   BANK3   BANK4   BANK5   BANK6   BANK7
  5219 ;;      Params:         0       0       0       0       0       0       0       0       0
  5220 ;;      Locals:         0       0       0       0       0       0       0       0       0
  5221 ;;      Temps:          0       0       0       0       0       0       0       0       0
  5222 ;;      Totals:         0       0       0       0       0       0       0       0       0
  5223 ;;Total ram usage:        0 bytes
  5224 ;; Hardware stack levels used: 1
  5225 ;; Hardware stack levels required when called: 1
  5226 ;; This function calls:
  5227 ;;		i2_Lcd_Cmd
  5228 ;; This function is called by:
  5229 ;;		_ISR
  5230 ;;		i2_mostrar_conteo
  5231 ;;		i2_mostrar_valor
  5232 ;;		i2_mostrar_completado
  5233 ;; This function uses a non-reentrant model
  5234 ;;
  5235                           
  5236                           	psect	text33
  5237   001AA8                     __ptext33:
  5238                           	callstack 0
  5239   001AA8                     i2_Lcd_Clear:
  5240                           	callstack 24
  5241                           
  5242                           ;lcd.c: 62: Lcd_Cmd(0x01);
  5243                           
  5244                           ;incstack = 0
  5245   001AA8  0E01               	movlw	1
  5246   001AAA  ECBF  F009         	call	i2_Lcd_Cmd
  5247                           
  5248                           ;lcd.c: 63: _delay((unsigned long)((2)*(1000000/4000.0)));
  5249   001AAE  0EA6               	movlw	166
  5250   001AB0                     i2u450_47:
  5251   001AB0  2EE8               	decfsz	wreg,f,c
  5252   001AB2  D7FE               	bra	i2u450_47
  5253   001AB4  D000               	nop2	
  5254   001AB6  0012               	return		;funcret
  5255   001AB8                     __end_ofi2_Lcd_Clear:
  5256                           	callstack 0
  5257                           
  5258 ;; *************** function i2_Lcd_Cmd *****************
  5259 ;; Defined at:
  5260 ;;		line 20 in file "lcd.c"
  5261 ;; Parameters:    Size  Location     Type
  5262 ;;  cmd             1    wreg     unsigned char 
  5263 ;; Auto vars:     Size  Location     Type
  5264 ;;  cmd             1    2[COMRAM] unsigned char 
  5265 ;; Return value:  Size  Location     Type
  5266 ;;                  1    wreg      void 
  5267 ;; Registers used:
  5268 ;;		wreg, status,2, status,0
  5269 ;; Tracked objects:
  5270 ;;		On entry : 0/0
  5271 ;;		On exit  : 0/0
  5272 ;;		Unchanged: 0/0
  5273 ;; Data sizes:     COMRAM   BANK0   BANK1   BANK2   BANK3   BANK4   BANK5   BANK6   BANK7
  5274 ;;      Params:         0       0       0       0       0       0       0       0       0
  5275 ;;      Locals:         1       0       0       0       0       0       0       0       0
  5276 ;;      Temps:          2       0       0       0       0       0       0       0       0
  5277 ;;      Totals:         3       0       0       0       0       0       0       0       0
  5278 ;;Total ram usage:        3 bytes
  5279 ;; Hardware stack levels used: 1
  5280 ;; This function calls:
  5281 ;;		Nothing
  5282 ;; This function is called by:
  5283 ;;		i2_Lcd_Set_Cursor
  5284 ;;		i2_Lcd_Clear
  5285 ;; This function uses a non-reentrant model
  5286 ;;
  5287                           
  5288                           	psect	text34
  5289   00137E                     __ptext34:
  5290                           	callstack 0
  5291   00137E                     i2_Lcd_Cmd:
  5292                           	callstack 24
  5293                           
  5294                           ;incstack = 0
  5295                           ;i2Lcd_Cmd@cmd stored from wreg
  5296   00137E  6E03               	movwf	i2Lcd_Cmd@cmd^0,c
  5297                           
  5298                           ;lcd.c: 21: LATA3 = 0;
  5299   001380  9689               	bcf	3977,3,c	;volatile
  5300                           
  5301                           ;lcd.c: 22: LATD4 = (cmd >> 4) & 1;
  5302   001382  C003  F001         	movff	i2Lcd_Cmd@cmd,??i2_Lcd_Cmd
  5303   001386  3A01               	swapf	??i2_Lcd_Cmd^0,f,c
  5304   001388  0E0F               	movlw	15
  5305   00138A  1601               	andwf	??i2_Lcd_Cmd^0,f,c
  5306   00138C  3001               	rrcf	??i2_Lcd_Cmd^0,w,c
  5307   00138E  A0D8               	btfss	status,0,c
  5308   001390  D002               	goto	i2u210_40
  5309   001392  888C               	bsf	3980,4,c	;volatile
  5310   001394  D001               	goto	i2u211_45
  5311   001396                     i2u210_40:
  5312   001396  988C               	bcf	3980,4,c	;volatile
  5313   001398                     i2u211_45:
  5314                           
  5315                           ;lcd.c: 23: LATD5 = (cmd >> 5) & 1;
  5316   001398  C003  F001         	movff	i2Lcd_Cmd@cmd,??i2_Lcd_Cmd
  5317   00139C  0E05               	movlw	5
  5318   00139E  6E02               	movwf	(??i2_Lcd_Cmd+1)^0,c
  5319   0013A0                     i2u212_45:
  5320   0013A0  90D8               	bcf	status,0,c
  5321   0013A2  3201               	rrcf	??i2_Lcd_Cmd^0,f,c
  5322   0013A4  2E02               	decfsz	(??i2_Lcd_Cmd+1)^0,f,c
  5323   0013A6  D7FC               	goto	i2u212_45
  5324   0013A8  3001               	rrcf	??i2_Lcd_Cmd^0,w,c
  5325   0013AA  A0D8               	btfss	status,0,c
  5326   0013AC  D002               	goto	i2u213_40
  5327   0013AE  8A8C               	bsf	3980,5,c	;volatile
  5328   0013B0  D001               	goto	i2u214_45
  5329   0013B2                     i2u213_40:
  5330   0013B2  9A8C               	bcf	3980,5,c	;volatile
  5331   0013B4                     i2u214_45:
  5332                           
  5333                           ;lcd.c: 24: LATD6 = (cmd >> 6) & 1;
  5334   0013B4  C003  F001         	movff	i2Lcd_Cmd@cmd,??i2_Lcd_Cmd
  5335   0013B8  0E06               	movlw	6
  5336   0013BA  6E02               	movwf	(??i2_Lcd_Cmd+1)^0,c
  5337   0013BC                     i2u215_45:
  5338   0013BC  90D8               	bcf	status,0,c
  5339   0013BE  3201               	rrcf	??i2_Lcd_Cmd^0,f,c
  5340   0013C0  2E02               	decfsz	(??i2_Lcd_Cmd+1)^0,f,c
  5341   0013C2  D7FC               	goto	i2u215_45
  5342   0013C4  3001               	rrcf	??i2_Lcd_Cmd^0,w,c
  5343   0013C6  A0D8               	btfss	status,0,c
  5344   0013C8  D002               	goto	i2u216_40
  5345   0013CA  8C8C               	bsf	3980,6,c	;volatile
  5346   0013CC  D001               	goto	i2u217_45
  5347   0013CE                     i2u216_40:
  5348   0013CE  9C8C               	bcf	3980,6,c	;volatile
  5349   0013D0                     i2u217_45:
  5350                           
  5351                           ;lcd.c: 25: LATD7 = (cmd >> 7) & 1;
  5352   0013D0  6A01               	clrf	??i2_Lcd_Cmd^0,c
  5353   0013D2  AE03               	btfss	i2Lcd_Cmd@cmd^0,7,c
  5354   0013D4  D001               	bra	i2u218_45
  5355   0013D6  2A01               	incf	??i2_Lcd_Cmd^0,f,c
  5356   0013D8                     i2u218_45:
  5357   0013D8  3001               	rrcf	??i2_Lcd_Cmd^0,w,c
  5358   0013DA  A0D8               	btfss	status,0,c
  5359   0013DC  D002               	goto	i2u219_40
  5360   0013DE  8E8C               	bsf	3980,7,c	;volatile
  5361   0013E0  D001               	goto	i2u220_45
  5362   0013E2                     i2u219_40:
  5363   0013E2  9E8C               	bcf	3980,7,c	;volatile
  5364   0013E4                     i2u220_45:
  5365                           
  5366                           ;lcd.c: 26: LATA4 = 1; _delay((unsigned long)((2)*(1000000/4000.0))); LATA4 = 0;
  5367   0013E4  8889               	bsf	3977,4,c	;volatile
  5368   0013E6  0EA6               	movlw	166
  5369   0013E8                     i2u451_47:
  5370   0013E8  2EE8               	decfsz	wreg,f,c
  5371   0013EA  D7FE               	bra	i2u451_47
  5372   0013EC  D000               	nop2	
  5373   0013EE  9889               	bcf	3977,4,c	;volatile
  5374                           
  5375                           ;lcd.c: 28: LATD4 = cmd & 1;
  5376   0013F0  A003               	btfss	i2Lcd_Cmd@cmd^0,0,c
  5377   0013F2  D002               	goto	i2u221_40
  5378   0013F4  888C               	bsf	3980,4,c	;volatile
  5379   0013F6  D001               	goto	i2u222_45
  5380   0013F8                     i2u221_40:
  5381   0013F8  988C               	bcf	3980,4,c	;volatile
  5382   0013FA                     i2u222_45:
  5383                           
  5384                           ;lcd.c: 29: LATD5 = (cmd >> 1) & 1;
  5385   0013FA  C003  F001         	movff	i2Lcd_Cmd@cmd,??i2_Lcd_Cmd
  5386   0013FE  90D8               	bcf	status,0,c
  5387   001400  3201               	rrcf	??i2_Lcd_Cmd^0,f,c
  5388   001402  3001               	rrcf	??i2_Lcd_Cmd^0,w,c
  5389   001404  A0D8               	btfss	status,0,c
  5390   001406  D002               	goto	i2u223_40
  5391   001408  8A8C               	bsf	3980,5,c	;volatile
  5392   00140A  D001               	goto	i2u224_45
  5393   00140C                     i2u223_40:
  5394   00140C  9A8C               	bcf	3980,5,c	;volatile
  5395   00140E                     i2u224_45:
  5396                           
  5397                           ;lcd.c: 30: LATD6 = (cmd >> 2) & 1;
  5398   00140E  C003  F001         	movff	i2Lcd_Cmd@cmd,??i2_Lcd_Cmd
  5399   001412  90D8               	bcf	status,0,c
  5400   001414  3201               	rrcf	??i2_Lcd_Cmd^0,f,c
  5401   001416  90D8               	bcf	status,0,c
  5402   001418  3201               	rrcf	??i2_Lcd_Cmd^0,f,c
  5403   00141A  3001               	rrcf	??i2_Lcd_Cmd^0,w,c
  5404   00141C  A0D8               	btfss	status,0,c
  5405   00141E  D002               	goto	i2u225_40
  5406   001420  8C8C               	bsf	3980,6,c	;volatile
  5407   001422  D001               	goto	i2u226_45
  5408   001424                     i2u225_40:
  5409   001424  9C8C               	bcf	3980,6,c	;volatile
  5410   001426                     i2u226_45:
  5411                           
  5412                           ;lcd.c: 31: LATD7 = (cmd >> 3) & 1;
  5413   001426  C003  F001         	movff	i2Lcd_Cmd@cmd,??i2_Lcd_Cmd
  5414   00142A  90D8               	bcf	status,0,c
  5415   00142C  3201               	rrcf	??i2_Lcd_Cmd^0,f,c
  5416   00142E  90D8               	bcf	status,0,c
  5417   001430  3201               	rrcf	??i2_Lcd_Cmd^0,f,c
  5418   001432  90D8               	bcf	status,0,c
  5419   001434  3201               	rrcf	??i2_Lcd_Cmd^0,f,c
  5420   001436  3001               	rrcf	??i2_Lcd_Cmd^0,w,c
  5421   001438  A0D8               	btfss	status,0,c
  5422   00143A  D002               	goto	i2u227_40
  5423   00143C  8E8C               	bsf	3980,7,c	;volatile
  5424   00143E  D001               	goto	i2u228_45
  5425   001440                     i2u227_40:
  5426   001440  9E8C               	bcf	3980,7,c	;volatile
  5427   001442                     i2u228_45:
  5428                           
  5429                           ;lcd.c: 32: LATA4 = 1; _delay((unsigned long)((2)*(1000000/4000.0))); LATA4 = 0;
  5430   001442  8889               	bsf	3977,4,c	;volatile
  5431   001444  0EA6               	movlw	166
  5432   001446                     i2u452_47:
  5433   001446  2EE8               	decfsz	wreg,f,c
  5434   001448  D7FE               	bra	i2u452_47
  5435   00144A  D000               	nop2	
  5436   00144C  9889               	bcf	3977,4,c	;volatile
  5437   00144E  0012               	return		;funcret
  5438   001450                     __end_ofi2_Lcd_Cmd:
  5439                           	callstack 0
  5440                           
  5441                           	psect	rparam
  5442   000001                     ___rparam_used  equ	1
  5443   000000                     ___param_bank   equ	0
  5444   000000                     __Lparam        equ	__Lrparam
  5445   000000                     __Hparam        equ	__Hrparam
  5446                           
  5447                           	psect	temp
  5448   00004D                     btemp:
  5449                           	callstack 0
  5450   00004D                     	ds	1
  5451   00004D                     int$flags       set	btemp
  5452   00004E                     wtemp8          set	btemp+1
  5453   00004E                     ttemp5          set	btemp+1
  5454   000051                     ttemp6          set	btemp+4
  5455   000055                     ttemp7          set	btemp+8
  5456                           
  5457                           	psect	idloc
  5458                           
  5459                           ;Config register IDLOC0 @ 0x200000
  5460                           ;	unspecified, using default values
  5461   200000                     	org	2097152
  5462   200000  FF                 	db	255
  5463                           
  5464                           ;Config register IDLOC1 @ 0x200001
  5465                           ;	unspecified, using default values
  5466   200001                     	org	2097153
  5467   200001  FF                 	db	255
  5468                           
  5469                           ;Config register IDLOC2 @ 0x200002
  5470                           ;	unspecified, using default values
  5471   200002                     	org	2097154
  5472   200002  FF                 	db	255
  5473                           
  5474                           ;Config register IDLOC3 @ 0x200003
  5475                           ;	unspecified, using default values
  5476   200003                     	org	2097155
  5477   200003  FF                 	db	255
  5478                           
  5479                           ;Config register IDLOC4 @ 0x200004
  5480                           ;	unspecified, using default values
  5481   200004                     	org	2097156
  5482   200004  FF                 	db	255
  5483                           
  5484                           ;Config register IDLOC5 @ 0x200005
  5485                           ;	unspecified, using default values
  5486   200005                     	org	2097157
  5487   200005  FF                 	db	255
  5488                           
  5489                           ;Config register IDLOC6 @ 0x200006
  5490                           ;	unspecified, using default values
  5491   200006                     	org	2097158
  5492   200006  FF                 	db	255
  5493                           
  5494                           ;Config register IDLOC7 @ 0x200007
  5495                           ;	unspecified, using default values
  5496   200007                     	org	2097159
  5497   200007  FF                 	db	255
  5498                           
  5499                           	psect	config
  5500                           
  5501                           ;Config register CONFIG1L @ 0x300000
  5502                           ;	unspecified, using default values
  5503                           ;	PLL Prescaler Selection bits
  5504                           ;	PLLDIV = 0x0, unprogrammed default
  5505                           ;	System Clock Postscaler Selection bits
  5506                           ;	CPUDIV = 0x0, unprogrammed default
  5507                           ;	USB Clock Selection bit (used in Full-Speed USB mode only; UCFG:FSEN = 1)
  5508                           ;	USBDIV = 0x0, unprogrammed default
  5509   300000                     	org	3145728
  5510   300000  00                 	db	0
  5511                           
  5512                           ;Config register CONFIG1H @ 0x300001
  5513                           ;	Oscillator Selection bits
  5514                           ;	FOSC = INTOSC_EC, Internal oscillator, CLKO function on RA6, EC used by USB (INTCKO)
  5515                           ;	Fail-Safe Clock Monitor Enable bit
  5516                           ;	FCMEN = 0x0, unprogrammed default
  5517                           ;	Internal/External Oscillator Switchover bit
  5518                           ;	IESO = 0x0, unprogrammed default
  5519   300001                     	org	3145729
  5520   300001  09                 	db	9
  5521                           
  5522                           ;Config register CONFIG2L @ 0x300002
  5523                           ;	unspecified, using default values
  5524                           ;	Power-up Timer Enable bit
  5525                           ;	PWRT = 0x1, unprogrammed default
  5526                           ;	Brown-out Reset Enable bits
  5527                           ;	BOR = 0x3, unprogrammed default
  5528                           ;	Brown-out Reset Voltage bits
  5529                           ;	BORV = 0x3, unprogrammed default
  5530                           ;	USB Voltage Regulator Enable bit
  5531                           ;	VREGEN = 0x0, unprogrammed default
  5532   300002                     	org	3145730
  5533   300002  1F                 	db	31
  5534                           
  5535                           ;Config register CONFIG2H @ 0x300003
  5536                           ;	Watchdog Timer Enable bit
  5537                           ;	WDT = OFF, WDT disabled (control is placed on the SWDTEN bit)
  5538                           ;	Watchdog Timer Postscale Select bits
  5539                           ;	WDTPS = 0xF, unprogrammed default
  5540   300003                     	org	3145731
  5541   300003  1E                 	db	30
  5542                           
  5543                           ; Padding undefined space
  5544   300004                     	org	3145732
  5545   300004  FF                 	db	255
  5546                           
  5547                           ;Config register CONFIG3H @ 0x300005
  5548                           ;	CCP2 MUX bit
  5549                           ;	CCP2MX = 0x1, unprogrammed default
  5550                           ;	PORTB A/D Enable bit
  5551                           ;	PBADEN = OFF, PORTB<4:0> pins are configured as digital I/O on Reset
  5552                           ;	Low-Power Timer 1 Oscillator Enable bit
  5553                           ;	LPT1OSC = 0x0, unprogrammed default
  5554                           ;	MCLR Pin Enable bit
  5555                           ;	MCLRE = 0x1, unprogrammed default
  5556   300005                     	org	3145733
  5557   300005  81                 	db	129
  5558                           
  5559                           ;Config register CONFIG4L @ 0x300006
  5560                           ;	Stack Full/Underflow Reset Enable bit
  5561                           ;	STVREN = 0x1, unprogrammed default
  5562                           ;	Single-Supply ICSP Enable bit
  5563                           ;	LVP = OFF, Single-Supply ICSP disabled
  5564                           ;	Dedicated In-Circuit Debug/Programming Port (ICPORT) Enable bit
  5565                           ;	ICPRT = 0x0, unprogrammed default
  5566                           ;	Extended Instruction Set Enable bit
  5567                           ;	XINST = 0x0, unprogrammed default
  5568                           ;	Background Debugger Enable bit
  5569                           ;	DEBUG = 0x1, unprogrammed default
  5570   300006                     	org	3145734
  5571   300006  81                 	db	129
  5572                           
  5573                           ; Padding undefined space
  5574   300007                     	org	3145735
  5575   300007  FF                 	db	255
  5576                           
  5577                           ;Config register CONFIG5L @ 0x300008
  5578                           ;	unspecified, using default values
  5579                           ;	Code Protection bit
  5580                           ;	CP0 = 0x1, unprogrammed default
  5581                           ;	Code Protection bit
  5582                           ;	CP1 = 0x1, unprogrammed default
  5583                           ;	Code Protection bit
  5584                           ;	CP2 = 0x1, unprogrammed default
  5585                           ;	Code Protection bit
  5586                           ;	CP3 = 0x1, unprogrammed default
  5587   300008                     	org	3145736
  5588   300008  0F                 	db	15
  5589                           
  5590                           ;Config register CONFIG5H @ 0x300009
  5591                           ;	unspecified, using default values
  5592                           ;	Boot Block Code Protection bit
  5593                           ;	CPB = 0x1, unprogrammed default
  5594                           ;	Data EEPROM Code Protection bit
  5595                           ;	CPD = 0x1, unprogrammed default
  5596   300009                     	org	3145737
  5597   300009  C0                 	db	192
  5598                           
  5599                           ;Config register CONFIG6L @ 0x30000A
  5600                           ;	unspecified, using default values
  5601                           ;	Write Protection bit
  5602                           ;	WRT0 = 0x1, unprogrammed default
  5603                           ;	Write Protection bit
  5604                           ;	WRT1 = 0x1, unprogrammed default
  5605                           ;	Write Protection bit
  5606                           ;	WRT2 = 0x1, unprogrammed default
  5607                           ;	Write Protection bit
  5608                           ;	WRT3 = 0x1, unprogrammed default
  5609   30000A                     	org	3145738
  5610   30000A  0F                 	db	15
  5611                           
  5612                           ;Config register CONFIG6H @ 0x30000B
  5613                           ;	unspecified, using default values
  5614                           ;	Configuration Register Write Protection bit
  5615                           ;	WRTC = 0x1, unprogrammed default
  5616                           ;	Boot Block Write Protection bit
  5617                           ;	WRTB = 0x1, unprogrammed default
  5618                           ;	Data EEPROM Write Protection bit
  5619                           ;	WRTD = 0x1, unprogrammed default
  5620   30000B                     	org	3145739
  5621   30000B  E0                 	db	224
  5622                           
  5623                           ;Config register CONFIG7L @ 0x30000C
  5624                           ;	unspecified, using default values
  5625                           ;	Table Read Protection bit
  5626                           ;	EBTR0 = 0x1, unprogrammed default
  5627                           ;	Table Read Protection bit
  5628                           ;	EBTR1 = 0x1, unprogrammed default
  5629                           ;	Table Read Protection bit
  5630                           ;	EBTR2 = 0x1, unprogrammed default
  5631                           ;	Table Read Protection bit
  5632                           ;	EBTR3 = 0x1, unprogrammed default
  5633   30000C                     	org	3145740
  5634   30000C  0F                 	db	15
  5635                           
  5636                           ;Config register CONFIG7H @ 0x30000D
  5637                           ;	unspecified, using default values
  5638                           ;	Boot Block Table Read Protection bit
  5639                           ;	EBTRB = 0x1, unprogrammed default
  5640   30000D                     	org	3145741
  5641   30000D  40                 	db	64
  5642                           tosu	equ	0xFFF
  5643                           tosh	equ	0xFFE
  5644                           tosl	equ	0xFFD
  5645                           stkptr	equ	0xFFC
  5646                           pclatu	equ	0xFFB
  5647                           pclath	equ	0xFFA
  5648                           pcl	equ	0xFF9
  5649                           tblptru	equ	0xFF8
  5650                           tblptrh	equ	0xFF7
  5651                           tblptrl	equ	0xFF6
  5652                           tablat	equ	0xFF5
  5653                           prodh	equ	0xFF4
  5654                           prodl	equ	0xFF3
  5655                           indf0	equ	0xFEF
  5656                           postinc0	equ	0xFEE
  5657                           postdec0	equ	0xFED
  5658                           preinc0	equ	0xFEC
  5659                           plusw0	equ	0xFEB
  5660                           fsr0h	equ	0xFEA
  5661                           fsr0l	equ	0xFE9
  5662                           wreg	equ	0xFE8
  5663                           indf1	equ	0xFE7
  5664                           postinc1	equ	0xFE6
  5665                           postdec1	equ	0xFE5
  5666                           preinc1	equ	0xFE4
  5667                           plusw1	equ	0xFE3
  5668                           fsr1h	equ	0xFE2
  5669                           fsr1l	equ	0xFE1
  5670                           bsr	equ	0xFE0
  5671                           indf2	equ	0xFDF
  5672                           postinc2	equ	0xFDE
  5673                           postdec2	equ	0xFDD
  5674                           preinc2	equ	0xFDC
  5675                           plusw2	equ	0xFDB
  5676                           fsr2h	equ	0xFDA
  5677                           fsr2l	equ	0xFD9
  5678                           status	equ	0xFD8

Data Sizes:
    Strings     130
    Constant    81
    Data        1
    BSS         12
    Persistent  0
    Stack       0

Auto Spaces:
    Space          Size  Autos    Used
    COMRAM           94     63      76
    BANK0           160      4       4
    BANK1           256      0       0
    BANK2           256      0       0
    BANK3           256      0       0
    BANK4           256      0       0
    BANK5           256      0       0
    BANK6           256      0       0
    BANK7           256      0       0

Pointer List with Targets:

    LCD_CrearCaracter@pattern	PTR const unsigned char  size(1) Largest target is 8
		 -> explosion(CODE[8]), rpg(CODE[8]), runner0(CODE[8]), runner1(CODE[8]), 
		 -> runner2(CODE[8]), 

    Lcd_String@str	PTR const unsigned char  size(1) Largest target is 22
		 -> STR_1(CODE[15]), STR_2(CODE[10]), STR_3(CODE[11]), STR_4(CODE[15]), 
		 -> STR_5(CODE[17]), STR_6(CODE[12]), STR_7(CODE[15]), STR_8(CODE[13]), 
		 -> STR_9(CODE[22]), 


Critical Paths under _main in COMRAM

    _main->_lcd_animacion_bienvenida
    _mostrar_valor->_Lcd_Set_Cursor
    _mostrar_conteo->_color
    _unidad->___lwmod
    _color->___lwdiv
    _mostrar_completado->_Lcd_Set_Cursor
    _lcd_animacion_bienvenida->_Lcd_Set_Cursor
    _LCD_CrearCaracter->_Lcd_Char
    _LCD_CrearCaracter->_Lcd_Cmd
    _emergencia->_Lcd_Set_Cursor
    _Lcd_String->_Lcd_Char
    _Lcd_Set_Cursor->_Lcd_Cmd
    _Lcd_Init->_Lcd_Cmd
    _Lcd_Clear->_Lcd_Cmd

Critical Paths under _ISR in COMRAM

    _ISR->i2_mostrar_conteo
    i2_mostrar_valor->i2_Lcd_Set_Cursor
    i2_mostrar_conteo->i2_color
    i2_unidad->i2___lwmod
    i2_color->i2___lwdiv
    i2_mostrar_completado->i2_Lcd_Set_Cursor
    i2_Lcd_String->i2_Lcd_Char
    i2_Lcd_Set_Cursor->i2_Lcd_Cmd
    i2_Lcd_Clear->i2_Lcd_Cmd

Critical Paths under _main in BANK0

    None.

Critical Paths under _ISR in BANK0

    None.

Critical Paths under _main in BANK1

    None.

Critical Paths under _ISR in BANK1

    None.

Critical Paths under _main in BANK2

    None.

Critical Paths under _ISR in BANK2

    None.

Critical Paths under _main in BANK3

    None.

Critical Paths under _ISR in BANK3

    None.

Critical Paths under _main in BANK4

    None.

Critical Paths under _ISR in BANK4

    None.

Critical Paths under _main in BANK5

    None.

Critical Paths under _ISR in BANK5

    None.

Critical Paths under _main in BANK6

    None.

Critical Paths under _ISR in BANK6

    None.

Critical Paths under _main in BANK7

    None.

Critical Paths under _ISR in BANK7

    None.

Call Graph Tables:

 ---------------------------------------------------------------------------------
 (Depth) Function   	        Calls       Base Space   Used Autos Params    Refs
 ---------------------------------------------------------------------------------
 (0) _main                                                 4     4      0   15162
                                              0 BANK0      4     4      0
                           _Lcd_Char
                          _Lcd_Clear
                           _Lcd_Init
                     _Lcd_Set_Cursor
                         _Lcd_String
                            ___lwdiv
                            ___lwmod
                         _emergencia
               _inicializar_hardware
           _lcd_animacion_bienvenida
                 _mostrar_completado
                     _mostrar_conteo
                      _mostrar_valor
 ---------------------------------------------------------------------------------
 (1) _mostrar_valor                                        0     0      0    1457
                          _Lcd_Clear
                     _Lcd_Set_Cursor
                         _Lcd_String
 ---------------------------------------------------------------------------------
 (1) _mostrar_conteo                                       2     2      0    3423
                                             29 COMRAM     2     2      0
                           _Lcd_Char
                          _Lcd_Clear
                     _Lcd_Set_Cursor
                         _Lcd_String
                            ___awdiv
                            ___awmod
                            ___lwdiv
                            ___lwmod
                              _color
                             _unidad
 ---------------------------------------------------------------------------------
 (2) _unidad                                               3     1      2      34
                                             23 COMRAM     3     1      2
                            ___lwmod (ARG)
 ---------------------------------------------------------------------------------
 (2) _color                                                4     2      2      34
                                             25 COMRAM     4     2      2
                            ___lwdiv (ARG)
 ---------------------------------------------------------------------------------
 (2) ___lwmod                                              5     1      4     256
                                             18 COMRAM     5     1      4
 ---------------------------------------------------------------------------------
 (2) ___lwdiv                                              7     3      4     271
                                             18 COMRAM     7     3      4
 ---------------------------------------------------------------------------------
 (2) ___awdiv                                              8     4      4     451
                                             18 COMRAM     8     4      4
 ---------------------------------------------------------------------------------
 (1) _mostrar_completado                                   0     0      0    1457
                          _Lcd_Clear
                     _Lcd_Set_Cursor
                         _Lcd_String
 ---------------------------------------------------------------------------------
 (1) _lcd_animacion_bienvenida                            37    37      0    3878
                                             26 COMRAM    37    37      0
                  _LCD_CrearCaracter
                           _Lcd_Char
                          _Lcd_Clear
                     _Lcd_Set_Cursor
                         _Lcd_String
                            ___awmod
 ---------------------------------------------------------------------------------
 (2) ___awmod                                              6     2      4     445
                                             18 COMRAM     6     2      4
 ---------------------------------------------------------------------------------
 (2) _LCD_CrearCaracter                                    4     3      1     944
                                             21 COMRAM     4     3      1
                           _Lcd_Char
                            _Lcd_Cmd
 ---------------------------------------------------------------------------------
 (1) _inicializar_hardware                                 2     2      0       0
                                             18 COMRAM     2     2      0
 ---------------------------------------------------------------------------------
 (1) _emergencia                                           0     0      0    1457
                          _Lcd_Clear
                     _Lcd_Set_Cursor
                         _Lcd_String
 ---------------------------------------------------------------------------------
 (2) _Lcd_String                                           1     0      1     468
                                             21 COMRAM     1     0      1
                           _Lcd_Char
 ---------------------------------------------------------------------------------
 (3) _Lcd_Char                                             3     3      0     376
                                             18 COMRAM     3     3      0
 ---------------------------------------------------------------------------------
 (2) _Lcd_Set_Cursor                                       5     4      1     613
                                             21 COMRAM     5     4      1
                            _Lcd_Cmd
 ---------------------------------------------------------------------------------
 (1) _Lcd_Init                                             1     1      0     752
                                             21 COMRAM     1     1      0
                          _Lcd_Clear
                            _Lcd_Cmd
 ---------------------------------------------------------------------------------
 (2) _Lcd_Clear                                            0     0      0     376
                            _Lcd_Cmd
 ---------------------------------------------------------------------------------
 (3) _Lcd_Cmd                                              3     3      0     376
                                             18 COMRAM     3     3      0
 ---------------------------------------------------------------------------------
 Estimated maximum stack depth 3
 ---------------------------------------------------------------------------------
 (Depth) Function   	        Calls       Base Space   Used Autos Params    Refs
 ---------------------------------------------------------------------------------
 (4) _ISR                                                  5     5      0    4507
                                             13 COMRAM     5     5      0
                        i2_Lcd_Clear
                          i2___lwdiv
                          i2___lwmod
                            i2_color
               i2_mostrar_completado
                   i2_mostrar_conteo
                    i2_mostrar_valor
                           i2_unidad
 ---------------------------------------------------------------------------------
 (5) i2_mostrar_valor                                      0     0      0     871
                        i2_Lcd_Clear
                   i2_Lcd_Set_Cursor
                       i2_Lcd_String
 ---------------------------------------------------------------------------------
 (5) i2_mostrar_conteo                                     2     2      0    2152
                                             11 COMRAM     2     2      0
                         i2_Lcd_Char
                        i2_Lcd_Clear
                   i2_Lcd_Set_Cursor
                       i2_Lcd_String
                          i2___awdiv
                          i2___awmod
                          i2___lwdiv
                          i2___lwmod
                            i2_color
                           i2_unidad
 ---------------------------------------------------------------------------------
 (5) i2_unidad                                             3     1      2      24
                                              5 COMRAM     3     1      2
                          i2___lwmod (ARG)
 ---------------------------------------------------------------------------------
 (6) i2_color                                              4     2      2      24
                                              7 COMRAM     4     2      2
                          i2___lwdiv (ARG)
 ---------------------------------------------------------------------------------
 (6) i2___lwmod                                            5     1      4     165
                                              0 COMRAM     5     1      4
 ---------------------------------------------------------------------------------
 (6) i2___lwdiv                                            7     3      4     168
                                              0 COMRAM     7     3      4
 ---------------------------------------------------------------------------------
 (6) i2___awmod                                            6     2      4     298
                                              0 COMRAM     6     2      4
 ---------------------------------------------------------------------------------
 (6) i2___awdiv                                            8     4      4     302
                                              0 COMRAM     8     4      4
 ---------------------------------------------------------------------------------
 (5) i2_mostrar_completado                                 0     0      0     871
                        i2_Lcd_Clear
                   i2_Lcd_Set_Cursor
                       i2_Lcd_String
 ---------------------------------------------------------------------------------
 (6) i2_Lcd_String                                         1     0      1     282
                                              3 COMRAM     1     0      1
                         i2_Lcd_Char
 ---------------------------------------------------------------------------------
 (7) i2_Lcd_Char                                           3     3      0     232
                                              0 COMRAM     3     3      0
 ---------------------------------------------------------------------------------
 (6) i2_Lcd_Set_Cursor                                     5     4      1     357
                                              3 COMRAM     5     4      1
                          i2_Lcd_Cmd
 ---------------------------------------------------------------------------------
 (6) i2_Lcd_Clear                                          0     0      0     232
                          i2_Lcd_Cmd
 ---------------------------------------------------------------------------------
 (7) i2_Lcd_Cmd                                            3     3      0     232
                                              0 COMRAM     3     3      0
 ---------------------------------------------------------------------------------
 Estimated maximum stack depth 7
 ---------------------------------------------------------------------------------

 Call Graph Graphs:

 _main (ROOT)
   _Lcd_Char
   _Lcd_Clear
     _Lcd_Cmd
   _Lcd_Init
     _Lcd_Clear
     _Lcd_Cmd
   _Lcd_Set_Cursor
     _Lcd_Cmd
   _Lcd_String
     _Lcd_Char
   ___lwdiv
   ___lwmod
   _emergencia
     _Lcd_Clear
     _Lcd_Set_Cursor
     _Lcd_String
   _inicializar_hardware
   _lcd_animacion_bienvenida
     _LCD_CrearCaracter
       _Lcd_Char
       _Lcd_Cmd
     _Lcd_Char
     _Lcd_Clear
     _Lcd_Set_Cursor
     _Lcd_String
     ___awmod
   _mostrar_completado
     _Lcd_Clear
     _Lcd_Set_Cursor
     _Lcd_String
   _mostrar_conteo
     _Lcd_Char
     _Lcd_Clear
     _Lcd_Set_Cursor
     _Lcd_String
     ___awdiv
     ___awmod
     ___lwdiv
     ___lwmod
     _color
       ___lwdiv (ARG)
     _unidad
       ___lwmod (ARG)
   _mostrar_valor
     _Lcd_Clear
     _Lcd_Set_Cursor
     _Lcd_String

 _ISR (ROOT)
   i2_Lcd_Clear
     i2_Lcd_Cmd
   i2___lwdiv
   i2___lwmod
   i2_color
     i2___lwdiv (ARG)
   i2_mostrar_completado
     i2_Lcd_Clear
     i2_Lcd_Set_Cursor
       i2_Lcd_Cmd
     i2_Lcd_String
       i2_Lcd_Char
   i2_mostrar_conteo
     i2_Lcd_Char
     i2_Lcd_Clear
     i2_Lcd_Set_Cursor
     i2_Lcd_String
     i2___awdiv
     i2___awmod
     i2___lwdiv
     i2___lwmod
     i2_color
     i2_unidad
       i2___lwmod (ARG)
   i2_mostrar_valor
     i2_Lcd_Clear
     i2_Lcd_Set_Cursor
     i2_Lcd_String
   i2_unidad

Address spaces:
Name               Size   Autos  Total    Usage
BIGRAM            2047      0       0      0.0%
BITBANK7           256      0       0      0.0%
BANK7              256      0       0      0.0%
BITBANK6           256      0       0      0.0%
BANK6              256      0       0      0.0%
BITBANK5           256      0       0      0.0%
BANK5              256      0       0      0.0%
BITBANK4           256      0       0      0.0%
BANK4              256      0       0      0.0%
BITBANK3           256      0       0      0.0%
BANK3              256      0       0      0.0%
BITBANK2           256      0       0      0.0%
BANK2              256      0       0      0.0%
BITBANK1           256      0       0      0.0%
BANK1              256      0       0      0.0%
BITBANK0           160      0       0      0.0%
BANK0              160      4       4      2.5%
BITBIGSFRh         115      0       0      0.0%
BITCOMRAM           94      0       0      0.0%
COMRAM              94     63      76     80.9%
BITBIGSFRll         33      0       0      0.0%
BITBIGSFRlh         10      0       0      0.0%
STACK                0      0       0      0.0%
DATA                 0      0      80      0.0%


Microchip Technology PIC18 Macro Assembler V2.50 build 20240725155939 
Symbol Table                                                                                   Thu Jul 03 13:05:28 2025

                         ___awdiv@sign 0018                     i2___lwdiv@dividend 0001  
                                  l256 1656                                    l266 18FA  
                                  l279 0C40                                    l768 1792  
                                  l778 1878                                    _GIE 7F97  
                                  _RC0 7C10                                    _RB4 7C0C  
                                  _RB5 7C0D                                    _RB6 7C0E  
                                  _RB7 7C0F                                    _ISR 0008  
                    ??i2_mostrar_valor 0009                                    _rpg 0832  
                         ___awmod@sign 0018                                    wreg 0FE8  
                    ?i2_mostrar_conteo 0001                   mostrar_conteo@faltan 001E  
                      ??_mostrar_valor 001B                                   ?_ISR 0001  
                 i2_Lcd_Set_Cursor$120 0006                     ??i2_mostrar_conteo 000C  
                                 l3000 1588                                   l3010 15AA  
                                 l3014 15B8                                   l3006 15A0  
                                 l3024 1760                                   l3130 0C0A  
                                 l3026 1768                                   l3036 1788  
                                 l3052 186E                                   l3044 184E  
                                 l3046 1856                                   l3304 09C2  
                                 l3146 0C46                                   l3138 0C1C  
                                 l3218 0F9C                                   l3314 0A08  
                                 l3322 0A50                                   l3180 0D16  
                                 l3260 0908                                   l3334 0ABC  
                                 l3352 0B2E                                   l3344 0AF8  
                                 l3362 0B52                                   l3346 0AFE  
                                 l3282 095E                                   l3274 0940  
                                 l3356 0B3C                                   l3284 0962  
                                 l2920 163E                                   l3368 0B64  
                                 l3376 0B76                                   l2922 1644  
                                 l2930 165A                                   l3378 0B9C  
                                 l2908 190C                                   l2924 164A  
                                 l2916 1632                                   l2926 1650  
                                 l2918 1638                                   l2960 1490  
                                 l2952 1472                                   l2970 14B0  
                                 l2946 1462                                   l2884 19AE  
                                 l2894 1A08                                   l2990 1566  
                                 l2958 1488                                   l2974 14BA  
                                 l2888 19C0                                   l2994 1572  
                                 l2978 14C8                                   l2998 1580  
                                 STR_1 0897                                   STR_2 08CA  
                                 STR_3 08BF                                   STR_4 0888  
                                 STR_5 0868                                   STR_6 08B3  
                                 STR_7 0879                                   STR_8 08A6  
                                 STR_9 0852                                   _LATA 0F89  
                                 _LATB 0F8A                                   u4000 185A  
                                 _LATD 0F8C                                   _LATE 0F8D  
                                 u4020 0BF0        lcd_animacion_bienvenida@mensaje 001D  
                                 u4040 0C36                                   u4050 0C60  
                                 u3430 11F2                                   u4070 0D6A  
                                 u4230 0A00                                   u3600 129C  
                                 u3520 123E                                   u3505 122C  
                                 u4170 09B2                                   u3515 1234  
                                 u3540 1254                                   u3460 120E  
                                 u3620 1120                                   u4180 09B4  
                                 u3445 11F4                                   u4317 08EA  
                                 u3710 116C                                   u4190 09BE  
                                 u3615 129E                                   u3535 1240  
                                 u3455 11FC                                   u4407 1172  
                                 u4327 0B20                                   u3560 1268  
                                 u4417 11D0                                   u3705 1162  
                                 u4337 0BA4                                   u3490 122A  
                                 u3730 1182                                   u3650 113C  
                                 u3555 1256                                   u3475 1210  
                                 u4427 17B0                                   u3635 1122  
                                 u4347 0C9A                                   _PEIE 7F96  
                                 u3580 1280                                   u3485 1218  
                                 u4437 17DE                                   u3805 11CC  
                                 u3725 116E                                   u3645 112A  
                                 u4357 0D04                                   u3750 1196  
                                 u3575 126A                                   u4447 1AA0  
                                 u4367 0D2C                                   _RBIE 7F93  
                                 u3680 1158                                   _RBIF 7F90  
                                 u4457 1244                                   u3745 1184  
                                 u3665 113E                                   u4377 0D4C  
                                 u3770 11AE                                   u3930 158C  
                                 u4467 12A2                                   u3595 1282  
                                 u3675 1146                                   u4387 0D74  
                                 u3765 1198                                   u4397 1710  
                                 u3790 11CA                                   u3870 1494  
                                 u3695 115A                                   u3785 11B0  
                                 u3970 176C                                   _RBPU 7F8F  
                                 _TMR0 0FD6                                   _main 08D6  
                   i2___lwdiv@quotient 0005                                   fsr2h 0FDA  
                                 indf2 0FDF                                   fsr2l 0FD9  
                                 btemp 004D                                   prodh 0FF4  
                                 prodl 0FF3                                   start 000E  
                   _mostrar_completado 1958                        __end_ofi2_color 16F4  
                      i2Lcd_String@str 0004                        __end_of_Lcd_Cmd 12AC  
                         ___param_bank 0000                       ??_mostrar_conteo 001E  
                                ??_ISR 000E                    ?_mostrar_completado 0001  
                           _Lcd_String 19AC                                  ?_main 0001  
                      __end_of___awdiv 14D2                        __end_of___awmod 15C2  
                                _T0CON 0FD5                        ___awdiv@divisor 0015  
                                _LATA1 7C49                                  _LATA3 7C4B  
                                _LATA4 7C4C                                  _LATA5 7C4D  
                                _LATD4 7C64                                  _LATD5 7C65  
                                _LATD6 7C66                                  _LATD7 7C67  
                      __end_of___lwdiv 179C                                  i2l201 0DBC  
                      __end_of___lwmod 1882                                  i2l211 0DE8  
                                i2l203 0DC4                                  i2l223 0E20  
                                i2l215 0DFC                                  i2l207 0DD8  
                                i2l232 0F10                                  i2l224 0E38  
                                i2l225 0E28                                  i2l217 0E04  
                                i2l209 0DE0                                  i2l227 0E30  
                                i2l219 0E0C                                  i2l256 16B8  
                                i2l199 0DB4                                  i2l768 1836  
                                i2l778 18BA                        ___awdiv@counter 0017  
                                _PORTB 0F81                                  _TRISA 0F92  
                                _TRISB 0F93                                  _TRISD 0F95  
                                _TRISE 0F96                                  _Tecla 004B  
                          ?i2_Lcd_Char 0001                                  _color 1630  
                 ??_mostrar_completado 001B                                  _input 0042  
     __end_of_lcd_animacion_bienvenida 0D88                                  tablat 0FF5  
                                ttemp5 004E                                  ttemp6 0051  
                                ttemp7 0055                                  status 0FD8  
                      __end_of_runner0 0852                        __end_of_runner1 084A  
                      __end_of_runner2 0842                                  wtemp8 004E  
                     __end_of_Lcd_Char 11DA                       i2_Lcd_Set_Cursor 1A20  
                     __end_ofi2_unidad 1A98                       __end_of_Lcd_Init 17EE  
                      __initialization 192C                           __end_of_main 0BB0  
                               ??_main 0060                          __activetblptr 0002  
                               _ADCON1 0FC1                                 ?_color 001A  
                     ___awdiv@dividend 0013                                 i2l2220 19D6  
                               i2l2300 153C                                 i2l2230 1A2C  
                               i2l2224 19E8                                 i2l2304 154A  
                               i2l2320 15E0                                 i2l2250 16A6  
                               i2l2340 1626                                 i2l2332 160E  
                               i2l2324 15EE                                 i2l2316 15D4  
                               i2l2252 16AC                                 i2l2244 1694  
                               i2l2326 15F6                                 i2l2350 1804  
                               i2l2254 16B2                                 i2l2246 169A  
                               i2l2272 14E4                                 i2l2336 1618  
                               i2l2352 180C                                 i2l2248 16A0  
                               i2l2362 182C                                 i2l2370 1890  
                               i2l2258 16BC                              ??i2_color 000A  
                               i2l2284 150A                                 i2l2372 1898  
                               i2l2286 1512                                 i2l2278 14F4  
                               i2l2296 1532                                 i2l2378 18B0  
                               i2l2554 108E                                 i2l2814 0EF4  
                               i2l2750 0E14                                 i2l2726 0DCC  
                               i2l2818 0F04                                 i2l2738 0DF0  
                               i2l2762 0E3C                                 i2l2782 0E78  
                               i2l2768 0E56                              ??_Lcd_Cmd 0013  
                               _TMR0IE 7F95                                 _TMR0IF 7F92  
                               _TMR0ON 7EAF                                 _TRISC0 7CA0  
                               _TRISA5 7C95                           ?i2_Lcd_Clear 0001  
                    __end_ofi2_Lcd_Cmd 1450                              ??___awdiv 0017  
                            ??___awmod 0017                              ??___lwdiv 0017  
                            ??___lwmod 0017                                 _estado 0048  
                               clear_0 1944                       ___awdiv@quotient 0019  
                      ___awmod@divisor 0015                                 isa$std 0001  
                      ___awmod@counter 0017                                 _unidad 1A74  
                          ?_Lcd_String 0016                                 color@i 001A  
                       i2___awdiv@sign 0006                           __pdataCOMRAM 004C  
                    __end_ofi2___awdiv 1554                      __end_ofi2___awmod 1630  
                    __end_ofi2___lwdiv 1840                           __mediumconst 0000  
                    __end_ofi2___lwmod 18C4                                 tblptrh 0FF7  
                               tblptrl 0FF6                                 tblptru 0FF8  
                       i2___awmod@sign 0006                             __accesstop 0060  
              __end_of__initialization 194A                      __end_of_Lcd_Clear 1AA8  
                        ___rparam_used 0001                        i2_mostrar_valor 1A5C  
                   i2___lwmod@dividend 0001                         __pcstackCOMRAM 0001  
                        __end_of_color 1692              ?_lcd_animacion_bienvenida 0001  
         __end_ofi2_mostrar_completado 19AC                         _Lcd_Set_Cursor 19FC  
                            ?_Lcd_Char 0001                              ?i2_unidad 0006  
                            ?_Lcd_Init 0001                                ??_color 001C  
                           _btnRC0_ant 004A                 __end_of_Lcd_Set_Cursor 1A20  
                              ?_unidad 0018               __end_ofi2_Lcd_Set_Cursor 1A44  
                         ??i2_Lcd_Char 0001                             _emergencia 18C4  
                           ??_Lcd_Char 0013                             ??i2_unidad 0008  
                           ??_Lcd_Init 0016                  __end_of_mostrar_valor 1A5C  
                              i2_color 1692                 i2Lcd_Set_Cursor@column 0004  
                              _Lcd_Cmd 11DA                __end_ofi2_mostrar_valor 1A74  
                              __Hparam 0000                                __Lparam 0000  
                              ___awdiv 1450                                ___awmod 1554  
                              ___lwdiv 174A                     __end_ofi2_Lcd_Char 137E  
                              ___lwmod 1840                           __psmallconst 0800  
                              __pcinit 192C                                __ramtop 0800  
                      ?_Lcd_Set_Cursor 0016                                __ptext0 08D6  
                              __ptext1 1A44                                __ptext2 0F24  
                              __ptext3 1A74                                __ptext4 1630  
                              __ptext5 1840                                __ptext6 174A  
                              __ptext7 1450                                __ptext8 1958  
                              __ptext9 0BB0                          ?i2_Lcd_String 0004  
                     ___awmod@dividend 0013                                _runner0 084A  
                              _runner1 0842                                _runner2 083A  
                    __end_of_explosion 0832                         __pintcode_body 0D88  
                 end_of_initialization 194A                          __Lmediumconst 0000  
                              int_func 0D88                   i2_mostrar_completado 1982  
             LCD_CrearCaracter@pattern 0016                                unidad@i 0018  
         __end_of_inicializar_hardware 174A                                postinc0 0FEE  
                              postinc2 0FDE                         ??i2_Lcd_String 0005  
                            i2_Lcd_Cmd 137E                           ??_Lcd_String 0017  
                          ?_emergencia 0001                              i2___awdiv 14D2  
                            i2___awmod 15C2                      i2___lwdiv@divisor 0003  
                            i2___lwdiv 17EE                              i2___lwmod 1882  
                    i2___lwdiv@counter 0007              lcd_animacion_bienvenida@c 003B  
            lcd_animacion_bienvenida@i 0039              lcd_animacion_bienvenida@j 003C  
                    _LCD_CrearCaracter 18FC                             main@btnRC0 0062  
                     ?i2_mostrar_valor 0001                  ?i2_mostrar_completado 0001  
                   i2___awdiv@dividend 0001                     ?_LCD_CrearCaracter 0016  
                   __end_of_Lcd_String 19D4                       i2_mostrar_conteo 1016  
                            _Lcd_Clear 1A98                    ??_LCD_CrearCaracter 0017  
__end_oflcd_animacion_bienvenida@F3145 0819          lcd_animacion_bienvenida@F3145 0801  
                        __pidataCOMRAM 1AB8                             ?i2_Lcd_Cmd 0001  
                       __end_of_unidad 1A86                    start_initialization 192C  
                   i2___awdiv@quotient 0007                            __end_of_ISR 0F24  
        lcd_animacion_bienvenida@pasos 0037                            __end_of_rpg 083A  
                            i2unidad@i 0006                             ?i2___awdiv 0001  
                           ?i2___awmod 0001              __end_of_LCD_CrearCaracter 192C  
                           ?i2___lwdiv 0001                             ?i2___lwmod 0001  
                           ?_Lcd_Clear 0001                               ??_unidad 001A  
                          __pbssCOMRAM 0040                          __pcstackBANK0 0060  
                    ?i2_Lcd_Set_Cursor 0004                 i2mostrar_conteo@faltan 000C  
                    i2___lwmod@divisor 0003                      i2___lwmod@counter 0005  
                   ??i2_Lcd_Set_Cursor 0005                     _Lcd_Set_Cursor$120 0019  
                 _inicializar_hardware 16F4                          Lcd_String@str 0016  
                             ?i2_color 0008                 ??i2_mostrar_completado 0009  
                             ?_Lcd_Cmd 0001                   __end_ofi2_Lcd_String 19FC  
                  __end_of_mapa_teclas 082A                       ___lwdiv@dividend 0013  
             _lcd_animacion_bienvenida 0BB0                       ??_Lcd_Set_Cursor 0017  
                            __pintcode 0008                    i2Lcd_Set_Cursor@pos 0008  
                             ?___awdiv 0013                    i2Lcd_Set_Cursor@row 0005  
                             ?___awmod 0013                               ?___lwdiv 0013  
                             ?___lwmod 0013                            ??i2_Lcd_Cmd 0001  
                          __smallconst 0800                         _mostrar_conteo 0F24  
                         Lcd_Char@data 0015                       ___lwdiv@quotient 0018  
                          ??i2___awdiv 0005                  ?_inicializar_hardware 0001  
                          ??i2___awmod 0005                            ??i2___lwdiv 0005  
                          ??i2___lwmod 0005                     LCD_CrearCaracter@i 0019  
                            _explosion 082A                           i2Lcd_Cmd@cmd 0003  
       lcd_animacion_bienvenida@offset 003E                               i2u210_40 1396  
                             i2u211_45 1398                               i2u220_45 13E4  
                             i2u212_45 13A0                               i2u221_40 13F8  
                             i2u213_40 13B2                               i2u222_45 13FA  
                             i2u214_45 13B4                               i2u230_45 12C6  
                             i2u223_40 140C                               i2u215_45 13BC  
                             i2u231_45 12CE                               i2u216_40 13CE  
                             i2u240_40 1326                               i2u232_40 12E0  
                             i2u224_45 140E                               i2u225_40 1424  
                             i2u217_45 13D0                               i2u241_45 1328  
                             i2u233_45 12E2                               i2u242_40 133A  
                             i2u226_45 1426                               i2u218_45 13D8  
                             i2u234_45 12EA                               i2u227_40 1440  
                             i2u219_40 13E2                               i2u235_40 12FC  
                             i2u243_45 133C                               i2u244_40 1352  
                             i2u228_45 1442                               i2u236_45 12FE  
                             i2u229_40 12C4                               i2u245_45 1354  
                             i2u237_45 1306                               i2u246_40 136E  
                             i2u238_40 1310                               i2u247_45 1370  
                             i2u239_45 1312                               i2u280_40 15FA  
                             i2u274_40 1516                               i2u450_47 1AB0  
                             i2u339_40 0E84                               i2u451_47 13E8  
                             i2u284_40 1810                               i2u452_47 1446  
                             i2u287_40 189C                               i2u447_47 0E42  
                             i2u448_47 1316                               i2u449_47 1374  
                        ??i2_Lcd_Clear 0004                            ??_Lcd_Clear 0016  
               __end_of_mostrar_conteo 1016                              main@tecla 0063  
             __end_ofi2_mostrar_conteo 1108                      i2___awdiv@divisor 0003  
                    i2___awdiv@counter 0005                           ??_emergencia 001B  
           __end_of_mostrar_completado 1982                               _Lcd_Char 1108  
                             i2_unidad 1A86                               _Lcd_Init 179C  
                             i2color@i 0008           _lcd_animacion_bienvenida$183 0035  
                          _mapa_teclas 0819                     i2___awmod@dividend 0001  
                          _inactividad 0040                   Lcd_Set_Cursor@column 0016  
                             __Hrparam 0000                               __Lrparam 0000  
                   __end_of_emergencia 18FC                        ?_mostrar_conteo 0001  
                  __end_ofi2_Lcd_Clear 1AB8                        ___lwdiv@divisor 0015  
               ??_inicializar_hardware 0013                        ___lwdiv@counter 0017  
                             __ptext10 1554                               __ptext11 18FC  
                             __ptext12 16F4                               __ptext21 1A5C  
                             __ptext13 18C4                               __ptext30 19D4  
                             __ptext22 1016                               __ptext14 19AC  
                             __ptext31 12AC                               __ptext23 1A86  
                             __ptext15 1108                               __ptext32 1A20  
                             __ptext24 1692                               __ptext16 19FC  
                             __ptext33 1AA8                               __ptext25 1882  
                             __ptext17 179C                               __ptext34 137E  
                             __ptext26 17EE                               __ptext18 1A98  
                             __ptext27 15C2                               __ptext19 11DA  
                             __ptext28 14D2                               __ptext29 1982  
                 LCD_CrearCaracter@pos 0018                               _contador 0044  
                        _mostrar_valor 1A44                               _objetivo 0046  
                        _lcd_backlight 004C                               isa$xinst 0000  
                             int$flags 004D                           i2_Lcd_String 19D4  
                    i2___awmod@divisor 0003                      i2___awmod@counter 0005  
                       ?_mostrar_valor 0001                               intlevel2 0000  
                       i2Lcd_Char@data 0003             ??_lcd_animacion_bienvenida 001B  
                     ___lwmod@dividend 0013                             Lcd_Cmd@cmd 0015  
                          i2_Lcd_Clear 1AA8                        ___lwmod@divisor 0015  
                      ___lwmod@counter 0017                             i2_Lcd_Char 12AC  
                    Lcd_Set_Cursor@pos 0018                      Lcd_Set_Cursor@row 0017  
